(dp1
S'output'
p2
S''
sS'layer'
p3
S'/opt/cassandra-dev/PROJECTS/Cassandra-Monitor/src/CassandraMonitor/myinterface/applications/cass1/controllers/cass_mgr.py'
p4
sS'code'
p5
S'# coding: utf8\nfrom __future__ import absolute_import\nimport sys\n# total hack\nsys.path.append("\\\n/opt/work/projects/Cassandra-Monitor/src/CassandraMonitor/myinterface/applications/cass1/controllers")\n\nimport mydata.data as d\n\ndef index():\n    data = d.MyData()\n    myjmx = data.mydict()\n    return dict(myjmx)\n\n\n\nresponse._vars=response._caller(index)\n'
p6
sS'snapshot'
p7
(dp8
S'exception'
p9
(dp10
S'__hash__'
p11
S"<method-wrapper '__hash__' of exceptions.ImportError object>"
p12
sS'__setattr__'
p13
S"<method-wrapper '__setattr__' of exceptions.ImportError object>"
p14
sS'__reduce_ex__'
p15
S'<built-in method __reduce_ex__ of exceptions.ImportError object>'
p16
sS'__getslice__'
p17
S"<method-wrapper '__getslice__' of exceptions.ImportError object>"
p18
sS'__getitem__'
p19
S"<method-wrapper '__getitem__' of exceptions.ImportError object>"
p20
sS'__setstate__'
p21
S'<built-in method __setstate__ of exceptions.ImportError object>'
p22
sS'args'
p23
S"('No module named mydata.data',)"
p24
sS'__reduce__'
p25
S'<built-in method __reduce__ of exceptions.ImportError object>'
p26
sS'__str__'
p27
S"<method-wrapper '__str__' of exceptions.ImportError object>"
p28
sS'__format__'
p29
S'<built-in method __format__ of exceptions.ImportError object>'
p30
sS'__getattribute__'
p31
S"<method-wrapper '__getattribute__' of exceptions.ImportError object>"
p32
sS'__class__'
p33
S"<type 'exceptions.ImportError'>"
p34
sS'__unicode__'
p35
S'<built-in method __unicode__ of exceptions.ImportError object>'
p36
sS'__delattr__'
p37
S"<method-wrapper '__delattr__' of exceptions.ImportError object>"
p38
sS'__subclasshook__'
p39
S'<built-in method __subclasshook__ of type object>'
p40
sS'__repr__'
p41
S"<method-wrapper '__repr__' of exceptions.ImportError object>"
p42
sS'__dict__'
p43
S'{}'
p44
sS'__sizeof__'
p45
S'<built-in method __sizeof__ of exceptions.ImportError object>'
p46
sS'__doc__'
p47
S'"Import can\'t find module, or can\'t find name in module."'
p48
sS'__init__'
p49
S"<method-wrapper '__init__' of exceptions.ImportError object>"
p50
sS'__new__'
p51
S'<built-in method __new__ of type object>'
p52
ssS'evalue'
p53
S'No module named mydata.data'
p54
sS'request'
p55
ccopy_reg
_reconstructor
p56
(cgluon.html
BEAUTIFY
p57
c__builtin__
object
p58
NtRp59
(dp60
S'attributes'
p61
(dp62
sS'components'
p63
(lp64
g56
(cgluon.html
TABLE
p65
g58
NtRp66
(dp67
g61
(dp68
S'level'
p69
I5
ssS'parent'
p70
Nsg63
(lp71
g56
(cgluon.html
TR
p72
g58
NtRp73
(dp74
g61
(dp75
sg70
g66
sg63
(lp76
g56
(cgluon.html
TD
p77
g58
NtRp78
(dp79
g61
(dp80
S'_style'
p81
S'font-weight:bold;'
p82
ssg70
g73
sg63
(lp83
S'ajax'
p84
asbag56
(g77
g58
NtRp85
(dp86
g61
(dp87
S'_valign'
p88
S'top'
p89
ssg70
g73
sg63
(lp90
S':'
asbag56
(g77
g58
NtRp91
(dp92
g61
(dp93
sg70
g73
sg63
(lp94
g56
(g57
g58
NtRp95
(dp96
g61
(dp97
g69
I5
ssg70
g91
sg63
(lp98
S'False'
p99
asbasbasbag56
(g72
g58
NtRp100
(dp101
g61
(dp102
sg70
g66
sg63
(lp103
g56
(g77
g58
NtRp104
(dp105
g61
(dp106
g81
g82
ssg70
g100
sg63
(lp107
S'application'
p108
asbag56
(g77
g58
NtRp109
(dp110
g61
(dp111
g88
g89
ssg70
g100
sg63
(lp112
S':'
asbag56
(g77
g58
NtRp113
(dp114
g61
(dp115
sg70
g100
sg63
(lp116
g56
(g57
g58
NtRp117
(dp118
g61
(dp119
g69
I5
ssg70
g113
sg63
(lp120
S'cass1'
p121
asbasbasbag56
(g72
g58
NtRp122
(dp123
g61
(dp124
sg70
g66
sg63
(lp125
g56
(g77
g58
NtRp126
(dp127
g61
(dp128
g81
g82
ssg70
g122
sg63
(lp129
g23
asbag56
(g77
g58
NtRp130
(dp131
g61
(dp132
g88
g89
ssg70
g122
sg63
(lp133
S':'
asbag56
(g77
g58
NtRp134
(dp135
g61
(dp136
sg70
g122
sg63
(lp137
g56
(g57
g58
NtRp138
(dp139
g61
(dp140
g69
I5
ssg70
g134
sg63
(lp141
g56
(g65
g58
NtRp142
(dp143
g61
(dp144
g69
I4
ssg70
Nsg63
(lp145
sbasbasbasbag56
(g72
g58
NtRp146
(dp147
g61
(dp148
sg70
g66
sg63
(lp149
g56
(g77
g58
NtRp150
(dp151
g61
(dp152
g81
g82
ssg70
g146
sg63
(lp153
S'body'
p154
asbag56
(g77
g58
NtRp155
(dp156
g61
(dp157
g88
g89
ssg70
g146
sg63
(lp158
S':'
asbag56
(g77
g58
NtRp159
(dp160
g61
(dp161
sg70
g146
sg63
(lp162
g56
(g57
g58
NtRp163
(dp164
g61
(dp165
g69
I5
ssg70
g159
sg63
(lp166
S'<cStringIO.StringO object at 0x2a334c8>'
p167
asbasbasbag56
(g72
g58
NtRp168
(dp169
g61
(dp170
sg70
g66
sg63
(lp171
g56
(g77
g58
NtRp172
(dp173
g61
(dp174
g81
g82
ssg70
g168
sg63
(lp175
S'client'
p176
asbag56
(g77
g58
NtRp177
(dp178
g61
(dp179
g88
g89
ssg70
g168
sg63
(lp180
S':'
asbag56
(g77
g58
NtRp181
(dp182
g61
(dp183
sg70
g168
sg63
(lp184
g56
(g57
g58
NtRp185
(dp186
g61
(dp187
g69
I5
ssg70
g181
sg63
(lp188
S'127.0.0.1'
p189
asbasbasbag56
(g72
g58
NtRp190
(dp191
g61
(dp192
sg70
g66
sg63
(lp193
g56
(g77
g58
NtRp194
(dp195
g61
(dp196
g81
g82
ssg70
g190
sg63
(lp197
S'controller'
p198
asbag56
(g77
g58
NtRp199
(dp200
g61
(dp201
g88
g89
ssg70
g190
sg63
(lp202
S':'
asbag56
(g77
g58
NtRp203
(dp204
g61
(dp205
sg70
g190
sg63
(lp206
g56
(g57
g58
NtRp207
(dp208
g61
(dp209
g69
I5
ssg70
g203
sg63
(lp210
S'cass_mgr'
p211
asbasbasbag56
(g72
g58
NtRp212
(dp213
g61
(dp214
sg70
g66
sg63
(lp215
g56
(g77
g58
NtRp216
(dp217
g61
(dp218
g81
g82
ssg70
g212
sg63
(lp219
S'cookies'
p220
asbag56
(g77
g58
NtRp221
(dp222
g61
(dp223
g88
g89
ssg70
g212
sg63
(lp224
S':'
asbag56
(g77
g58
NtRp225
(dp226
g61
(dp227
sg70
g212
sg63
(lp228
g56
(g57
g58
NtRp229
(dp230
g61
(dp231
g69
I5
ssg70
g225
sg63
(lp232
g56
(g65
g58
NtRp233
(dp234
g61
(dp235
g69
I4
ssg70
Nsg63
(lp236
g56
(g72
g58
NtRp237
(dp238
g61
(dp239
sg70
g233
sg63
(lp240
g56
(g77
g58
NtRp241
(dp242
g61
(dp243
g81
g82
ssg70
g237
sg63
(lp244
S'session_id_admin'
p245
asbag56
(g77
g58
NtRp246
(dp247
g61
(dp248
g88
g89
ssg70
g237
sg63
(lp249
S':'
asbag56
(g77
g58
NtRp250
(dp251
g61
(dp252
sg70
g237
sg63
(lp253
g56
(g57
g58
NtRp254
(dp255
g61
(dp256
g69
I4
ssg70
g250
sg63
(lp257
g56
(g65
g58
NtRp258
(dp259
g61
(dp260
g69
I3
ssg70
Nsg63
(lp261
g56
(g72
g58
NtRp262
(dp263
g61
(dp264
sg70
g258
sg63
(lp265
g56
(g77
g58
NtRp266
(dp267
g61
(dp268
g81
g82
ssg70
g262
sg63
(lp269
S'comment'
p270
asbag56
(g77
g58
NtRp271
(dp272
g61
(dp273
g88
g89
ssg70
g262
sg63
(lp274
S':'
asbag56
(g77
g58
NtRp275
(dp276
g61
(dp277
sg70
g262
sg63
(lp278
g56
(g57
g58
NtRp279
(dp280
g61
(dp281
g69
I3
ssg70
g275
sg63
(lp282
S''
asbasbasbag56
(g72
g58
NtRp283
(dp284
g61
(dp285
sg70
g258
sg63
(lp286
g56
(g77
g58
NtRp287
(dp288
g61
(dp289
g81
g82
ssg70
g283
sg63
(lp290
S'domain'
p291
asbag56
(g77
g58
NtRp292
(dp293
g61
(dp294
g88
g89
ssg70
g283
sg63
(lp295
S':'
asbag56
(g77
g58
NtRp296
(dp297
g61
(dp298
sg70
g283
sg63
(lp299
g56
(g57
g58
NtRp300
(dp301
g61
(dp302
g69
I3
ssg70
g296
sg63
(lp303
S''
asbasbasbag56
(g72
g58
NtRp304
(dp305
g61
(dp306
sg70
g258
sg63
(lp307
g56
(g77
g58
NtRp308
(dp309
g61
(dp310
g81
g82
ssg70
g304
sg63
(lp311
S'expires'
p312
asbag56
(g77
g58
NtRp313
(dp314
g61
(dp315
g88
g89
ssg70
g304
sg63
(lp316
S':'
asbag56
(g77
g58
NtRp317
(dp318
g61
(dp319
sg70
g304
sg63
(lp320
g56
(g57
g58
NtRp321
(dp322
g61
(dp323
g69
I3
ssg70
g317
sg63
(lp324
S''
asbasbasbag56
(g72
g58
NtRp325
(dp326
g61
(dp327
sg70
g258
sg63
(lp328
g56
(g77
g58
NtRp329
(dp330
g61
(dp331
g81
g82
ssg70
g325
sg63
(lp332
S'httponly'
p333
asbag56
(g77
g58
NtRp334
(dp335
g61
(dp336
g88
g89
ssg70
g325
sg63
(lp337
S':'
asbag56
(g77
g58
NtRp338
(dp339
g61
(dp340
sg70
g325
sg63
(lp341
g56
(g57
g58
NtRp342
(dp343
g61
(dp344
g69
I3
ssg70
g338
sg63
(lp345
S''
asbasbasbag56
(g72
g58
NtRp346
(dp347
g61
(dp348
sg70
g258
sg63
(lp349
g56
(g77
g58
NtRp350
(dp351
g61
(dp352
g81
g82
ssg70
g346
sg63
(lp353
S'max-age'
p354
asbag56
(g77
g58
NtRp355
(dp356
g61
(dp357
g88
g89
ssg70
g346
sg63
(lp358
S':'
asbag56
(g77
g58
NtRp359
(dp360
g61
(dp361
sg70
g346
sg63
(lp362
g56
(g57
g58
NtRp363
(dp364
g61
(dp365
g69
I3
ssg70
g359
sg63
(lp366
S''
asbasbasbag56
(g72
g58
NtRp367
(dp368
g61
(dp369
sg70
g258
sg63
(lp370
g56
(g77
g58
NtRp371
(dp372
g61
(dp373
g81
g82
ssg70
g367
sg63
(lp374
S'path'
p375
asbag56
(g77
g58
NtRp376
(dp377
g61
(dp378
g88
g89
ssg70
g367
sg63
(lp379
S':'
asbag56
(g77
g58
NtRp380
(dp381
g61
(dp382
sg70
g367
sg63
(lp383
g56
(g57
g58
NtRp384
(dp385
g61
(dp386
g69
I3
ssg70
g380
sg63
(lp387
S''
asbasbasbag56
(g72
g58
NtRp388
(dp389
g61
(dp390
sg70
g258
sg63
(lp391
g56
(g77
g58
NtRp392
(dp393
g61
(dp394
g81
g82
ssg70
g388
sg63
(lp395
S'secure'
p396
asbag56
(g77
g58
NtRp397
(dp398
g61
(dp399
g88
g89
ssg70
g388
sg63
(lp400
S':'
asbag56
(g77
g58
NtRp401
(dp402
g61
(dp403
sg70
g388
sg63
(lp404
g56
(g57
g58
NtRp405
(dp406
g61
(dp407
g69
I3
ssg70
g401
sg63
(lp408
S''
asbasbasbag56
(g72
g58
NtRp409
(dp410
g61
(dp411
sg70
g258
sg63
(lp412
g56
(g77
g58
NtRp413
(dp414
g61
(dp415
g81
g82
ssg70
g409
sg63
(lp416
S'version'
p417
asbag56
(g77
g58
NtRp418
(dp419
g61
(dp420
g88
g89
ssg70
g409
sg63
(lp421
S':'
asbag56
(g77
g58
NtRp422
(dp423
g61
(dp424
sg70
g409
sg63
(lp425
g56
(g57
g58
NtRp426
(dp427
g61
(dp428
g69
I3
ssg70
g422
sg63
(lp429
S''
asbasbasbasbasbasbasbag56
(g72
g58
NtRp430
(dp431
g61
(dp432
sg70
g233
sg63
(lp433
g56
(g77
g58
NtRp434
(dp435
g61
(dp436
g81
g82
ssg70
g430
sg63
(lp437
S'session_id_cass1'
p438
asbag56
(g77
g58
NtRp439
(dp440
g61
(dp441
g88
g89
ssg70
g430
sg63
(lp442
S':'
asbag56
(g77
g58
NtRp443
(dp444
g61
(dp445
sg70
g430
sg63
(lp446
g56
(g57
g58
NtRp447
(dp448
g61
(dp449
g69
I4
ssg70
g443
sg63
(lp450
g56
(g65
g58
NtRp451
(dp452
g61
(dp453
g69
I3
ssg70
Nsg63
(lp454
g56
(g72
g58
NtRp455
(dp456
g61
(dp457
sg70
g451
sg63
(lp458
g56
(g77
g58
NtRp459
(dp460
g61
(dp461
g81
g82
ssg70
g455
sg63
(lp462
g270
asbag56
(g77
g58
NtRp463
(dp464
g61
(dp465
g88
g89
ssg70
g455
sg63
(lp466
S':'
asbag56
(g77
g58
NtRp467
(dp468
g61
(dp469
sg70
g455
sg63
(lp470
g56
(g57
g58
NtRp471
(dp472
g61
(dp473
g69
I3
ssg70
g467
sg63
(lp474
S''
asbasbasbag56
(g72
g58
NtRp475
(dp476
g61
(dp477
sg70
g451
sg63
(lp478
g56
(g77
g58
NtRp479
(dp480
g61
(dp481
g81
g82
ssg70
g475
sg63
(lp482
g291
asbag56
(g77
g58
NtRp483
(dp484
g61
(dp485
g88
g89
ssg70
g475
sg63
(lp486
S':'
asbag56
(g77
g58
NtRp487
(dp488
g61
(dp489
sg70
g475
sg63
(lp490
g56
(g57
g58
NtRp491
(dp492
g61
(dp493
g69
I3
ssg70
g487
sg63
(lp494
S''
asbasbasbag56
(g72
g58
NtRp495
(dp496
g61
(dp497
sg70
g451
sg63
(lp498
g56
(g77
g58
NtRp499
(dp500
g61
(dp501
g81
g82
ssg70
g495
sg63
(lp502
g312
asbag56
(g77
g58
NtRp503
(dp504
g61
(dp505
g88
g89
ssg70
g495
sg63
(lp506
S':'
asbag56
(g77
g58
NtRp507
(dp508
g61
(dp509
sg70
g495
sg63
(lp510
g56
(g57
g58
NtRp511
(dp512
g61
(dp513
g69
I3
ssg70
g507
sg63
(lp514
S''
asbasbasbag56
(g72
g58
NtRp515
(dp516
g61
(dp517
sg70
g451
sg63
(lp518
g56
(g77
g58
NtRp519
(dp520
g61
(dp521
g81
g82
ssg70
g515
sg63
(lp522
g333
asbag56
(g77
g58
NtRp523
(dp524
g61
(dp525
g88
g89
ssg70
g515
sg63
(lp526
S':'
asbag56
(g77
g58
NtRp527
(dp528
g61
(dp529
sg70
g515
sg63
(lp530
g56
(g57
g58
NtRp531
(dp532
g61
(dp533
g69
I3
ssg70
g527
sg63
(lp534
S''
asbasbasbag56
(g72
g58
NtRp535
(dp536
g61
(dp537
sg70
g451
sg63
(lp538
g56
(g77
g58
NtRp539
(dp540
g61
(dp541
g81
g82
ssg70
g535
sg63
(lp542
g354
asbag56
(g77
g58
NtRp543
(dp544
g61
(dp545
g88
g89
ssg70
g535
sg63
(lp546
S':'
asbag56
(g77
g58
NtRp547
(dp548
g61
(dp549
sg70
g535
sg63
(lp550
g56
(g57
g58
NtRp551
(dp552
g61
(dp553
g69
I3
ssg70
g547
sg63
(lp554
S''
asbasbasbag56
(g72
g58
NtRp555
(dp556
g61
(dp557
sg70
g451
sg63
(lp558
g56
(g77
g58
NtRp559
(dp560
g61
(dp561
g81
g82
ssg70
g555
sg63
(lp562
g375
asbag56
(g77
g58
NtRp563
(dp564
g61
(dp565
g88
g89
ssg70
g555
sg63
(lp566
S':'
asbag56
(g77
g58
NtRp567
(dp568
g61
(dp569
sg70
g555
sg63
(lp570
g56
(g57
g58
NtRp571
(dp572
g61
(dp573
g69
I3
ssg70
g567
sg63
(lp574
S''
asbasbasbag56
(g72
g58
NtRp575
(dp576
g61
(dp577
sg70
g451
sg63
(lp578
g56
(g77
g58
NtRp579
(dp580
g61
(dp581
g81
g82
ssg70
g575
sg63
(lp582
g396
asbag56
(g77
g58
NtRp583
(dp584
g61
(dp585
g88
g89
ssg70
g575
sg63
(lp586
S':'
asbag56
(g77
g58
NtRp587
(dp588
g61
(dp589
sg70
g575
sg63
(lp590
g56
(g57
g58
NtRp591
(dp592
g61
(dp593
g69
I3
ssg70
g587
sg63
(lp594
S''
asbasbasbag56
(g72
g58
NtRp595
(dp596
g61
(dp597
sg70
g451
sg63
(lp598
g56
(g77
g58
NtRp599
(dp600
g61
(dp601
g81
g82
ssg70
g595
sg63
(lp602
g417
asbag56
(g77
g58
NtRp603
(dp604
g61
(dp605
g88
g89
ssg70
g595
sg63
(lp606
S':'
asbag56
(g77
g58
NtRp607
(dp608
g61
(dp609
sg70
g595
sg63
(lp610
g56
(g57
g58
NtRp611
(dp612
g61
(dp613
g69
I3
ssg70
g607
sg63
(lp614
S''
asbasbasbasbasbasbasbag56
(g72
g58
NtRp615
(dp616
g61
(dp617
sg70
g233
sg63
(lp618
g56
(g77
g58
NtRp619
(dp620
g61
(dp621
g81
g82
ssg70
g615
sg63
(lp622
S'session_id_sysadmin'
p623
asbag56
(g77
g58
NtRp624
(dp625
g61
(dp626
g88
g89
ssg70
g615
sg63
(lp627
S':'
asbag56
(g77
g58
NtRp628
(dp629
g61
(dp630
sg70
g615
sg63
(lp631
g56
(g57
g58
NtRp632
(dp633
g61
(dp634
g69
I4
ssg70
g628
sg63
(lp635
g56
(g65
g58
NtRp636
(dp637
g61
(dp638
g69
I3
ssg70
Nsg63
(lp639
g56
(g72
g58
NtRp640
(dp641
g61
(dp642
sg70
g636
sg63
(lp643
g56
(g77
g58
NtRp644
(dp645
g61
(dp646
g81
g82
ssg70
g640
sg63
(lp647
g270
asbag56
(g77
g58
NtRp648
(dp649
g61
(dp650
g88
g89
ssg70
g640
sg63
(lp651
S':'
asbag56
(g77
g58
NtRp652
(dp653
g61
(dp654
sg70
g640
sg63
(lp655
g56
(g57
g58
NtRp656
(dp657
g61
(dp658
g69
I3
ssg70
g652
sg63
(lp659
S''
asbasbasbag56
(g72
g58
NtRp660
(dp661
g61
(dp662
sg70
g636
sg63
(lp663
g56
(g77
g58
NtRp664
(dp665
g61
(dp666
g81
g82
ssg70
g660
sg63
(lp667
g291
asbag56
(g77
g58
NtRp668
(dp669
g61
(dp670
g88
g89
ssg70
g660
sg63
(lp671
S':'
asbag56
(g77
g58
NtRp672
(dp673
g61
(dp674
sg70
g660
sg63
(lp675
g56
(g57
g58
NtRp676
(dp677
g61
(dp678
g69
I3
ssg70
g672
sg63
(lp679
S''
asbasbasbag56
(g72
g58
NtRp680
(dp681
g61
(dp682
sg70
g636
sg63
(lp683
g56
(g77
g58
NtRp684
(dp685
g61
(dp686
g81
g82
ssg70
g680
sg63
(lp687
g312
asbag56
(g77
g58
NtRp688
(dp689
g61
(dp690
g88
g89
ssg70
g680
sg63
(lp691
S':'
asbag56
(g77
g58
NtRp692
(dp693
g61
(dp694
sg70
g680
sg63
(lp695
g56
(g57
g58
NtRp696
(dp697
g61
(dp698
g69
I3
ssg70
g692
sg63
(lp699
S''
asbasbasbag56
(g72
g58
NtRp700
(dp701
g61
(dp702
sg70
g636
sg63
(lp703
g56
(g77
g58
NtRp704
(dp705
g61
(dp706
g81
g82
ssg70
g700
sg63
(lp707
g333
asbag56
(g77
g58
NtRp708
(dp709
g61
(dp710
g88
g89
ssg70
g700
sg63
(lp711
S':'
asbag56
(g77
g58
NtRp712
(dp713
g61
(dp714
sg70
g700
sg63
(lp715
g56
(g57
g58
NtRp716
(dp717
g61
(dp718
g69
I3
ssg70
g712
sg63
(lp719
S''
asbasbasbag56
(g72
g58
NtRp720
(dp721
g61
(dp722
sg70
g636
sg63
(lp723
g56
(g77
g58
NtRp724
(dp725
g61
(dp726
g81
g82
ssg70
g720
sg63
(lp727
g354
asbag56
(g77
g58
NtRp728
(dp729
g61
(dp730
g88
g89
ssg70
g720
sg63
(lp731
S':'
asbag56
(g77
g58
NtRp732
(dp733
g61
(dp734
sg70
g720
sg63
(lp735
g56
(g57
g58
NtRp736
(dp737
g61
(dp738
g69
I3
ssg70
g732
sg63
(lp739
S''
asbasbasbag56
(g72
g58
NtRp740
(dp741
g61
(dp742
sg70
g636
sg63
(lp743
g56
(g77
g58
NtRp744
(dp745
g61
(dp746
g81
g82
ssg70
g740
sg63
(lp747
g375
asbag56
(g77
g58
NtRp748
(dp749
g61
(dp750
g88
g89
ssg70
g740
sg63
(lp751
S':'
asbag56
(g77
g58
NtRp752
(dp753
g61
(dp754
sg70
g740
sg63
(lp755
g56
(g57
g58
NtRp756
(dp757
g61
(dp758
g69
I3
ssg70
g752
sg63
(lp759
S''
asbasbasbag56
(g72
g58
NtRp760
(dp761
g61
(dp762
sg70
g636
sg63
(lp763
g56
(g77
g58
NtRp764
(dp765
g61
(dp766
g81
g82
ssg70
g760
sg63
(lp767
g396
asbag56
(g77
g58
NtRp768
(dp769
g61
(dp770
g88
g89
ssg70
g760
sg63
(lp771
S':'
asbag56
(g77
g58
NtRp772
(dp773
g61
(dp774
sg70
g760
sg63
(lp775
g56
(g57
g58
NtRp776
(dp777
g61
(dp778
g69
I3
ssg70
g772
sg63
(lp779
S''
asbasbasbag56
(g72
g58
NtRp780
(dp781
g61
(dp782
sg70
g636
sg63
(lp783
g56
(g77
g58
NtRp784
(dp785
g61
(dp786
g81
g82
ssg70
g780
sg63
(lp787
g417
asbag56
(g77
g58
NtRp788
(dp789
g61
(dp790
g88
g89
ssg70
g780
sg63
(lp791
S':'
asbag56
(g77
g58
NtRp792
(dp793
g61
(dp794
sg70
g780
sg63
(lp795
g56
(g57
g58
NtRp796
(dp797
g61
(dp798
g69
I3
ssg70
g792
sg63
(lp799
S''
asbasbasbasbasbasbasbag56
(g72
g58
NtRp800
(dp801
g61
(dp802
sg70
g233
sg63
(lp803
g56
(g77
g58
NtRp804
(dp805
g61
(dp806
g81
g82
ssg70
g800
sg63
(lp807
S'session_id_welcome'
p808
asbag56
(g77
g58
NtRp809
(dp810
g61
(dp811
g88
g89
ssg70
g800
sg63
(lp812
S':'
asbag56
(g77
g58
NtRp813
(dp814
g61
(dp815
sg70
g800
sg63
(lp816
g56
(g57
g58
NtRp817
(dp818
g61
(dp819
g69
I4
ssg70
g813
sg63
(lp820
g56
(g65
g58
NtRp821
(dp822
g61
(dp823
g69
I3
ssg70
Nsg63
(lp824
g56
(g72
g58
NtRp825
(dp826
g61
(dp827
sg70
g821
sg63
(lp828
g56
(g77
g58
NtRp829
(dp830
g61
(dp831
g81
g82
ssg70
g825
sg63
(lp832
g270
asbag56
(g77
g58
NtRp833
(dp834
g61
(dp835
g88
g89
ssg70
g825
sg63
(lp836
S':'
asbag56
(g77
g58
NtRp837
(dp838
g61
(dp839
sg70
g825
sg63
(lp840
g56
(g57
g58
NtRp841
(dp842
g61
(dp843
g69
I3
ssg70
g837
sg63
(lp844
S''
asbasbasbag56
(g72
g58
NtRp845
(dp846
g61
(dp847
sg70
g821
sg63
(lp848
g56
(g77
g58
NtRp849
(dp850
g61
(dp851
g81
g82
ssg70
g845
sg63
(lp852
g291
asbag56
(g77
g58
NtRp853
(dp854
g61
(dp855
g88
g89
ssg70
g845
sg63
(lp856
S':'
asbag56
(g77
g58
NtRp857
(dp858
g61
(dp859
sg70
g845
sg63
(lp860
g56
(g57
g58
NtRp861
(dp862
g61
(dp863
g69
I3
ssg70
g857
sg63
(lp864
S''
asbasbasbag56
(g72
g58
NtRp865
(dp866
g61
(dp867
sg70
g821
sg63
(lp868
g56
(g77
g58
NtRp869
(dp870
g61
(dp871
g81
g82
ssg70
g865
sg63
(lp872
g312
asbag56
(g77
g58
NtRp873
(dp874
g61
(dp875
g88
g89
ssg70
g865
sg63
(lp876
S':'
asbag56
(g77
g58
NtRp877
(dp878
g61
(dp879
sg70
g865
sg63
(lp880
g56
(g57
g58
NtRp881
(dp882
g61
(dp883
g69
I3
ssg70
g877
sg63
(lp884
S''
asbasbasbag56
(g72
g58
NtRp885
(dp886
g61
(dp887
sg70
g821
sg63
(lp888
g56
(g77
g58
NtRp889
(dp890
g61
(dp891
g81
g82
ssg70
g885
sg63
(lp892
g333
asbag56
(g77
g58
NtRp893
(dp894
g61
(dp895
g88
g89
ssg70
g885
sg63
(lp896
S':'
asbag56
(g77
g58
NtRp897
(dp898
g61
(dp899
sg70
g885
sg63
(lp900
g56
(g57
g58
NtRp901
(dp902
g61
(dp903
g69
I3
ssg70
g897
sg63
(lp904
S''
asbasbasbag56
(g72
g58
NtRp905
(dp906
g61
(dp907
sg70
g821
sg63
(lp908
g56
(g77
g58
NtRp909
(dp910
g61
(dp911
g81
g82
ssg70
g905
sg63
(lp912
g354
asbag56
(g77
g58
NtRp913
(dp914
g61
(dp915
g88
g89
ssg70
g905
sg63
(lp916
S':'
asbag56
(g77
g58
NtRp917
(dp918
g61
(dp919
sg70
g905
sg63
(lp920
g56
(g57
g58
NtRp921
(dp922
g61
(dp923
g69
I3
ssg70
g917
sg63
(lp924
S''
asbasbasbag56
(g72
g58
NtRp925
(dp926
g61
(dp927
sg70
g821
sg63
(lp928
g56
(g77
g58
NtRp929
(dp930
g61
(dp931
g81
g82
ssg70
g925
sg63
(lp932
g375
asbag56
(g77
g58
NtRp933
(dp934
g61
(dp935
g88
g89
ssg70
g925
sg63
(lp936
S':'
asbag56
(g77
g58
NtRp937
(dp938
g61
(dp939
sg70
g925
sg63
(lp940
g56
(g57
g58
NtRp941
(dp942
g61
(dp943
g69
I3
ssg70
g937
sg63
(lp944
S''
asbasbasbag56
(g72
g58
NtRp945
(dp946
g61
(dp947
sg70
g821
sg63
(lp948
g56
(g77
g58
NtRp949
(dp950
g61
(dp951
g81
g82
ssg70
g945
sg63
(lp952
g396
asbag56
(g77
g58
NtRp953
(dp954
g61
(dp955
g88
g89
ssg70
g945
sg63
(lp956
S':'
asbag56
(g77
g58
NtRp957
(dp958
g61
(dp959
sg70
g945
sg63
(lp960
g56
(g57
g58
NtRp961
(dp962
g61
(dp963
g69
I3
ssg70
g957
sg63
(lp964
S''
asbasbasbag56
(g72
g58
NtRp965
(dp966
g61
(dp967
sg70
g821
sg63
(lp968
g56
(g77
g58
NtRp969
(dp970
g61
(dp971
g81
g82
ssg70
g965
sg63
(lp972
g417
asbag56
(g77
g58
NtRp973
(dp974
g61
(dp975
g88
g89
ssg70
g965
sg63
(lp976
S':'
asbag56
(g77
g58
NtRp977
(dp978
g61
(dp979
sg70
g965
sg63
(lp980
g56
(g57
g58
NtRp981
(dp982
g61
(dp983
g69
I3
ssg70
g977
sg63
(lp984
S''
asbasbasbasbasbasbasbasbasbasbasbag56
(g72
g58
NtRp985
(dp986
g61
(dp987
sg70
g66
sg63
(lp988
g56
(g77
g58
NtRp989
(dp990
g61
(dp991
g81
g82
ssg70
g985
sg63
(lp992
S'env'
p993
asbag56
(g77
g58
NtRp994
(dp995
g61
(dp996
g88
g89
ssg70
g985
sg63
(lp997
S':'
asbag56
(g77
g58
NtRp998
(dp999
g61
(dp1000
sg70
g985
sg63
(lp1001
g56
(g57
g58
NtRp1002
(dp1003
g61
(dp1004
g69
I5
ssg70
g998
sg63
(lp1005
g56
(g65
g58
NtRp1006
(dp1007
g61
(dp1008
g69
I4
ssg70
Nsg63
(lp1009
g56
(g72
g58
NtRp1010
(dp1011
g61
(dp1012
sg70
g1006
sg63
(lp1013
g56
(g77
g58
NtRp1014
(dp1015
g61
(dp1016
g81
g82
ssg70
g1010
sg63
(lp1017
S'app_folders'
p1018
asbag56
(g77
g58
NtRp1019
(dp1020
g61
(dp1021
g88
g89
ssg70
g1010
sg63
(lp1022
S':'
asbag56
(g77
g58
NtRp1023
(dp1024
g61
(dp1025
sg70
g1010
sg63
(lp1026
g56
(g57
g58
NtRp1027
(dp1028
g61
(dp1029
g69
I4
ssg70
g1023
sg63
(lp1030
S"set(['/opt/cassandra-dev/PROJECTS/Cassandra-Monitor/src/CassandraMonitor/myinterface/applications/cass1/'])"
p1031
asbasbasbag56
(g72
g58
NtRp1032
(dp1033
g61
(dp1034
sg70
g1006
sg63
(lp1035
g56
(g77
g58
NtRp1036
(dp1037
g61
(dp1038
g81
g82
ssg70
g1032
sg63
(lp1039
S'applications_parent'
p1040
asbag56
(g77
g58
NtRp1041
(dp1042
g61
(dp1043
g88
g89
ssg70
g1032
sg63
(lp1044
S':'
asbag56
(g77
g58
NtRp1045
(dp1046
g61
(dp1047
sg70
g1032
sg63
(lp1048
g56
(g57
g58
NtRp1049
(dp1050
g61
(dp1051
g69
I4
ssg70
g1045
sg63
(lp1052
S'/opt/cassandra-dev/PROJECTS/Cassandra-Monitor/src/CassandraMonitor/myinterface'
p1053
asbasbasbag56
(g72
g58
NtRp1054
(dp1055
g61
(dp1056
sg70
g1006
sg63
(lp1057
g56
(g77
g58
NtRp1058
(dp1059
g61
(dp1060
g81
g82
ssg70
g1054
sg63
(lp1061
S'cmd_args'
p1062
asbag56
(g77
g58
NtRp1063
(dp1064
g61
(dp1065
g88
g89
ssg70
g1054
sg63
(lp1066
S':'
asbag56
(g77
g58
NtRp1067
(dp1068
g61
(dp1069
sg70
g1054
sg63
(lp1070
g56
(g57
g58
NtRp1071
(dp1072
g61
(dp1073
g69
I4
ssg70
g1067
sg63
(lp1074
g56
(g65
g58
NtRp1075
(dp1076
g61
(dp1077
g69
I3
ssg70
Nsg63
(lp1078
sbasbasbasbag56
(g72
g58
NtRp1079
(dp1080
g61
(dp1081
sg70
g1006
sg63
(lp1082
g56
(g77
g58
NtRp1083
(dp1084
g61
(dp1085
g81
g82
ssg70
g1079
sg63
(lp1086
S'cmd_options'
p1087
asbag56
(g77
g58
NtRp1088
(dp1089
g61
(dp1090
g88
g89
ssg70
g1079
sg63
(lp1091
S':'
asbag56
(g77
g58
NtRp1092
(dp1093
g61
(dp1094
sg70
g1079
sg63
(lp1095
g56
(g57
g58
NtRp1096
(dp1097
g61
(dp1098
g69
I4
ssg70
g1092
sg63
(lp1099
S"<Values at 0x2499098: {'verbose': False, 'ip': '127.0.0.1', 'shutdown_timeout': 5, 'taskbar': False, 'nocron': False, 'pid_filename': 'httpserver.pid', 'maxthreads': None, 'softcron': False, 'server_name': 'CASR1-VM10-DEV', 'bpython': False, 'nogui': False, 'port': 8000, 'extcron': False, 'debuglevel': 30, 'test': None, 'folder': '/opt/cassandra-dev/PROJECTS/Cassandra-Monitor/src/CassandraMonitor/myinterface', 'config': '', 'import_models': False, 'winservice': '', 'shell': None, 'run': '', 'log_filename': 'httpserver.log', 'args': [''], 'ssl_ca_certificate': None, 'scheduler': None, 'profiler_filename': None, 'ssl_private_key': '', 'password': 'testing', 'request_queue_size': 5, 'ssl_certificate': '', 'cronjob': False, 'plain': False, 'quiet': False, 'interfaces': None, 'minthreads': None, 'timeout': 10, 'numthreads': None, 'nobanner': False}>"
p1100
asbasbasbag56
(g72
g58
NtRp1101
(dp1102
g61
(dp1103
sg70
g1006
sg63
(lp1104
g56
(g77
g58
NtRp1105
(dp1106
g61
(dp1107
g81
g82
ssg70
g1101
sg63
(lp1108
S'db_sessions'
p1109
asbag56
(g77
g58
NtRp1110
(dp1111
g61
(dp1112
g88
g89
ssg70
g1101
sg63
(lp1113
S':'
asbag56
(g77
g58
NtRp1114
(dp1115
g61
(dp1116
sg70
g1101
sg63
(lp1117
g56
(g57
g58
NtRp1118
(dp1119
g61
(dp1120
g69
I4
ssg70
g1114
sg63
(lp1121
S'set([])'
p1122
asbasbasbag56
(g72
g58
NtRp1123
(dp1124
g61
(dp1125
sg70
g1006
sg63
(lp1126
g56
(g77
g58
NtRp1127
(dp1128
g61
(dp1129
g81
g82
ssg70
g1123
sg63
(lp1130
S'debugging'
p1131
asbag56
(g77
g58
NtRp1132
(dp1133
g61
(dp1134
g88
g89
ssg70
g1123
sg63
(lp1135
S':'
asbag56
(g77
g58
NtRp1136
(dp1137
g61
(dp1138
sg70
g1123
sg63
(lp1139
g56
(g57
g58
NtRp1140
(dp1141
g61
(dp1142
g69
I4
ssg70
g1136
sg63
(lp1143
g99
asbasbasbag56
(g72
g58
NtRp1144
(dp1145
g61
(dp1146
sg70
g1006
sg63
(lp1147
g56
(g77
g58
NtRp1148
(dp1149
g61
(dp1150
g81
g82
ssg70
g1144
sg63
(lp1151
S'gluon_parent'
p1152
asbag56
(g77
g58
NtRp1153
(dp1154
g61
(dp1155
g88
g89
ssg70
g1144
sg63
(lp1156
S':'
asbag56
(g77
g58
NtRp1157
(dp1158
g61
(dp1159
sg70
g1144
sg63
(lp1160
g56
(g57
g58
NtRp1161
(dp1162
g61
(dp1163
g69
I4
ssg70
g1157
sg63
(lp1164
S'/opt/cassandra-dev/PROJECTS/Cassandra-Monitor/src/CassandraMonitor/myinterface'
p1165
asbasbasbag56
(g72
g58
NtRp1166
(dp1167
g61
(dp1168
sg70
g1006
sg63
(lp1169
g56
(g77
g58
NtRp1170
(dp1171
g61
(dp1172
g81
g82
ssg70
g1166
sg63
(lp1173
S'http_accept'
p1174
asbag56
(g77
g58
NtRp1175
(dp1176
g61
(dp1177
g88
g89
ssg70
g1166
sg63
(lp1178
S':'
asbag56
(g77
g58
NtRp1179
(dp1180
g61
(dp1181
sg70
g1166
sg63
(lp1182
g56
(g57
g58
NtRp1183
(dp1184
g61
(dp1185
g69
I4
ssg70
g1179
sg63
(lp1186
S'text/html,application/xhtml+xml,application/xml;q=0.9,*/*;q=0.8'
p1187
asbasbasbag56
(g72
g58
NtRp1188
(dp1189
g61
(dp1190
sg70
g1006
sg63
(lp1191
g56
(g77
g58
NtRp1192
(dp1193
g61
(dp1194
g81
g82
ssg70
g1188
sg63
(lp1195
S'http_accept_charset'
p1196
asbag56
(g77
g58
NtRp1197
(dp1198
g61
(dp1199
g88
g89
ssg70
g1188
sg63
(lp1200
S':'
asbag56
(g77
g58
NtRp1201
(dp1202
g61
(dp1203
sg70
g1188
sg63
(lp1204
g56
(g57
g58
NtRp1205
(dp1206
g61
(dp1207
g69
I4
ssg70
g1201
sg63
(lp1208
S'ISO-8859-1,utf-8;q=0.7,*;q=0.3'
p1209
asbasbasbag56
(g72
g58
NtRp1210
(dp1211
g61
(dp1212
sg70
g1006
sg63
(lp1213
g56
(g77
g58
NtRp1214
(dp1215
g61
(dp1216
g81
g82
ssg70
g1210
sg63
(lp1217
S'http_accept_encoding'
p1218
asbag56
(g77
g58
NtRp1219
(dp1220
g61
(dp1221
g88
g89
ssg70
g1210
sg63
(lp1222
S':'
asbag56
(g77
g58
NtRp1223
(dp1224
g61
(dp1225
sg70
g1210
sg63
(lp1226
g56
(g57
g58
NtRp1227
(dp1228
g61
(dp1229
g69
I4
ssg70
g1223
sg63
(lp1230
S'gzip,deflate,sdch'
p1231
asbasbasbag56
(g72
g58
NtRp1232
(dp1233
g61
(dp1234
sg70
g1006
sg63
(lp1235
g56
(g77
g58
NtRp1236
(dp1237
g61
(dp1238
g81
g82
ssg70
g1232
sg63
(lp1239
S'http_accept_language'
p1240
asbag56
(g77
g58
NtRp1241
(dp1242
g61
(dp1243
g88
g89
ssg70
g1232
sg63
(lp1244
S':'
asbag56
(g77
g58
NtRp1245
(dp1246
g61
(dp1247
sg70
g1232
sg63
(lp1248
g56
(g57
g58
NtRp1249
(dp1250
g61
(dp1251
g69
I4
ssg70
g1245
sg63
(lp1252
S'en-GB,en-US;q=0.8,en;q=0.6'
p1253
asbasbasbag56
(g72
g58
NtRp1254
(dp1255
g61
(dp1256
sg70
g1006
sg63
(lp1257
g56
(g77
g58
NtRp1258
(dp1259
g61
(dp1260
g81
g82
ssg70
g1254
sg63
(lp1261
S'http_connection'
p1262
asbag56
(g77
g58
NtRp1263
(dp1264
g61
(dp1265
g88
g89
ssg70
g1254
sg63
(lp1266
S':'
asbag56
(g77
g58
NtRp1267
(dp1268
g61
(dp1269
sg70
g1254
sg63
(lp1270
g56
(g57
g58
NtRp1271
(dp1272
g61
(dp1273
g69
I4
ssg70
g1267
sg63
(lp1274
S'keep-alive'
p1275
asbasbasbag56
(g72
g58
NtRp1276
(dp1277
g61
(dp1278
sg70
g1006
sg63
(lp1279
g56
(g77
g58
NtRp1280
(dp1281
g61
(dp1282
g81
g82
ssg70
g1276
sg63
(lp1283
S'http_cookie'
p1284
asbag56
(g77
g58
NtRp1285
(dp1286
g61
(dp1287
g88
g89
ssg70
g1276
sg63
(lp1288
S':'
asbag56
(g77
g58
NtRp1289
(dp1290
g61
(dp1291
sg70
g1276
sg63
(lp1292
g56
(g57
g58
NtRp1293
(dp1294
g61
(dp1295
g69
I4
ssg70
g1289
sg63
(lp1296
S'session_id_welcome=127.0.0.1-bebaa1e5-0f5d-412d-9856-8e508073a157; session_id_sysadmin=127.0.0.1-c4ae8577-206c-493d-8dc7-5104d9f0d1d3; session_id_admin=127.0.0.1-0cb20b54-052d-41b8-b854-737dc5fd2df5; session_id_cass1=127.0.0.1-38d5f8a1-fa67-4fe4-a598-737dfaf25444'
p1297
asbasbasbag56
(g72
g58
NtRp1298
(dp1299
g61
(dp1300
sg70
g1006
sg63
(lp1301
g56
(g77
g58
NtRp1302
(dp1303
g61
(dp1304
g81
g82
ssg70
g1298
sg63
(lp1305
S'http_host'
p1306
asbag56
(g77
g58
NtRp1307
(dp1308
g61
(dp1309
g88
g89
ssg70
g1298
sg63
(lp1310
S':'
asbag56
(g77
g58
NtRp1311
(dp1312
g61
(dp1313
sg70
g1298
sg63
(lp1314
g56
(g57
g58
NtRp1315
(dp1316
g61
(dp1317
g69
I4
ssg70
g1311
sg63
(lp1318
S'127.0.0.1:8000'
p1319
asbasbasbag56
(g72
g58
NtRp1320
(dp1321
g61
(dp1322
sg70
g1006
sg63
(lp1323
g56
(g77
g58
NtRp1324
(dp1325
g61
(dp1326
g81
g82
ssg70
g1320
sg63
(lp1327
S'http_referer'
p1328
asbag56
(g77
g58
NtRp1329
(dp1330
g61
(dp1331
g88
g89
ssg70
g1320
sg63
(lp1332
S':'
asbag56
(g77
g58
NtRp1333
(dp1334
g61
(dp1335
sg70
g1320
sg63
(lp1336
g56
(g57
g58
NtRp1337
(dp1338
g61
(dp1339
g69
I4
ssg70
g1333
sg63
(lp1340
S'http://127.0.0.1:8000/cass1/default/index'
p1341
asbasbasbag56
(g72
g58
NtRp1342
(dp1343
g61
(dp1344
sg70
g1006
sg63
(lp1345
g56
(g77
g58
NtRp1346
(dp1347
g61
(dp1348
g81
g82
ssg70
g1342
sg63
(lp1349
S'http_user_agent'
p1350
asbag56
(g77
g58
NtRp1351
(dp1352
g61
(dp1353
g88
g89
ssg70
g1342
sg63
(lp1354
S':'
asbag56
(g77
g58
NtRp1355
(dp1356
g61
(dp1357
sg70
g1342
sg63
(lp1358
g56
(g57
g58
NtRp1359
(dp1360
g61
(dp1361
g69
I4
ssg70
g1355
sg63
(lp1362
S'Mozilla/5.0 (X11; Linux x86_64) AppleWebKit/535.1 (KHTML, like Gecko) Chrome/14.0.835.186 Safari/535.1'
p1363
asbasbasbag56
(g72
g58
NtRp1364
(dp1365
g61
(dp1366
sg70
g1006
sg63
(lp1367
g56
(g77
g58
NtRp1368
(dp1369
g61
(dp1370
g81
g82
ssg70
g1364
sg63
(lp1371
S'is_jython'
p1372
asbag56
(g77
g58
NtRp1373
(dp1374
g61
(dp1375
g88
g89
ssg70
g1364
sg63
(lp1376
S':'
asbag56
(g77
g58
NtRp1377
(dp1378
g61
(dp1379
sg70
g1364
sg63
(lp1380
g56
(g57
g58
NtRp1381
(dp1382
g61
(dp1383
g69
I4
ssg70
g1377
sg63
(lp1384
g99
asbasbasbag56
(g72
g58
NtRp1385
(dp1386
g61
(dp1387
sg70
g1006
sg63
(lp1388
g56
(g77
g58
NtRp1389
(dp1390
g61
(dp1391
g81
g82
ssg70
g1385
sg63
(lp1392
S'path_info'
p1393
asbag56
(g77
g58
NtRp1394
(dp1395
g61
(dp1396
g88
g89
ssg70
g1385
sg63
(lp1397
S':'
asbag56
(g77
g58
NtRp1398
(dp1399
g61
(dp1400
sg70
g1385
sg63
(lp1401
g56
(g57
g58
NtRp1402
(dp1403
g61
(dp1404
g69
I4
ssg70
g1398
sg63
(lp1405
S'/cass1/cass_mgr/index'
p1406
asbasbasbag56
(g72
g58
NtRp1407
(dp1408
g61
(dp1409
sg70
g1006
sg63
(lp1410
g56
(g77
g58
NtRp1411
(dp1412
g61
(dp1413
g81
g82
ssg70
g1407
sg63
(lp1414
S'query_string'
p1415
asbag56
(g77
g58
NtRp1416
(dp1417
g61
(dp1418
g88
g89
ssg70
g1407
sg63
(lp1419
S':'
asbag56
(g77
g58
NtRp1420
(dp1421
g61
(dp1422
sg70
g1407
sg63
(lp1423
g56
(g57
g58
NtRp1424
(dp1425
g61
(dp1426
g69
I4
ssg70
g1420
sg63
(lp1427
S''
asbasbasbag56
(g72
g58
NtRp1428
(dp1429
g61
(dp1430
sg70
g1006
sg63
(lp1431
g56
(g77
g58
NtRp1432
(dp1433
g61
(dp1434
g81
g82
ssg70
g1428
sg63
(lp1435
S'remote_addr'
p1436
asbag56
(g77
g58
NtRp1437
(dp1438
g61
(dp1439
g88
g89
ssg70
g1428
sg63
(lp1440
S':'
asbag56
(g77
g58
NtRp1441
(dp1442
g61
(dp1443
sg70
g1428
sg63
(lp1444
g56
(g57
g58
NtRp1445
(dp1446
g61
(dp1447
g69
I4
ssg70
g1441
sg63
(lp1448
g189
asbasbasbag56
(g72
g58
NtRp1449
(dp1450
g61
(dp1451
sg70
g1006
sg63
(lp1452
g56
(g77
g58
NtRp1453
(dp1454
g61
(dp1455
g81
g82
ssg70
g1449
sg63
(lp1456
S'remote_port'
p1457
asbag56
(g77
g58
NtRp1458
(dp1459
g61
(dp1460
g88
g89
ssg70
g1449
sg63
(lp1461
S':'
asbag56
(g77
g58
NtRp1462
(dp1463
g61
(dp1464
sg70
g1449
sg63
(lp1465
g56
(g57
g58
NtRp1466
(dp1467
g61
(dp1468
g69
I4
ssg70
g1462
sg63
(lp1469
S'39002'
p1470
asbasbasbag56
(g72
g58
NtRp1471
(dp1472
g61
(dp1473
sg70
g1006
sg63
(lp1474
g56
(g77
g58
NtRp1475
(dp1476
g61
(dp1477
g81
g82
ssg70
g1471
sg63
(lp1478
S'request_method'
p1479
asbag56
(g77
g58
NtRp1480
(dp1481
g61
(dp1482
g88
g89
ssg70
g1471
sg63
(lp1483
S':'
asbag56
(g77
g58
NtRp1484
(dp1485
g61
(dp1486
sg70
g1471
sg63
(lp1487
g56
(g57
g58
NtRp1488
(dp1489
g61
(dp1490
g69
I4
ssg70
g1484
sg63
(lp1491
S'GET'
p1492
asbasbasbag56
(g72
g58
NtRp1493
(dp1494
g61
(dp1495
sg70
g1006
sg63
(lp1496
g56
(g77
g58
NtRp1497
(dp1498
g61
(dp1499
g81
g82
ssg70
g1493
sg63
(lp1500
S'script_name'
p1501
asbag56
(g77
g58
NtRp1502
(dp1503
g61
(dp1504
g88
g89
ssg70
g1493
sg63
(lp1505
S':'
asbag56
(g77
g58
NtRp1506
(dp1507
g61
(dp1508
sg70
g1493
sg63
(lp1509
g56
(g57
g58
NtRp1510
(dp1511
g61
(dp1512
g69
I4
ssg70
g1506
sg63
(lp1513
S''
asbasbasbag56
(g72
g58
NtRp1514
(dp1515
g61
(dp1516
sg70
g1006
sg63
(lp1517
g56
(g77
g58
NtRp1518
(dp1519
g61
(dp1520
g81
g82
ssg70
g1514
sg63
(lp1521
S'server_name'
p1522
asbag56
(g77
g58
NtRp1523
(dp1524
g61
(dp1525
g88
g89
ssg70
g1514
sg63
(lp1526
S':'
asbag56
(g77
g58
NtRp1527
(dp1528
g61
(dp1529
sg70
g1514
sg63
(lp1530
g56
(g57
g58
NtRp1531
(dp1532
g61
(dp1533
g69
I4
ssg70
g1527
sg63
(lp1534
S'CASR1-VM10-DEV'
p1535
asbasbasbag56
(g72
g58
NtRp1536
(dp1537
g61
(dp1538
sg70
g1006
sg63
(lp1539
g56
(g77
g58
NtRp1540
(dp1541
g61
(dp1542
g81
g82
ssg70
g1536
sg63
(lp1543
S'server_port'
p1544
asbag56
(g77
g58
NtRp1545
(dp1546
g61
(dp1547
g88
g89
ssg70
g1536
sg63
(lp1548
S':'
asbag56
(g77
g58
NtRp1549
(dp1550
g61
(dp1551
sg70
g1536
sg63
(lp1552
g56
(g57
g58
NtRp1553
(dp1554
g61
(dp1555
g69
I4
ssg70
g1549
sg63
(lp1556
S'8000'
p1557
asbasbasbag56
(g72
g58
NtRp1558
(dp1559
g61
(dp1560
sg70
g1006
sg63
(lp1561
g56
(g77
g58
NtRp1562
(dp1563
g61
(dp1564
g81
g82
ssg70
g1558
sg63
(lp1565
S'server_protocol'
p1566
asbag56
(g77
g58
NtRp1567
(dp1568
g61
(dp1569
g88
g89
ssg70
g1558
sg63
(lp1570
S':'
asbag56
(g77
g58
NtRp1571
(dp1572
g61
(dp1573
sg70
g1558
sg63
(lp1574
g56
(g57
g58
NtRp1575
(dp1576
g61
(dp1577
g69
I4
ssg70
g1571
sg63
(lp1578
S'HTTP/1.1'
p1579
asbasbasbag56
(g72
g58
NtRp1580
(dp1581
g61
(dp1582
sg70
g1006
sg63
(lp1583
g56
(g77
g58
NtRp1584
(dp1585
g61
(dp1586
g81
g82
ssg70
g1580
sg63
(lp1587
S'server_software'
p1588
asbag56
(g77
g58
NtRp1589
(dp1590
g61
(dp1591
g88
g89
ssg70
g1580
sg63
(lp1592
S':'
asbag56
(g77
g58
NtRp1593
(dp1594
g61
(dp1595
sg70
g1580
sg63
(lp1596
g56
(g57
g58
NtRp1597
(dp1598
g61
(dp1599
g69
I4
ssg70
g1593
sg63
(lp1600
S'Rocket 1.2.4'
p1601
asbasbasbag56
(g72
g58
NtRp1602
(dp1603
g61
(dp1604
sg70
g1006
sg63
(lp1605
g56
(g77
g58
NtRp1606
(dp1607
g61
(dp1608
g81
g82
ssg70
g1602
sg63
(lp1609
S'web2py_crontype'
p1610
asbag56
(g77
g58
NtRp1611
(dp1612
g61
(dp1613
g88
g89
ssg70
g1602
sg63
(lp1614
S':'
asbag56
(g77
g58
NtRp1615
(dp1616
g61
(dp1617
sg70
g1602
sg63
(lp1618
g56
(g57
g58
NtRp1619
(dp1620
g61
(dp1621
g69
I4
ssg70
g1615
sg63
(lp1622
S'hard'
p1623
asbasbasbag56
(g72
g58
NtRp1624
(dp1625
g61
(dp1626
sg70
g1006
sg63
(lp1627
g56
(g77
g58
NtRp1628
(dp1629
g61
(dp1630
g81
g82
ssg70
g1624
sg63
(lp1631
S'web2py_path'
p1632
asbag56
(g77
g58
NtRp1633
(dp1634
g61
(dp1635
g88
g89
ssg70
g1624
sg63
(lp1636
S':'
asbag56
(g77
g58
NtRp1637
(dp1638
g61
(dp1639
sg70
g1624
sg63
(lp1640
g56
(g57
g58
NtRp1641
(dp1642
g61
(dp1643
g69
I4
ssg70
g1637
sg63
(lp1644
g1053
asbasbasbag56
(g72
g58
NtRp1645
(dp1646
g61
(dp1647
sg70
g1006
sg63
(lp1648
g56
(g77
g58
NtRp1649
(dp1650
g61
(dp1651
g81
g82
ssg70
g1645
sg63
(lp1652
S'web2py_version'
p1653
asbag56
(g77
g58
NtRp1654
(dp1655
g61
(dp1656
g88
g89
ssg70
g1645
sg63
(lp1657
S':'
asbag56
(g77
g58
NtRp1658
(dp1659
g61
(dp1660
sg70
g1645
sg63
(lp1661
g56
(g57
g58
NtRp1662
(dp1663
g61
(dp1664
g69
I4
ssg70
g1658
sg63
(lp1665
g56
(g65
g58
NtRp1666
(dp1667
g61
(dp1668
g69
I3
ssg70
Nsg63
(lp1669
g56
(g72
g58
NtRp1670
(dp1671
g61
(dp1672
sg70
g1666
sg63
(lp1673
g56
(g77
g58
NtRp1674
(dp1675
g61
(dp1676
sg70
g1670
sg63
(lp1677
g56
(g57
g58
NtRp1678
(dp1679
g61
(dp1680
g69
I3
ssg70
g1674
sg63
(lp1681
S'1'
asbasbasbag56
(g72
g58
NtRp1682
(dp1683
g61
(dp1684
sg70
g1666
sg63
(lp1685
g56
(g77
g58
NtRp1686
(dp1687
g61
(dp1688
sg70
g1682
sg63
(lp1689
g56
(g57
g58
NtRp1690
(dp1691
g61
(dp1692
g69
I3
ssg70
g1686
sg63
(lp1693
S'99'
p1694
asbasbasbag56
(g72
g58
NtRp1695
(dp1696
g61
(dp1697
sg70
g1666
sg63
(lp1698
g56
(g77
g58
NtRp1699
(dp1700
g61
(dp1701
sg70
g1695
sg63
(lp1702
g56
(g57
g58
NtRp1703
(dp1704
g61
(dp1705
g69
I3
ssg70
g1699
sg63
(lp1706
S'2'
asbasbasbag56
(g72
g58
NtRp1707
(dp1708
g61
(dp1709
sg70
g1666
sg63
(lp1710
g56
(g77
g58
NtRp1711
(dp1712
g61
(dp1713
sg70
g1707
sg63
(lp1714
g56
(g57
g58
NtRp1715
(dp1716
g61
(dp1717
g69
I3
ssg70
g1711
sg63
(lp1718
S'datetime.datetime(2011, 9, 26, 6, 55, 33)'
p1719
asbasbasbag56
(g72
g58
NtRp1720
(dp1721
g61
(dp1722
sg70
g1666
sg63
(lp1723
g56
(g77
g58
NtRp1724
(dp1725
g61
(dp1726
sg70
g1720
sg63
(lp1727
g56
(g57
g58
NtRp1728
(dp1729
g61
(dp1730
g69
I3
ssg70
g1724
sg63
(lp1731
S'stable'
p1732
asbasbasbasbasbasbasbag56
(g72
g58
NtRp1733
(dp1734
g61
(dp1735
sg70
g1006
sg63
(lp1736
g56
(g77
g58
NtRp1737
(dp1738
g61
(dp1739
g81
g82
ssg70
g1733
sg63
(lp1740
S'wsgi_errors'
p1741
asbag56
(g77
g58
NtRp1742
(dp1743
g61
(dp1744
g88
g89
ssg70
g1733
sg63
(lp1745
S':'
asbag56
(g77
g58
NtRp1746
(dp1747
g61
(dp1748
sg70
g1733
sg63
(lp1749
g56
(g57
g58
NtRp1750
(dp1751
g61
(dp1752
g69
I4
ssg70
g1746
sg63
(lp1753
S"<open file '<stderr>', mode 'w' at 0x7f20b26a4270>"
p1754
asbasbasbag56
(g72
g58
NtRp1755
(dp1756
g61
(dp1757
sg70
g1006
sg63
(lp1758
g56
(g77
g58
NtRp1759
(dp1760
g61
(dp1761
g81
g82
ssg70
g1755
sg63
(lp1762
S'wsgi_file_wrapper'
p1763
asbag56
(g77
g58
NtRp1764
(dp1765
g61
(dp1766
g88
g89
ssg70
g1755
sg63
(lp1767
S':'
asbag56
(g77
g58
NtRp1768
(dp1769
g61
(dp1770
sg70
g1755
sg63
(lp1771
g56
(g57
g58
NtRp1772
(dp1773
g61
(dp1774
g69
I4
ssg70
g1768
sg63
(lp1775
S'<class wsgiref.util.FileWrapper at 0x244d3f8>'
p1776
asbasbasbag56
(g72
g58
NtRp1777
(dp1778
g61
(dp1779
sg70
g1006
sg63
(lp1780
g56
(g77
g58
NtRp1781
(dp1782
g61
(dp1783
g81
g82
ssg70
g1777
sg63
(lp1784
S'wsgi_input'
p1785
asbag56
(g77
g58
NtRp1786
(dp1787
g61
(dp1788
g88
g89
ssg70
g1777
sg63
(lp1789
S':'
asbag56
(g77
g58
NtRp1790
(dp1791
g61
(dp1792
sg70
g1777
sg63
(lp1793
g56
(g57
g58
NtRp1794
(dp1795
g61
(dp1796
g69
I4
ssg70
g1790
sg63
(lp1797
S'<socket._fileobject object at 0x2a35bd0>'
p1798
asbasbasbag56
(g72
g58
NtRp1799
(dp1800
g61
(dp1801
sg70
g1006
sg63
(lp1802
g56
(g77
g58
NtRp1803
(dp1804
g61
(dp1805
g81
g82
ssg70
g1799
sg63
(lp1806
S'wsgi_multiprocess'
p1807
asbag56
(g77
g58
NtRp1808
(dp1809
g61
(dp1810
g88
g89
ssg70
g1799
sg63
(lp1811
S':'
asbag56
(g77
g58
NtRp1812
(dp1813
g61
(dp1814
sg70
g1799
sg63
(lp1815
g56
(g57
g58
NtRp1816
(dp1817
g61
(dp1818
g69
I4
ssg70
g1812
sg63
(lp1819
g99
asbasbasbag56
(g72
g58
NtRp1820
(dp1821
g61
(dp1822
sg70
g1006
sg63
(lp1823
g56
(g77
g58
NtRp1824
(dp1825
g61
(dp1826
g81
g82
ssg70
g1820
sg63
(lp1827
S'wsgi_multithread'
p1828
asbag56
(g77
g58
NtRp1829
(dp1830
g61
(dp1831
g88
g89
ssg70
g1820
sg63
(lp1832
S':'
asbag56
(g77
g58
NtRp1833
(dp1834
g61
(dp1835
sg70
g1820
sg63
(lp1836
g56
(g57
g58
NtRp1837
(dp1838
g61
(dp1839
g69
I4
ssg70
g1833
sg63
(lp1840
S'True'
p1841
asbasbasbag56
(g72
g58
NtRp1842
(dp1843
g61
(dp1844
sg70
g1006
sg63
(lp1845
g56
(g77
g58
NtRp1846
(dp1847
g61
(dp1848
g81
g82
ssg70
g1842
sg63
(lp1849
S'wsgi_run_once'
p1850
asbag56
(g77
g58
NtRp1851
(dp1852
g61
(dp1853
g88
g89
ssg70
g1842
sg63
(lp1854
S':'
asbag56
(g77
g58
NtRp1855
(dp1856
g61
(dp1857
sg70
g1842
sg63
(lp1858
g56
(g57
g58
NtRp1859
(dp1860
g61
(dp1861
g69
I4
ssg70
g1855
sg63
(lp1862
g99
asbasbasbag56
(g72
g58
NtRp1863
(dp1864
g61
(dp1865
sg70
g1006
sg63
(lp1866
g56
(g77
g58
NtRp1867
(dp1868
g61
(dp1869
g81
g82
ssg70
g1863
sg63
(lp1870
S'wsgi_url_scheme'
p1871
asbag56
(g77
g58
NtRp1872
(dp1873
g61
(dp1874
g88
g89
ssg70
g1863
sg63
(lp1875
S':'
asbag56
(g77
g58
NtRp1876
(dp1877
g61
(dp1878
sg70
g1863
sg63
(lp1879
g56
(g57
g58
NtRp1880
(dp1881
g61
(dp1882
g69
I4
ssg70
g1876
sg63
(lp1883
S'http'
p1884
asbasbasbag56
(g72
g58
NtRp1885
(dp1886
g61
(dp1887
sg70
g1006
sg63
(lp1888
g56
(g77
g58
NtRp1889
(dp1890
g61
(dp1891
g81
g82
ssg70
g1885
sg63
(lp1892
S'wsgi_version'
p1893
asbag56
(g77
g58
NtRp1894
(dp1895
g61
(dp1896
g88
g89
ssg70
g1885
sg63
(lp1897
S':'
asbag56
(g77
g58
NtRp1898
(dp1899
g61
(dp1900
sg70
g1885
sg63
(lp1901
g56
(g57
g58
NtRp1902
(dp1903
g61
(dp1904
g69
I4
ssg70
g1898
sg63
(lp1905
g56
(g65
g58
NtRp1906
(dp1907
g61
(dp1908
g69
I3
ssg70
Nsg63
(lp1909
g56
(g72
g58
NtRp1910
(dp1911
g61
(dp1912
sg70
g1906
sg63
(lp1913
g56
(g77
g58
NtRp1914
(dp1915
g61
(dp1916
sg70
g1910
sg63
(lp1917
g56
(g57
g58
NtRp1918
(dp1919
g61
(dp1920
g69
I3
ssg70
g1914
sg63
(lp1921
S'1'
asbasbasbag56
(g72
g58
NtRp1922
(dp1923
g61
(dp1924
sg70
g1906
sg63
(lp1925
g56
(g77
g58
NtRp1926
(dp1927
g61
(dp1928
sg70
g1922
sg63
(lp1929
g56
(g57
g58
NtRp1930
(dp1931
g61
(dp1932
g69
I3
ssg70
g1926
sg63
(lp1933
S'0'
asbasbasbasbasbasbasbasbasbasbasbag56
(g72
g58
NtRp1934
(dp1935
g61
(dp1936
sg70
g66
sg63
(lp1937
g56
(g77
g58
NtRp1938
(dp1939
g61
(dp1940
g81
g82
ssg70
g1934
sg63
(lp1941
S'extension'
p1942
asbag56
(g77
g58
NtRp1943
(dp1944
g61
(dp1945
g88
g89
ssg70
g1934
sg63
(lp1946
S':'
asbag56
(g77
g58
NtRp1947
(dp1948
g61
(dp1949
sg70
g1934
sg63
(lp1950
g56
(g57
g58
NtRp1951
(dp1952
g61
(dp1953
g69
I5
ssg70
g1947
sg63
(lp1954
S'html'
p1955
asbasbasbag56
(g72
g58
NtRp1956
(dp1957
g61
(dp1958
sg70
g66
sg63
(lp1959
g56
(g77
g58
NtRp1960
(dp1961
g61
(dp1962
g81
g82
ssg70
g1956
sg63
(lp1963
S'folder'
p1964
asbag56
(g77
g58
NtRp1965
(dp1966
g61
(dp1967
g88
g89
ssg70
g1956
sg63
(lp1968
S':'
asbag56
(g77
g58
NtRp1969
(dp1970
g61
(dp1971
sg70
g1956
sg63
(lp1972
g56
(g57
g58
NtRp1973
(dp1974
g61
(dp1975
g69
I5
ssg70
g1969
sg63
(lp1976
S'/opt/cassandra-dev/PROJECTS/Cassandra-Monitor/src/CassandraMonitor/myinterface/applications/cass1/'
p1977
asbasbasbag56
(g72
g58
NtRp1978
(dp1979
g61
(dp1980
sg70
g66
sg63
(lp1981
g56
(g77
g58
NtRp1982
(dp1983
g61
(dp1984
g81
g82
ssg70
g1978
sg63
(lp1985
S'function'
p1986
asbag56
(g77
g58
NtRp1987
(dp1988
g61
(dp1989
g88
g89
ssg70
g1978
sg63
(lp1990
S':'
asbag56
(g77
g58
NtRp1991
(dp1992
g61
(dp1993
sg70
g1978
sg63
(lp1994
g56
(g57
g58
NtRp1995
(dp1996
g61
(dp1997
g69
I5
ssg70
g1991
sg63
(lp1998
S'index'
p1999
asbasbasbag56
(g72
g58
NtRp2000
(dp2001
g61
(dp2002
sg70
g66
sg63
(lp2003
g56
(g77
g58
NtRp2004
(dp2005
g61
(dp2006
g81
g82
ssg70
g2000
sg63
(lp2007
S'get_vars'
p2008
asbag56
(g77
g58
NtRp2009
(dp2010
g61
(dp2011
g88
g89
ssg70
g2000
sg63
(lp2012
S':'
asbag56
(g77
g58
NtRp2013
(dp2014
g61
(dp2015
sg70
g2000
sg63
(lp2016
g56
(g57
g58
NtRp2017
(dp2018
g61
(dp2019
g69
I5
ssg70
g2013
sg63
(lp2020
g56
(g65
g58
NtRp2021
(dp2022
g61
(dp2023
g69
I4
ssg70
Nsg63
(lp2024
sbasbasbasbag56
(g72
g58
NtRp2025
(dp2026
g61
(dp2027
sg70
g66
sg63
(lp2028
g56
(g77
g58
NtRp2029
(dp2030
g61
(dp2031
g81
g82
ssg70
g2025
sg63
(lp2032
S'global_settings'
p2033
asbag56
(g77
g58
NtRp2034
(dp2035
g61
(dp2036
g88
g89
ssg70
g2025
sg63
(lp2037
S':'
asbag56
(g77
g58
NtRp2038
(dp2039
g61
(dp2040
sg70
g2025
sg63
(lp2041
g56
(g57
g58
NtRp2042
(dp2043
g61
(dp2044
g69
I5
ssg70
g2038
sg63
(lp2045
g56
(g65
g58
NtRp2046
(dp2047
g61
(dp2048
g69
I4
ssg70
Nsg63
(lp2049
g56
(g72
g58
NtRp2050
(dp2051
g61
(dp2052
sg70
g2046
sg63
(lp2053
g56
(g77
g58
NtRp2054
(dp2055
g61
(dp2056
g81
g82
ssg70
g2050
sg63
(lp2057
g1018
asbag56
(g77
g58
NtRp2058
(dp2059
g61
(dp2060
g88
g89
ssg70
g2050
sg63
(lp2061
S':'
asbag56
(g77
g58
NtRp2062
(dp2063
g61
(dp2064
sg70
g2050
sg63
(lp2065
g56
(g57
g58
NtRp2066
(dp2067
g61
(dp2068
g69
I4
ssg70
g2062
sg63
(lp2069
S"set(['/opt/cassandra-dev/PROJECTS/Cassandra-Monitor/src/CassandraMonitor/myinterface/applications/cass1/'])"
p2070
asbasbasbag56
(g72
g58
NtRp2071
(dp2072
g61
(dp2073
sg70
g2046
sg63
(lp2074
g56
(g77
g58
NtRp2075
(dp2076
g61
(dp2077
g81
g82
ssg70
g2071
sg63
(lp2078
g1040
asbag56
(g77
g58
NtRp2079
(dp2080
g61
(dp2081
g88
g89
ssg70
g2071
sg63
(lp2082
S':'
asbag56
(g77
g58
NtRp2083
(dp2084
g61
(dp2085
sg70
g2071
sg63
(lp2086
g56
(g57
g58
NtRp2087
(dp2088
g61
(dp2089
g69
I4
ssg70
g2083
sg63
(lp2090
g1053
asbasbasbag56
(g72
g58
NtRp2091
(dp2092
g61
(dp2093
sg70
g2046
sg63
(lp2094
g56
(g77
g58
NtRp2095
(dp2096
g61
(dp2097
g81
g82
ssg70
g2091
sg63
(lp2098
g1062
asbag56
(g77
g58
NtRp2099
(dp2100
g61
(dp2101
g88
g89
ssg70
g2091
sg63
(lp2102
S':'
asbag56
(g77
g58
NtRp2103
(dp2104
g61
(dp2105
sg70
g2091
sg63
(lp2106
g56
(g57
g58
NtRp2107
(dp2108
g61
(dp2109
g69
I4
ssg70
g2103
sg63
(lp2110
g56
(g65
g58
NtRp2111
(dp2112
g61
(dp2113
g69
I3
ssg70
Nsg63
(lp2114
sbasbasbasbag56
(g72
g58
NtRp2115
(dp2116
g61
(dp2117
sg70
g2046
sg63
(lp2118
g56
(g77
g58
NtRp2119
(dp2120
g61
(dp2121
g81
g82
ssg70
g2115
sg63
(lp2122
g1087
asbag56
(g77
g58
NtRp2123
(dp2124
g61
(dp2125
g88
g89
ssg70
g2115
sg63
(lp2126
S':'
asbag56
(g77
g58
NtRp2127
(dp2128
g61
(dp2129
sg70
g2115
sg63
(lp2130
g56
(g57
g58
NtRp2131
(dp2132
g61
(dp2133
g69
I4
ssg70
g2127
sg63
(lp2134
S"<Values at 0x2499098: {'verbose': False, 'ip': '127.0.0.1', 'shutdown_timeout': 5, 'taskbar': False, 'nocron': False, 'pid_filename': 'httpserver.pid', 'maxthreads': None, 'softcron': False, 'server_name': 'CASR1-VM10-DEV', 'bpython': False, 'nogui': False, 'port': 8000, 'extcron': False, 'debuglevel': 30, 'test': None, 'folder': '/opt/cassandra-dev/PROJECTS/Cassandra-Monitor/src/CassandraMonitor/myinterface', 'config': '', 'import_models': False, 'winservice': '', 'shell': None, 'run': '', 'log_filename': 'httpserver.log', 'args': [''], 'ssl_ca_certificate': None, 'scheduler': None, 'profiler_filename': None, 'ssl_private_key': '', 'password': 'testing', 'request_queue_size': 5, 'ssl_certificate': '', 'cronjob': False, 'plain': False, 'quiet': False, 'interfaces': None, 'minthreads': None, 'timeout': 10, 'numthreads': None, 'nobanner': False}>"
p2135
asbasbasbag56
(g72
g58
NtRp2136
(dp2137
g61
(dp2138
sg70
g2046
sg63
(lp2139
g56
(g77
g58
NtRp2140
(dp2141
g61
(dp2142
g81
g82
ssg70
g2136
sg63
(lp2143
g1109
asbag56
(g77
g58
NtRp2144
(dp2145
g61
(dp2146
g88
g89
ssg70
g2136
sg63
(lp2147
S':'
asbag56
(g77
g58
NtRp2148
(dp2149
g61
(dp2150
sg70
g2136
sg63
(lp2151
g56
(g57
g58
NtRp2152
(dp2153
g61
(dp2154
g69
I4
ssg70
g2148
sg63
(lp2155
S'set([])'
p2156
asbasbasbag56
(g72
g58
NtRp2157
(dp2158
g61
(dp2159
sg70
g2046
sg63
(lp2160
g56
(g77
g58
NtRp2161
(dp2162
g61
(dp2163
g81
g82
ssg70
g2157
sg63
(lp2164
g1131
asbag56
(g77
g58
NtRp2165
(dp2166
g61
(dp2167
g88
g89
ssg70
g2157
sg63
(lp2168
S':'
asbag56
(g77
g58
NtRp2169
(dp2170
g61
(dp2171
sg70
g2157
sg63
(lp2172
g56
(g57
g58
NtRp2173
(dp2174
g61
(dp2175
g69
I4
ssg70
g2169
sg63
(lp2176
g99
asbasbasbag56
(g72
g58
NtRp2177
(dp2178
g61
(dp2179
sg70
g2046
sg63
(lp2180
g56
(g77
g58
NtRp2181
(dp2182
g61
(dp2183
g81
g82
ssg70
g2177
sg63
(lp2184
g1152
asbag56
(g77
g58
NtRp2185
(dp2186
g61
(dp2187
g88
g89
ssg70
g2177
sg63
(lp2188
S':'
asbag56
(g77
g58
NtRp2189
(dp2190
g61
(dp2191
sg70
g2177
sg63
(lp2192
g56
(g57
g58
NtRp2193
(dp2194
g61
(dp2195
g69
I4
ssg70
g2189
sg63
(lp2196
g1165
asbasbasbag56
(g72
g58
NtRp2197
(dp2198
g61
(dp2199
sg70
g2046
sg63
(lp2200
g56
(g77
g58
NtRp2201
(dp2202
g61
(dp2203
g81
g82
ssg70
g2197
sg63
(lp2204
g1372
asbag56
(g77
g58
NtRp2205
(dp2206
g61
(dp2207
g88
g89
ssg70
g2197
sg63
(lp2208
S':'
asbag56
(g77
g58
NtRp2209
(dp2210
g61
(dp2211
sg70
g2197
sg63
(lp2212
g56
(g57
g58
NtRp2213
(dp2214
g61
(dp2215
g69
I4
ssg70
g2209
sg63
(lp2216
g99
asbasbasbag56
(g72
g58
NtRp2217
(dp2218
g61
(dp2219
sg70
g2046
sg63
(lp2220
g56
(g77
g58
NtRp2221
(dp2222
g61
(dp2223
g81
g82
ssg70
g2217
sg63
(lp2224
g1610
asbag56
(g77
g58
NtRp2225
(dp2226
g61
(dp2227
g88
g89
ssg70
g2217
sg63
(lp2228
S':'
asbag56
(g77
g58
NtRp2229
(dp2230
g61
(dp2231
sg70
g2217
sg63
(lp2232
g56
(g57
g58
NtRp2233
(dp2234
g61
(dp2235
g69
I4
ssg70
g2229
sg63
(lp2236
g1623
asbasbasbag56
(g72
g58
NtRp2237
(dp2238
g61
(dp2239
sg70
g2046
sg63
(lp2240
g56
(g77
g58
NtRp2241
(dp2242
g61
(dp2243
g81
g82
ssg70
g2237
sg63
(lp2244
g1653
asbag56
(g77
g58
NtRp2245
(dp2246
g61
(dp2247
g88
g89
ssg70
g2237
sg63
(lp2248
S':'
asbag56
(g77
g58
NtRp2249
(dp2250
g61
(dp2251
sg70
g2237
sg63
(lp2252
g56
(g57
g58
NtRp2253
(dp2254
g61
(dp2255
g69
I4
ssg70
g2249
sg63
(lp2256
g56
(g65
g58
NtRp2257
(dp2258
g61
(dp2259
g69
I3
ssg70
Nsg63
(lp2260
g56
(g72
g58
NtRp2261
(dp2262
g61
(dp2263
sg70
g2257
sg63
(lp2264
g56
(g77
g58
NtRp2265
(dp2266
g61
(dp2267
sg70
g2261
sg63
(lp2268
g56
(g57
g58
NtRp2269
(dp2270
g61
(dp2271
g69
I3
ssg70
g2265
sg63
(lp2272
S'1'
asbasbasbag56
(g72
g58
NtRp2273
(dp2274
g61
(dp2275
sg70
g2257
sg63
(lp2276
g56
(g77
g58
NtRp2277
(dp2278
g61
(dp2279
sg70
g2273
sg63
(lp2280
g56
(g57
g58
NtRp2281
(dp2282
g61
(dp2283
g69
I3
ssg70
g2277
sg63
(lp2284
S'99'
p2285
asbasbasbag56
(g72
g58
NtRp2286
(dp2287
g61
(dp2288
sg70
g2257
sg63
(lp2289
g56
(g77
g58
NtRp2290
(dp2291
g61
(dp2292
sg70
g2286
sg63
(lp2293
g56
(g57
g58
NtRp2294
(dp2295
g61
(dp2296
g69
I3
ssg70
g2290
sg63
(lp2297
S'2'
asbasbasbag56
(g72
g58
NtRp2298
(dp2299
g61
(dp2300
sg70
g2257
sg63
(lp2301
g56
(g77
g58
NtRp2302
(dp2303
g61
(dp2304
sg70
g2298
sg63
(lp2305
g56
(g57
g58
NtRp2306
(dp2307
g61
(dp2308
g69
I3
ssg70
g2302
sg63
(lp2309
S'datetime.datetime(2011, 9, 26, 6, 55, 33)'
p2310
asbasbasbag56
(g72
g58
NtRp2311
(dp2312
g61
(dp2313
sg70
g2257
sg63
(lp2314
g56
(g77
g58
NtRp2315
(dp2316
g61
(dp2317
sg70
g2311
sg63
(lp2318
g56
(g57
g58
NtRp2319
(dp2320
g61
(dp2321
g69
I3
ssg70
g2315
sg63
(lp2322
g1732
asbasbasbasbasbasbasbasbasbasbasbag56
(g72
g58
NtRp2323
(dp2324
g61
(dp2325
sg70
g66
sg63
(lp2326
g56
(g77
g58
NtRp2327
(dp2328
g61
(dp2329
g81
g82
ssg70
g2323
sg63
(lp2330
S'is_https'
p2331
asbag56
(g77
g58
NtRp2332
(dp2333
g61
(dp2334
g88
g89
ssg70
g2323
sg63
(lp2335
S':'
asbag56
(g77
g58
NtRp2336
(dp2337
g61
(dp2338
sg70
g2323
sg63
(lp2339
g56
(g57
g58
NtRp2340
(dp2341
g61
(dp2342
g69
I5
ssg70
g2336
sg63
(lp2343
g99
asbasbasbag56
(g72
g58
NtRp2344
(dp2345
g61
(dp2346
sg70
g66
sg63
(lp2347
g56
(g77
g58
NtRp2348
(dp2349
g61
(dp2350
g81
g82
ssg70
g2344
sg63
(lp2351
S'is_local'
p2352
asbag56
(g77
g58
NtRp2353
(dp2354
g61
(dp2355
g88
g89
ssg70
g2344
sg63
(lp2356
S':'
asbag56
(g77
g58
NtRp2357
(dp2358
g61
(dp2359
sg70
g2344
sg63
(lp2360
g56
(g57
g58
NtRp2361
(dp2362
g61
(dp2363
g69
I5
ssg70
g2357
sg63
(lp2364
g1841
asbasbasbag56
(g72
g58
NtRp2365
(dp2366
g61
(dp2367
sg70
g66
sg63
(lp2368
g56
(g77
g58
NtRp2369
(dp2370
g61
(dp2371
g81
g82
ssg70
g2365
sg63
(lp2372
S'is_restful'
p2373
asbag56
(g77
g58
NtRp2374
(dp2375
g61
(dp2376
g88
g89
ssg70
g2365
sg63
(lp2377
S':'
asbag56
(g77
g58
NtRp2378
(dp2379
g61
(dp2380
sg70
g2365
sg63
(lp2381
g56
(g57
g58
NtRp2382
(dp2383
g61
(dp2384
g69
I5
ssg70
g2378
sg63
(lp2385
g99
asbasbasbag56
(g72
g58
NtRp2386
(dp2387
g61
(dp2388
sg70
g66
sg63
(lp2389
g56
(g77
g58
NtRp2390
(dp2391
g61
(dp2392
g81
g82
ssg70
g2386
sg63
(lp2393
S'now'
p2394
asbag56
(g77
g58
NtRp2395
(dp2396
g61
(dp2397
g88
g89
ssg70
g2386
sg63
(lp2398
S':'
asbag56
(g77
g58
NtRp2399
(dp2400
g61
(dp2401
sg70
g2386
sg63
(lp2402
g56
(g57
g58
NtRp2403
(dp2404
g61
(dp2405
g69
I5
ssg70
g2399
sg63
(lp2406
S'datetime.datetime(2011, 11, 30, 18, 29, 15, 339252)'
p2407
asbasbasbag56
(g72
g58
NtRp2408
(dp2409
g61
(dp2410
sg70
g66
sg63
(lp2411
g56
(g77
g58
NtRp2412
(dp2413
g61
(dp2414
g81
g82
ssg70
g2408
sg63
(lp2415
S'post_vars'
p2416
asbag56
(g77
g58
NtRp2417
(dp2418
g61
(dp2419
g88
g89
ssg70
g2408
sg63
(lp2420
S':'
asbag56
(g77
g58
NtRp2421
(dp2422
g61
(dp2423
sg70
g2408
sg63
(lp2424
g56
(g57
g58
NtRp2425
(dp2426
g61
(dp2427
g69
I5
ssg70
g2421
sg63
(lp2428
g56
(g65
g58
NtRp2429
(dp2430
g61
(dp2431
g69
I4
ssg70
Nsg63
(lp2432
sbasbasbasbag56
(g72
g58
NtRp2433
(dp2434
g61
(dp2435
sg70
g66
sg63
(lp2436
g56
(g77
g58
NtRp2437
(dp2438
g61
(dp2439
g81
g82
ssg70
g2433
sg63
(lp2440
S'url'
p2441
asbag56
(g77
g58
NtRp2442
(dp2443
g61
(dp2444
g88
g89
ssg70
g2433
sg63
(lp2445
S':'
asbag56
(g77
g58
NtRp2446
(dp2447
g61
(dp2448
sg70
g2433
sg63
(lp2449
g56
(g57
g58
NtRp2450
(dp2451
g61
(dp2452
g69
I5
ssg70
g2446
sg63
(lp2453
S'/cass1/cass_mgr/index'
p2454
asbasbasbag56
(g72
g58
NtRp2455
(dp2456
g61
(dp2457
sg70
g66
sg63
(lp2458
g56
(g77
g58
NtRp2459
(dp2460
g61
(dp2461
g81
g82
ssg70
g2455
sg63
(lp2462
S'utcnow'
p2463
asbag56
(g77
g58
NtRp2464
(dp2465
g61
(dp2466
g88
g89
ssg70
g2455
sg63
(lp2467
S':'
asbag56
(g77
g58
NtRp2468
(dp2469
g61
(dp2470
sg70
g2455
sg63
(lp2471
g56
(g57
g58
NtRp2472
(dp2473
g61
(dp2474
g69
I5
ssg70
g2468
sg63
(lp2475
S'datetime.datetime(2011, 11, 30, 18, 29, 15, 339398)'
p2476
asbasbasbag56
(g72
g58
NtRp2477
(dp2478
g61
(dp2479
sg70
g66
sg63
(lp2480
g56
(g77
g58
NtRp2481
(dp2482
g61
(dp2483
g81
g82
ssg70
g2477
sg63
(lp2484
S'uuid'
p2485
asbag56
(g77
g58
NtRp2486
(dp2487
g61
(dp2488
g88
g89
ssg70
g2477
sg63
(lp2489
S':'
asbag56
(g77
g58
NtRp2490
(dp2491
g61
(dp2492
sg70
g2477
sg63
(lp2493
g56
(g57
g58
NtRp2494
(dp2495
g61
(dp2496
g69
I5
ssg70
g2490
sg63
(lp2497
S'cass1/127.0.0.1.2011-11-30.18-29-15.4d8c5688-9e8b-4f18-9cfa-a8e21264539c'
p2498
asbasbasbag56
(g72
g58
NtRp2499
(dp2500
g61
(dp2501
sg70
g66
sg63
(lp2502
g56
(g77
g58
NtRp2503
(dp2504
g61
(dp2505
g81
g82
ssg70
g2499
sg63
(lp2506
S'vars'
p2507
asbag56
(g77
g58
NtRp2508
(dp2509
g61
(dp2510
g88
g89
ssg70
g2499
sg63
(lp2511
S':'
asbag56
(g77
g58
NtRp2512
(dp2513
g61
(dp2514
sg70
g2499
sg63
(lp2515
g56
(g57
g58
NtRp2516
(dp2517
g61
(dp2518
g69
I5
ssg70
g2512
sg63
(lp2519
g56
(g65
g58
NtRp2520
(dp2521
g61
(dp2522
g69
I4
ssg70
Nsg63
(lp2523
sbasbasbasbag56
(g72
g58
NtRp2524
(dp2525
g61
(dp2526
sg70
g66
sg63
(lp2527
g56
(g77
g58
NtRp2528
(dp2529
g61
(dp2530
g81
g82
ssg70
g2524
sg63
(lp2531
S'wsgi'
p2532
asbag56
(g77
g58
NtRp2533
(dp2534
g61
(dp2535
g88
g89
ssg70
g2524
sg63
(lp2536
S':'
asbag56
(g77
g58
NtRp2537
(dp2538
g61
(dp2539
sg70
g2524
sg63
(lp2540
g56
(g57
g58
NtRp2541
(dp2542
g61
(dp2543
g69
I5
ssg70
g2537
sg63
(lp2544
g56
(g65
g58
NtRp2545
(dp2546
g61
(dp2547
g69
I4
ssg70
Nsg63
(lp2548
g56
(g72
g58
NtRp2549
(dp2550
g61
(dp2551
sg70
g2545
sg63
(lp2552
g56
(g77
g58
NtRp2553
(dp2554
g61
(dp2555
g81
g82
ssg70
g2549
sg63
(lp2556
S'environ'
p2557
asbag56
(g77
g58
NtRp2558
(dp2559
g61
(dp2560
g88
g89
ssg70
g2549
sg63
(lp2561
S':'
asbag56
(g77
g58
NtRp2562
(dp2563
g61
(dp2564
sg70
g2549
sg63
(lp2565
g56
(g57
g58
NtRp2566
(dp2567
g61
(dp2568
g69
I4
ssg70
g2562
sg63
(lp2569
g56
(g65
g58
NtRp2570
(dp2571
g61
(dp2572
g69
I3
ssg70
Nsg63
(lp2573
g56
(g72
g58
NtRp2574
(dp2575
g61
(dp2576
sg70
g2570
sg63
(lp2577
g56
(g77
g58
NtRp2578
(dp2579
g61
(dp2580
g81
g82
ssg70
g2574
sg63
(lp2581
S'HTTP_ACCEPT'
p2582
asbag56
(g77
g58
NtRp2583
(dp2584
g61
(dp2585
g88
g89
ssg70
g2574
sg63
(lp2586
S':'
asbag56
(g77
g58
NtRp2587
(dp2588
g61
(dp2589
sg70
g2574
sg63
(lp2590
g56
(g57
g58
NtRp2591
(dp2592
g61
(dp2593
g69
I3
ssg70
g2587
sg63
(lp2594
g1187
asbasbasbag56
(g72
g58
NtRp2595
(dp2596
g61
(dp2597
sg70
g2570
sg63
(lp2598
g56
(g77
g58
NtRp2599
(dp2600
g61
(dp2601
g81
g82
ssg70
g2595
sg63
(lp2602
S'HTTP_ACCEPT_CHARSET'
p2603
asbag56
(g77
g58
NtRp2604
(dp2605
g61
(dp2606
g88
g89
ssg70
g2595
sg63
(lp2607
S':'
asbag56
(g77
g58
NtRp2608
(dp2609
g61
(dp2610
sg70
g2595
sg63
(lp2611
g56
(g57
g58
NtRp2612
(dp2613
g61
(dp2614
g69
I3
ssg70
g2608
sg63
(lp2615
g1209
asbasbasbag56
(g72
g58
NtRp2616
(dp2617
g61
(dp2618
sg70
g2570
sg63
(lp2619
g56
(g77
g58
NtRp2620
(dp2621
g61
(dp2622
g81
g82
ssg70
g2616
sg63
(lp2623
S'HTTP_ACCEPT_ENCODING'
p2624
asbag56
(g77
g58
NtRp2625
(dp2626
g61
(dp2627
g88
g89
ssg70
g2616
sg63
(lp2628
S':'
asbag56
(g77
g58
NtRp2629
(dp2630
g61
(dp2631
sg70
g2616
sg63
(lp2632
g56
(g57
g58
NtRp2633
(dp2634
g61
(dp2635
g69
I3
ssg70
g2629
sg63
(lp2636
g1231
asbasbasbag56
(g72
g58
NtRp2637
(dp2638
g61
(dp2639
sg70
g2570
sg63
(lp2640
g56
(g77
g58
NtRp2641
(dp2642
g61
(dp2643
g81
g82
ssg70
g2637
sg63
(lp2644
S'HTTP_ACCEPT_LANGUAGE'
p2645
asbag56
(g77
g58
NtRp2646
(dp2647
g61
(dp2648
g88
g89
ssg70
g2637
sg63
(lp2649
S':'
asbag56
(g77
g58
NtRp2650
(dp2651
g61
(dp2652
sg70
g2637
sg63
(lp2653
g56
(g57
g58
NtRp2654
(dp2655
g61
(dp2656
g69
I3
ssg70
g2650
sg63
(lp2657
g1253
asbasbasbag56
(g72
g58
NtRp2658
(dp2659
g61
(dp2660
sg70
g2570
sg63
(lp2661
g56
(g77
g58
NtRp2662
(dp2663
g61
(dp2664
g81
g82
ssg70
g2658
sg63
(lp2665
S'HTTP_CONNECTION'
p2666
asbag56
(g77
g58
NtRp2667
(dp2668
g61
(dp2669
g88
g89
ssg70
g2658
sg63
(lp2670
S':'
asbag56
(g77
g58
NtRp2671
(dp2672
g61
(dp2673
sg70
g2658
sg63
(lp2674
g56
(g57
g58
NtRp2675
(dp2676
g61
(dp2677
g69
I3
ssg70
g2671
sg63
(lp2678
g1275
asbasbasbag56
(g72
g58
NtRp2679
(dp2680
g61
(dp2681
sg70
g2570
sg63
(lp2682
g56
(g77
g58
NtRp2683
(dp2684
g61
(dp2685
g81
g82
ssg70
g2679
sg63
(lp2686
S'HTTP_COOKIE'
p2687
asbag56
(g77
g58
NtRp2688
(dp2689
g61
(dp2690
g88
g89
ssg70
g2679
sg63
(lp2691
S':'
asbag56
(g77
g58
NtRp2692
(dp2693
g61
(dp2694
sg70
g2679
sg63
(lp2695
g56
(g57
g58
NtRp2696
(dp2697
g61
(dp2698
g69
I3
ssg70
g2692
sg63
(lp2699
g1297
asbasbasbag56
(g72
g58
NtRp2700
(dp2701
g61
(dp2702
sg70
g2570
sg63
(lp2703
g56
(g77
g58
NtRp2704
(dp2705
g61
(dp2706
g81
g82
ssg70
g2700
sg63
(lp2707
S'HTTP_HOST'
p2708
asbag56
(g77
g58
NtRp2709
(dp2710
g61
(dp2711
g88
g89
ssg70
g2700
sg63
(lp2712
S':'
asbag56
(g77
g58
NtRp2713
(dp2714
g61
(dp2715
sg70
g2700
sg63
(lp2716
g56
(g57
g58
NtRp2717
(dp2718
g61
(dp2719
g69
I3
ssg70
g2713
sg63
(lp2720
g1319
asbasbasbag56
(g72
g58
NtRp2721
(dp2722
g61
(dp2723
sg70
g2570
sg63
(lp2724
g56
(g77
g58
NtRp2725
(dp2726
g61
(dp2727
g81
g82
ssg70
g2721
sg63
(lp2728
S'HTTP_REFERER'
p2729
asbag56
(g77
g58
NtRp2730
(dp2731
g61
(dp2732
g88
g89
ssg70
g2721
sg63
(lp2733
S':'
asbag56
(g77
g58
NtRp2734
(dp2735
g61
(dp2736
sg70
g2721
sg63
(lp2737
g56
(g57
g58
NtRp2738
(dp2739
g61
(dp2740
g69
I3
ssg70
g2734
sg63
(lp2741
g1341
asbasbasbag56
(g72
g58
NtRp2742
(dp2743
g61
(dp2744
sg70
g2570
sg63
(lp2745
g56
(g77
g58
NtRp2746
(dp2747
g61
(dp2748
g81
g82
ssg70
g2742
sg63
(lp2749
S'HTTP_USER_AGENT'
p2750
asbag56
(g77
g58
NtRp2751
(dp2752
g61
(dp2753
g88
g89
ssg70
g2742
sg63
(lp2754
S':'
asbag56
(g77
g58
NtRp2755
(dp2756
g61
(dp2757
sg70
g2742
sg63
(lp2758
g56
(g57
g58
NtRp2759
(dp2760
g61
(dp2761
g69
I3
ssg70
g2755
sg63
(lp2762
g1363
asbasbasbag56
(g72
g58
NtRp2763
(dp2764
g61
(dp2765
sg70
g2570
sg63
(lp2766
g56
(g77
g58
NtRp2767
(dp2768
g61
(dp2769
g81
g82
ssg70
g2763
sg63
(lp2770
S'PATH_INFO'
p2771
asbag56
(g77
g58
NtRp2772
(dp2773
g61
(dp2774
g88
g89
ssg70
g2763
sg63
(lp2775
S':'
asbag56
(g77
g58
NtRp2776
(dp2777
g61
(dp2778
sg70
g2763
sg63
(lp2779
g56
(g57
g58
NtRp2780
(dp2781
g61
(dp2782
g69
I3
ssg70
g2776
sg63
(lp2783
g1406
asbasbasbag56
(g72
g58
NtRp2784
(dp2785
g61
(dp2786
sg70
g2570
sg63
(lp2787
g56
(g77
g58
NtRp2788
(dp2789
g61
(dp2790
g81
g82
ssg70
g2784
sg63
(lp2791
S'QUERY_STRING'
p2792
asbag56
(g77
g58
NtRp2793
(dp2794
g61
(dp2795
g88
g89
ssg70
g2784
sg63
(lp2796
S':'
asbag56
(g77
g58
NtRp2797
(dp2798
g61
(dp2799
sg70
g2784
sg63
(lp2800
g56
(g57
g58
NtRp2801
(dp2802
g61
(dp2803
g69
I3
ssg70
g2797
sg63
(lp2804
S''
asbasbasbag56
(g72
g58
NtRp2805
(dp2806
g61
(dp2807
sg70
g2570
sg63
(lp2808
g56
(g77
g58
NtRp2809
(dp2810
g61
(dp2811
g81
g82
ssg70
g2805
sg63
(lp2812
S'REMOTE_ADDR'
p2813
asbag56
(g77
g58
NtRp2814
(dp2815
g61
(dp2816
g88
g89
ssg70
g2805
sg63
(lp2817
S':'
asbag56
(g77
g58
NtRp2818
(dp2819
g61
(dp2820
sg70
g2805
sg63
(lp2821
g56
(g57
g58
NtRp2822
(dp2823
g61
(dp2824
g69
I3
ssg70
g2818
sg63
(lp2825
g189
asbasbasbag56
(g72
g58
NtRp2826
(dp2827
g61
(dp2828
sg70
g2570
sg63
(lp2829
g56
(g77
g58
NtRp2830
(dp2831
g61
(dp2832
g81
g82
ssg70
g2826
sg63
(lp2833
S'REMOTE_PORT'
p2834
asbag56
(g77
g58
NtRp2835
(dp2836
g61
(dp2837
g88
g89
ssg70
g2826
sg63
(lp2838
S':'
asbag56
(g77
g58
NtRp2839
(dp2840
g61
(dp2841
sg70
g2826
sg63
(lp2842
g56
(g57
g58
NtRp2843
(dp2844
g61
(dp2845
g69
I3
ssg70
g2839
sg63
(lp2846
g1470
asbasbasbag56
(g72
g58
NtRp2847
(dp2848
g61
(dp2849
sg70
g2570
sg63
(lp2850
g56
(g77
g58
NtRp2851
(dp2852
g61
(dp2853
g81
g82
ssg70
g2847
sg63
(lp2854
S'REQUEST_METHOD'
p2855
asbag56
(g77
g58
NtRp2856
(dp2857
g61
(dp2858
g88
g89
ssg70
g2847
sg63
(lp2859
S':'
asbag56
(g77
g58
NtRp2860
(dp2861
g61
(dp2862
sg70
g2847
sg63
(lp2863
g56
(g57
g58
NtRp2864
(dp2865
g61
(dp2866
g69
I3
ssg70
g2860
sg63
(lp2867
g1492
asbasbasbag56
(g72
g58
NtRp2868
(dp2869
g61
(dp2870
sg70
g2570
sg63
(lp2871
g56
(g77
g58
NtRp2872
(dp2873
g61
(dp2874
g81
g82
ssg70
g2868
sg63
(lp2875
S'SCRIPT_NAME'
p2876
asbag56
(g77
g58
NtRp2877
(dp2878
g61
(dp2879
g88
g89
ssg70
g2868
sg63
(lp2880
S':'
asbag56
(g77
g58
NtRp2881
(dp2882
g61
(dp2883
sg70
g2868
sg63
(lp2884
g56
(g57
g58
NtRp2885
(dp2886
g61
(dp2887
g69
I3
ssg70
g2881
sg63
(lp2888
S''
asbasbasbag56
(g72
g58
NtRp2889
(dp2890
g61
(dp2891
sg70
g2570
sg63
(lp2892
g56
(g77
g58
NtRp2893
(dp2894
g61
(dp2895
g81
g82
ssg70
g2889
sg63
(lp2896
S'SERVER_NAME'
p2897
asbag56
(g77
g58
NtRp2898
(dp2899
g61
(dp2900
g88
g89
ssg70
g2889
sg63
(lp2901
S':'
asbag56
(g77
g58
NtRp2902
(dp2903
g61
(dp2904
sg70
g2889
sg63
(lp2905
g56
(g57
g58
NtRp2906
(dp2907
g61
(dp2908
g69
I3
ssg70
g2902
sg63
(lp2909
g1535
asbasbasbag56
(g72
g58
NtRp2910
(dp2911
g61
(dp2912
sg70
g2570
sg63
(lp2913
g56
(g77
g58
NtRp2914
(dp2915
g61
(dp2916
g81
g82
ssg70
g2910
sg63
(lp2917
S'SERVER_PORT'
p2918
asbag56
(g77
g58
NtRp2919
(dp2920
g61
(dp2921
g88
g89
ssg70
g2910
sg63
(lp2922
S':'
asbag56
(g77
g58
NtRp2923
(dp2924
g61
(dp2925
sg70
g2910
sg63
(lp2926
g56
(g57
g58
NtRp2927
(dp2928
g61
(dp2929
g69
I3
ssg70
g2923
sg63
(lp2930
g1557
asbasbasbag56
(g72
g58
NtRp2931
(dp2932
g61
(dp2933
sg70
g2570
sg63
(lp2934
g56
(g77
g58
NtRp2935
(dp2936
g61
(dp2937
g81
g82
ssg70
g2931
sg63
(lp2938
S'SERVER_PROTOCOL'
p2939
asbag56
(g77
g58
NtRp2940
(dp2941
g61
(dp2942
g88
g89
ssg70
g2931
sg63
(lp2943
S':'
asbag56
(g77
g58
NtRp2944
(dp2945
g61
(dp2946
sg70
g2931
sg63
(lp2947
g56
(g57
g58
NtRp2948
(dp2949
g61
(dp2950
g69
I3
ssg70
g2944
sg63
(lp2951
g1579
asbasbasbag56
(g72
g58
NtRp2952
(dp2953
g61
(dp2954
sg70
g2570
sg63
(lp2955
g56
(g77
g58
NtRp2956
(dp2957
g61
(dp2958
g81
g82
ssg70
g2952
sg63
(lp2959
S'SERVER_SOFTWARE'
p2960
asbag56
(g77
g58
NtRp2961
(dp2962
g61
(dp2963
g88
g89
ssg70
g2952
sg63
(lp2964
S':'
asbag56
(g77
g58
NtRp2965
(dp2966
g61
(dp2967
sg70
g2952
sg63
(lp2968
g56
(g57
g58
NtRp2969
(dp2970
g61
(dp2971
g69
I3
ssg70
g2965
sg63
(lp2972
g1601
asbasbasbag56
(g72
g58
NtRp2973
(dp2974
g61
(dp2975
sg70
g2570
sg63
(lp2976
g56
(g77
g58
NtRp2977
(dp2978
g61
(dp2979
g81
g82
ssg70
g2973
sg63
(lp2980
S'wsgi.errors'
p2981
asbag56
(g77
g58
NtRp2982
(dp2983
g61
(dp2984
g88
g89
ssg70
g2973
sg63
(lp2985
S':'
asbag56
(g77
g58
NtRp2986
(dp2987
g61
(dp2988
sg70
g2973
sg63
(lp2989
g56
(g57
g58
NtRp2990
(dp2991
g61
(dp2992
g69
I3
ssg70
g2986
sg63
(lp2993
S"<open file '<stderr>', mode 'w' at 0x7f20b26a4270>"
p2994
asbasbasbag56
(g72
g58
NtRp2995
(dp2996
g61
(dp2997
sg70
g2570
sg63
(lp2998
g56
(g77
g58
NtRp2999
(dp3000
g61
(dp3001
g81
g82
ssg70
g2995
sg63
(lp3002
S'wsgi.file_wrapper'
p3003
asbag56
(g77
g58
NtRp3004
(dp3005
g61
(dp3006
g88
g89
ssg70
g2995
sg63
(lp3007
S':'
asbag56
(g77
g58
NtRp3008
(dp3009
g61
(dp3010
sg70
g2995
sg63
(lp3011
g56
(g57
g58
NtRp3012
(dp3013
g61
(dp3014
g69
I3
ssg70
g3008
sg63
(lp3015
S'<class wsgiref.util.FileWrapper at 0x244d3f8>'
p3016
asbasbasbag56
(g72
g58
NtRp3017
(dp3018
g61
(dp3019
sg70
g2570
sg63
(lp3020
g56
(g77
g58
NtRp3021
(dp3022
g61
(dp3023
g81
g82
ssg70
g3017
sg63
(lp3024
S'wsgi.input'
p3025
asbag56
(g77
g58
NtRp3026
(dp3027
g61
(dp3028
g88
g89
ssg70
g3017
sg63
(lp3029
S':'
asbag56
(g77
g58
NtRp3030
(dp3031
g61
(dp3032
sg70
g3017
sg63
(lp3033
g56
(g57
g58
NtRp3034
(dp3035
g61
(dp3036
g69
I3
ssg70
g3030
sg63
(lp3037
S'<cStringIO.StringO object at 0x2a334c8>'
p3038
asbasbasbag56
(g72
g58
NtRp3039
(dp3040
g61
(dp3041
sg70
g2570
sg63
(lp3042
g56
(g77
g58
NtRp3043
(dp3044
g61
(dp3045
g81
g82
ssg70
g3039
sg63
(lp3046
S'wsgi.multiprocess'
p3047
asbag56
(g77
g58
NtRp3048
(dp3049
g61
(dp3050
g88
g89
ssg70
g3039
sg63
(lp3051
S':'
asbag56
(g77
g58
NtRp3052
(dp3053
g61
(dp3054
sg70
g3039
sg63
(lp3055
g56
(g57
g58
NtRp3056
(dp3057
g61
(dp3058
g69
I3
ssg70
g3052
sg63
(lp3059
g99
asbasbasbag56
(g72
g58
NtRp3060
(dp3061
g61
(dp3062
sg70
g2570
sg63
(lp3063
g56
(g77
g58
NtRp3064
(dp3065
g61
(dp3066
g81
g82
ssg70
g3060
sg63
(lp3067
S'wsgi.multithread'
p3068
asbag56
(g77
g58
NtRp3069
(dp3070
g61
(dp3071
g88
g89
ssg70
g3060
sg63
(lp3072
S':'
asbag56
(g77
g58
NtRp3073
(dp3074
g61
(dp3075
sg70
g3060
sg63
(lp3076
g56
(g57
g58
NtRp3077
(dp3078
g61
(dp3079
g69
I3
ssg70
g3073
sg63
(lp3080
g1841
asbasbasbag56
(g72
g58
NtRp3081
(dp3082
g61
(dp3083
sg70
g2570
sg63
(lp3084
g56
(g77
g58
NtRp3085
(dp3086
g61
(dp3087
g81
g82
ssg70
g3081
sg63
(lp3088
S'wsgi.run_once'
p3089
asbag56
(g77
g58
NtRp3090
(dp3091
g61
(dp3092
g88
g89
ssg70
g3081
sg63
(lp3093
S':'
asbag56
(g77
g58
NtRp3094
(dp3095
g61
(dp3096
sg70
g3081
sg63
(lp3097
g56
(g57
g58
NtRp3098
(dp3099
g61
(dp3100
g69
I3
ssg70
g3094
sg63
(lp3101
g99
asbasbasbag56
(g72
g58
NtRp3102
(dp3103
g61
(dp3104
sg70
g2570
sg63
(lp3105
g56
(g77
g58
NtRp3106
(dp3107
g61
(dp3108
g81
g82
ssg70
g3102
sg63
(lp3109
S'wsgi.url_scheme'
p3110
asbag56
(g77
g58
NtRp3111
(dp3112
g61
(dp3113
g88
g89
ssg70
g3102
sg63
(lp3114
S':'
asbag56
(g77
g58
NtRp3115
(dp3116
g61
(dp3117
sg70
g3102
sg63
(lp3118
g56
(g57
g58
NtRp3119
(dp3120
g61
(dp3121
g69
I3
ssg70
g3115
sg63
(lp3122
g1884
asbasbasbag56
(g72
g58
NtRp3123
(dp3124
g61
(dp3125
sg70
g2570
sg63
(lp3126
g56
(g77
g58
NtRp3127
(dp3128
g61
(dp3129
g81
g82
ssg70
g3123
sg63
(lp3130
S'wsgi.version'
p3131
asbag56
(g77
g58
NtRp3132
(dp3133
g61
(dp3134
g88
g89
ssg70
g3123
sg63
(lp3135
S':'
asbag56
(g77
g58
NtRp3136
(dp3137
g61
(dp3138
sg70
g3123
sg63
(lp3139
g56
(g57
g58
NtRp3140
(dp3141
g61
(dp3142
g69
I3
ssg70
g3136
sg63
(lp3143
S'1'
asbasbasbasbasbasbasbasbasbasbasbasbasbsS'frames'
p3144
(lp3145
(dp3146
S'file'
p3147
S'/opt/cassandra-dev/PROJECTS/Cassandra-Monitor/src/CassandraMonitor/myinterface/gluon/restricted.py'
p3148
sS'dump'
p3149
(dp3150
S'environment'
p3151
S"{'A': <class 'gluon.html.A'>, 'Auth': <class 'gluon.tools.Auth'>, 'B': <class 'gluon.html.B'>, 'BEAUTIFY': <class 'gluon.html.BEAUTIFY'>, 'BODY': <class 'gluon.html.BODY'>, 'BR': <class 'gluon.html.BR'>, 'BUTTON': <class 'gluon.html.BUTTON'>, 'CAT': <class 'gluon.html.CAT'>, 'CENTER': <class 'gluon.html.CENTER'>, 'CLEANUP': <class 'gluon.validators.CLEANUP'>, ...}"
p3152
sS'ccode'
p3153
S'<code object <module> at 0x2193eb0, file "/opt/c...lications/cass1/controllers/cass_mgr.py", line 2>'
p3154
ssS'lnum'
p3155
I194
sS'lines'
p3156
(dp3157
I192
S'        else:'
p3158
sI193
S'            ccode = compile2(code,layer)'
p3159
sI194
S'        exec ccode in environment'
p3160
sI195
S'    except HTTP:'
p3161
sI196
S'        raise'
p3162
sI197
S'    except Exception, error:'
p3163
sI198
S'        # XXX Show exception in Wing IDE if running in debugger'
p3164
sI189
S'    try:'
p3165
sI190
S'        if type(code) == types.CodeType:'
p3166
sI191
S'            ccode = code'
p3167
ssS'call'
p3168
S"(code='# coding: utf8\\nfrom __future__ import absolute_i...myjmx)\\n\\n\\n\\nresponse._vars=response._caller(index)\\n', environment={'A': <class 'gluon.html.A'>, 'Auth': <class 'gluon.tools.Auth'>, 'B': <class 'gluon.html.B'>, 'BEAUTIFY': <class 'gluon.html.BEAUTIFY'>, 'BODY': <class 'gluon.html.BODY'>, 'BR': <class 'gluon.html.BR'>, 'BUTTON': <class 'gluon.html.BUTTON'>, 'CAT': <class 'gluon.html.CAT'>, 'CENTER': <class 'gluon.html.CENTER'>, 'CLEANUP': <class 'gluon.validators.CLEANUP'>, ...}, layer='/opt/cassandra-dev/PROJECTS/Cassandra-Monitor/sr...erface/applications/cass1/controllers/cass_mgr.py')"
p3169
sS'func'
p3170
S'restricted'
p3171
sa(dp3172
g3147
S'/opt/cassandra-dev/PROJECTS/Cassandra-Monitor/src/CassandraMonitor/myinterface/applications/cass1/controllers/cass_mgr.py'
p3173
sg3149
(dp3174
S'mydata'
p3175
S'undefined'
p3176
sS'd'
g3176
ssg3155
I8
sg3156
(dp3177
I3
S'import sys'
p3178
sI4
S'# total hack'
p3179
sI5
S'sys.path.append("\\'
p3180
sI6
S'/opt/work/projects/Cassandra-Monitor/src/CassandraMonitor/myinterface/applications/cass1/controllers")'
p3181
sI7
S''
sI8
S'import mydata.data as d'
p3182
sI9
S''
sI10
S'def index():'
p3183
sI11
S'    data = d.MyData()'
p3184
sI12
S'    myjmx = data.mydict()'
p3185
ssg3168
S'()'
p3186
sg3170
S'<module>'
p3187
sa(dp3188
g3147
S'/opt/cassandra-dev/PROJECTS/Cassandra-Monitor/src/CassandraMonitor/myinterface/gluon/custom_import.py'
p3189
sg3149
(dp3190
S'fromlist'
p3191
S'[]'
p3192
sS'level'
p3193
S'0'
ssg3155
I294
sg3156
(dp3194
I289
S'                            .__call__(modules_prefix+"."+name,'
p3195
sI290
S'                                    globals, locals, fromlist, level)'
p3196
sI291
S'                except ImportError:'
p3197
sI292
S'                    pass'
p3198
sI293
S'        return super(_Web2pyImporter, self).__call__(name, globals, locals,'
p3199
sI294
S'                                                    fromlist, level)'
p3200
sI295
S'        #except Exception, e:'
p3201
sI296
S"        #    raise e  # Don't hide something that went wrong"
p3202
sI297
S'        #finally:'
p3203
sI298
S'        self.end()'
p3204
ssg3168
S"(self=<gluon.custom_import._Web2pyImporter object>, name='mydata.data', globals={'A': <class 'gluon.html.A'>, 'Auth': <class 'gluon.tools.Auth'>, 'B': <class 'gluon.html.B'>, 'BEAUTIFY': <class 'gluon.html.BEAUTIFY'>, 'BODY': <class 'gluon.html.BODY'>, 'BR': <class 'gluon.html.BR'>, 'BUTTON': <class 'gluon.html.BUTTON'>, 'CAT': <class 'gluon.html.CAT'>, 'CENTER': <class 'gluon.html.CENTER'>, 'CLEANUP': <class 'gluon.validators.CLEANUP'>, ...}, locals={'A': <class 'gluon.html.A'>, 'Auth': <class 'gluon.tools.Auth'>, 'B': <class 'gluon.html.B'>, 'BEAUTIFY': <class 'gluon.html.BEAUTIFY'>, 'BODY': <class 'gluon.html.BODY'>, 'BR': <class 'gluon.html.BR'>, 'BUTTON': <class 'gluon.html.BUTTON'>, 'CAT': <class 'gluon.html.CAT'>, 'CENTER': <class 'gluon.html.CENTER'>, 'CLEANUP': <class 'gluon.validators.CLEANUP'>, ...}, fromlist=[], level=0)"
p3205
sg3170
S'__call__'
p3206
sa(dp3207
g3147
S'/opt/cassandra-dev/PROJECTS/Cassandra-Monitor/src/CassandraMonitor/myinterface/gluon/custom_import.py'
p3208
sg3149
(dp3209
S'level'
p3210
S'0'
ssg3155
I78
sg3156
(dp3211
I73
S'        """'
p3212
sI74
S'        return _STANDARD_PYTHON_IMPORTER(name,'
p3213
sI75
S'\t\t\t\t\t globals,'
p3214
sI76
S'\t\t\t\t\t locals,'
p3215
sI77
S'\t\t\t\t\t fromlist,'
p3216
sI78
S'                                         level)'
p3217
sI79
S''
sI80
S'    def end(self):'
p3218
sI81
S'        """'
p3219
sI82
S'        Needed for clean up.'
p3220
ssg3168
S"(self=<gluon.custom_import._Web2pyImporter object>, name='mydata.data', globals={'A': <class 'gluon.html.A'>, 'Auth': <class 'gluon.tools.Auth'>, 'B': <class 'gluon.html.B'>, 'BEAUTIFY': <class 'gluon.html.BEAUTIFY'>, 'BODY': <class 'gluon.html.BODY'>, 'BR': <class 'gluon.html.BR'>, 'BUTTON': <class 'gluon.html.BUTTON'>, 'CAT': <class 'gluon.html.CAT'>, 'CENTER': <class 'gluon.html.CENTER'>, 'CLEANUP': <class 'gluon.validators.CLEANUP'>, ...}, locals={'A': <class 'gluon.html.A'>, 'Auth': <class 'gluon.tools.Auth'>, 'B': <class 'gluon.html.B'>, 'BEAUTIFY': <class 'gluon.html.BEAUTIFY'>, 'BODY': <class 'gluon.html.BODY'>, 'BR': <class 'gluon.html.BR'>, 'BUTTON': <class 'gluon.html.BUTTON'>, 'CAT': <class 'gluon.html.CAT'>, 'CENTER': <class 'gluon.html.CENTER'>, 'CLEANUP': <class 'gluon.validators.CLEANUP'>, ...}, fromlist=[], level=0)"
p3221
sg3170
g3206
sasS'pyver'
p3222
S'Python 2.7.2: /opt/cassandra-dev/PROJECTS/Cassandra-Monitor/python-virtualenv/bin/python'
p3223
sS'session'
p3224
g56
(g57
g58
NtRp3225
(dp3226
g61
(dp3227
sg63
(lp3228
g56
(g65
g58
NtRp3229
(dp3230
g61
(dp3231
g69
I5
ssg70
Nsg63
(lp3232
sbasbsS'etype'
p3233
S"<type 'exceptions.ImportError'>"
p3234
sS'date'
p3235
S'Wed Nov 30 18:29:15 2011'
p3236
sS'response'
p3237
g56
(g57
g58
NtRp3238
(dp3239
g61
(dp3240
sg63
(lp3241
g56
(g65
g58
NtRp3242
(dp3243
g61
(dp3244
g69
I5
ssg70
Nsg63
(lp3245
g56
(g72
g58
NtRp3246
(dp3247
g61
(dp3248
sg70
g3242
sg63
(lp3249
g56
(g77
g58
NtRp3250
(dp3251
g61
(dp3252
g81
g82
ssg70
g3246
sg63
(lp3253
g154
asbag56
(g77
g58
NtRp3254
(dp3255
g61
(dp3256
g88
g89
ssg70
g3246
sg63
(lp3257
S':'
asbag56
(g77
g58
NtRp3258
(dp3259
g61
(dp3260
sg70
g3246
sg63
(lp3261
g56
(g57
g58
NtRp3262
(dp3263
g61
(dp3264
g69
I5
ssg70
g3258
sg63
(lp3265
S'<cStringIO.StringO object at 0x2a428b8>'
p3266
asbasbasbag56
(g72
g58
NtRp3267
(dp3268
g61
(dp3269
sg70
g3242
sg63
(lp3270
g56
(g77
g58
NtRp3271
(dp3272
g61
(dp3273
g81
g82
ssg70
g3267
sg63
(lp3274
g220
asbag56
(g77
g58
NtRp3275
(dp3276
g61
(dp3277
g88
g89
ssg70
g3267
sg63
(lp3278
S':'
asbag56
(g77
g58
NtRp3279
(dp3280
g61
(dp3281
sg70
g3267
sg63
(lp3282
g56
(g57
g58
NtRp3283
(dp3284
g61
(dp3285
g69
I5
ssg70
g3279
sg63
(lp3286
g56
(g65
g58
NtRp3287
(dp3288
g61
(dp3289
g69
I4
ssg70
Nsg63
(lp3290
g56
(g72
g58
NtRp3291
(dp3292
g61
(dp3293
sg70
g3287
sg63
(lp3294
g56
(g77
g58
NtRp3295
(dp3296
g61
(dp3297
g81
g82
ssg70
g3291
sg63
(lp3298
S'session_id_cass1'
p3299
asbag56
(g77
g58
NtRp3300
(dp3301
g61
(dp3302
g88
g89
ssg70
g3291
sg63
(lp3303
S':'
asbag56
(g77
g58
NtRp3304
(dp3305
g61
(dp3306
sg70
g3291
sg63
(lp3307
g56
(g57
g58
NtRp3308
(dp3309
g61
(dp3310
g69
I4
ssg70
g3304
sg63
(lp3311
g56
(g65
g58
NtRp3312
(dp3313
g61
(dp3314
g69
I3
ssg70
Nsg63
(lp3315
g56
(g72
g58
NtRp3316
(dp3317
g61
(dp3318
sg70
g3312
sg63
(lp3319
g56
(g77
g58
NtRp3320
(dp3321
g61
(dp3322
g81
g82
ssg70
g3316
sg63
(lp3323
g270
asbag56
(g77
g58
NtRp3324
(dp3325
g61
(dp3326
g88
g89
ssg70
g3316
sg63
(lp3327
S':'
asbag56
(g77
g58
NtRp3328
(dp3329
g61
(dp3330
sg70
g3316
sg63
(lp3331
g56
(g57
g58
NtRp3332
(dp3333
g61
(dp3334
g69
I3
ssg70
g3328
sg63
(lp3335
S''
asbasbasbag56
(g72
g58
NtRp3336
(dp3337
g61
(dp3338
sg70
g3312
sg63
(lp3339
g56
(g77
g58
NtRp3340
(dp3341
g61
(dp3342
g81
g82
ssg70
g3336
sg63
(lp3343
g291
asbag56
(g77
g58
NtRp3344
(dp3345
g61
(dp3346
g88
g89
ssg70
g3336
sg63
(lp3347
S':'
asbag56
(g77
g58
NtRp3348
(dp3349
g61
(dp3350
sg70
g3336
sg63
(lp3351
g56
(g57
g58
NtRp3352
(dp3353
g61
(dp3354
g69
I3
ssg70
g3348
sg63
(lp3355
S''
asbasbasbag56
(g72
g58
NtRp3356
(dp3357
g61
(dp3358
sg70
g3312
sg63
(lp3359
g56
(g77
g58
NtRp3360
(dp3361
g61
(dp3362
g81
g82
ssg70
g3356
sg63
(lp3363
g312
asbag56
(g77
g58
NtRp3364
(dp3365
g61
(dp3366
g88
g89
ssg70
g3356
sg63
(lp3367
S':'
asbag56
(g77
g58
NtRp3368
(dp3369
g61
(dp3370
sg70
g3356
sg63
(lp3371
g56
(g57
g58
NtRp3372
(dp3373
g61
(dp3374
g69
I3
ssg70
g3368
sg63
(lp3375
S''
asbasbasbag56
(g72
g58
NtRp3376
(dp3377
g61
(dp3378
sg70
g3312
sg63
(lp3379
g56
(g77
g58
NtRp3380
(dp3381
g61
(dp3382
g81
g82
ssg70
g3376
sg63
(lp3383
g333
asbag56
(g77
g58
NtRp3384
(dp3385
g61
(dp3386
g88
g89
ssg70
g3376
sg63
(lp3387
S':'
asbag56
(g77
g58
NtRp3388
(dp3389
g61
(dp3390
sg70
g3376
sg63
(lp3391
g56
(g57
g58
NtRp3392
(dp3393
g61
(dp3394
g69
I3
ssg70
g3388
sg63
(lp3395
S''
asbasbasbag56
(g72
g58
NtRp3396
(dp3397
g61
(dp3398
sg70
g3312
sg63
(lp3399
g56
(g77
g58
NtRp3400
(dp3401
g61
(dp3402
g81
g82
ssg70
g3396
sg63
(lp3403
g354
asbag56
(g77
g58
NtRp3404
(dp3405
g61
(dp3406
g88
g89
ssg70
g3396
sg63
(lp3407
S':'
asbag56
(g77
g58
NtRp3408
(dp3409
g61
(dp3410
sg70
g3396
sg63
(lp3411
g56
(g57
g58
NtRp3412
(dp3413
g61
(dp3414
g69
I3
ssg70
g3408
sg63
(lp3415
S''
asbasbasbag56
(g72
g58
NtRp3416
(dp3417
g61
(dp3418
sg70
g3312
sg63
(lp3419
g56
(g77
g58
NtRp3420
(dp3421
g61
(dp3422
g81
g82
ssg70
g3416
sg63
(lp3423
g375
asbag56
(g77
g58
NtRp3424
(dp3425
g61
(dp3426
g88
g89
ssg70
g3416
sg63
(lp3427
S':'
asbag56
(g77
g58
NtRp3428
(dp3429
g61
(dp3430
sg70
g3416
sg63
(lp3431
g56
(g57
g58
NtRp3432
(dp3433
g61
(dp3434
g69
I3
ssg70
g3428
sg63
(lp3435
S'/'
asbasbasbag56
(g72
g58
NtRp3436
(dp3437
g61
(dp3438
sg70
g3312
sg63
(lp3439
g56
(g77
g58
NtRp3440
(dp3441
g61
(dp3442
g81
g82
ssg70
g3436
sg63
(lp3443
g396
asbag56
(g77
g58
NtRp3444
(dp3445
g61
(dp3446
g88
g89
ssg70
g3436
sg63
(lp3447
S':'
asbag56
(g77
g58
NtRp3448
(dp3449
g61
(dp3450
sg70
g3436
sg63
(lp3451
g56
(g57
g58
NtRp3452
(dp3453
g61
(dp3454
g69
I3
ssg70
g3448
sg63
(lp3455
S''
asbasbasbag56
(g72
g58
NtRp3456
(dp3457
g61
(dp3458
sg70
g3312
sg63
(lp3459
g56
(g77
g58
NtRp3460
(dp3461
g61
(dp3462
g81
g82
ssg70
g3456
sg63
(lp3463
g417
asbag56
(g77
g58
NtRp3464
(dp3465
g61
(dp3466
g88
g89
ssg70
g3456
sg63
(lp3467
S':'
asbag56
(g77
g58
NtRp3468
(dp3469
g61
(dp3470
sg70
g3456
sg63
(lp3471
g56
(g57
g58
NtRp3472
(dp3473
g61
(dp3474
g69
I3
ssg70
g3468
sg63
(lp3475
S''
asbasbasbasbasbasbasbasbasbasbasbag56
(g72
g58
NtRp3476
(dp3477
g61
(dp3478
sg70
g3242
sg63
(lp3479
g56
(g77
g58
NtRp3480
(dp3481
g61
(dp3482
g81
g82
ssg70
g3476
sg63
(lp3483
S'files'
p3484
asbag56
(g77
g58
NtRp3485
(dp3486
g61
(dp3487
g88
g89
ssg70
g3476
sg63
(lp3488
S':'
asbag56
(g77
g58
NtRp3489
(dp3490
g61
(dp3491
sg70
g3476
sg63
(lp3492
g56
(g57
g58
NtRp3493
(dp3494
g61
(dp3495
g69
I5
ssg70
g3489
sg63
(lp3496
g56
(g65
g58
NtRp3497
(dp3498
g61
(dp3499
g69
I4
ssg70
Nsg63
(lp3500
g56
(g72
g58
NtRp3501
(dp3502
g61
(dp3503
sg70
g3497
sg63
(lp3504
g56
(g77
g58
NtRp3505
(dp3506
g61
(dp3507
sg70
g3501
sg63
(lp3508
g56
(g57
g58
NtRp3509
(dp3510
g61
(dp3511
g69
I4
ssg70
g3505
sg63
(lp3512
S'/cass1/static/plugin_sortable/jquery.ui.core.js'
p3513
asbasbasbag56
(g72
g58
NtRp3514
(dp3515
g61
(dp3516
sg70
g3497
sg63
(lp3517
g56
(g77
g58
NtRp3518
(dp3519
g61
(dp3520
sg70
g3514
sg63
(lp3521
g56
(g57
g58
NtRp3522
(dp3523
g61
(dp3524
g69
I4
ssg70
g3518
sg63
(lp3525
S'/cass1/static/plugin_sortable/jquery.ui.sortable.js'
p3526
asbasbasbasbasbasbasbag56
(g72
g58
NtRp3527
(dp3528
g61
(dp3529
sg70
g3242
sg63
(lp3530
g56
(g77
g58
NtRp3531
(dp3532
g61
(dp3533
g81
g82
ssg70
g3527
sg63
(lp3534
S'flash'
p3535
asbag56
(g77
g58
NtRp3536
(dp3537
g61
(dp3538
g88
g89
ssg70
g3527
sg63
(lp3539
S':'
asbag56
(g77
g58
NtRp3540
(dp3541
g61
(dp3542
sg70
g3527
sg63
(lp3543
g56
(g57
g58
NtRp3544
(dp3545
g61
(dp3546
g69
I5
ssg70
g3540
sg63
(lp3547
S''
asbasbasbag56
(g72
g58
NtRp3548
(dp3549
g61
(dp3550
sg70
g3242
sg63
(lp3551
g56
(g77
g58
NtRp3552
(dp3553
g61
(dp3554
g81
g82
ssg70
g3548
sg63
(lp3555
S'generic_patterns'
p3556
asbag56
(g77
g58
NtRp3557
(dp3558
g61
(dp3559
g88
g89
ssg70
g3548
sg63
(lp3560
S':'
asbag56
(g77
g58
NtRp3561
(dp3562
g61
(dp3563
sg70
g3548
sg63
(lp3564
g56
(g57
g58
NtRp3565
(dp3566
g61
(dp3567
g69
I5
ssg70
g3561
sg63
(lp3568
g56
(g65
g58
NtRp3569
(dp3570
g61
(dp3571
g69
I4
ssg70
Nsg63
(lp3572
g56
(g72
g58
NtRp3573
(dp3574
g61
(dp3575
sg70
g3569
sg63
(lp3576
g56
(g77
g58
NtRp3577
(dp3578
g61
(dp3579
sg70
g3573
sg63
(lp3580
g56
(g57
g58
NtRp3581
(dp3582
g61
(dp3583
g69
I4
ssg70
g3577
sg63
(lp3584
S'*'
asbasbasbasbasbasbasbag56
(g72
g58
NtRp3585
(dp3586
g61
(dp3587
sg70
g3242
sg63
(lp3588
g56
(g77
g58
NtRp3589
(dp3590
g61
(dp3591
g81
g82
ssg70
g3585
sg63
(lp3592
S'headers'
p3593
asbag56
(g77
g58
NtRp3594
(dp3595
g61
(dp3596
g88
g89
ssg70
g3585
sg63
(lp3597
S':'
asbag56
(g77
g58
NtRp3598
(dp3599
g61
(dp3600
sg70
g3585
sg63
(lp3601
g56
(g57
g58
NtRp3602
(dp3603
g61
(dp3604
g69
I5
ssg70
g3598
sg63
(lp3605
g56
(g65
g58
NtRp3606
(dp3607
g61
(dp3608
g69
I4
ssg70
Nsg63
(lp3609
g56
(g72
g58
NtRp3610
(dp3611
g61
(dp3612
sg70
g3606
sg63
(lp3613
g56
(g77
g58
NtRp3614
(dp3615
g61
(dp3616
g81
g82
ssg70
g3610
sg63
(lp3617
S'Cache-Control'
p3618
asbag56
(g77
g58
NtRp3619
(dp3620
g61
(dp3621
g88
g89
ssg70
g3610
sg63
(lp3622
S':'
asbag56
(g77
g58
NtRp3623
(dp3624
g61
(dp3625
sg70
g3610
sg63
(lp3626
g56
(g57
g58
NtRp3627
(dp3628
g61
(dp3629
g69
I4
ssg70
g3623
sg63
(lp3630
S'no-store, no-cache, must-revalidate, post-check=0, pre-check=0'
p3631
asbasbasbag56
(g72
g58
NtRp3632
(dp3633
g61
(dp3634
sg70
g3606
sg63
(lp3635
g56
(g77
g58
NtRp3636
(dp3637
g61
(dp3638
g81
g82
ssg70
g3632
sg63
(lp3639
S'Content-Type'
p3640
asbag56
(g77
g58
NtRp3641
(dp3642
g61
(dp3643
g88
g89
ssg70
g3632
sg63
(lp3644
S':'
asbag56
(g77
g58
NtRp3645
(dp3646
g61
(dp3647
sg70
g3632
sg63
(lp3648
g56
(g57
g58
NtRp3649
(dp3650
g61
(dp3651
g69
I4
ssg70
g3645
sg63
(lp3652
S'text/html; charset=utf-8'
p3653
asbasbasbag56
(g72
g58
NtRp3654
(dp3655
g61
(dp3656
sg70
g3606
sg63
(lp3657
g56
(g77
g58
NtRp3658
(dp3659
g61
(dp3660
g81
g82
ssg70
g3654
sg63
(lp3661
S'Expires'
p3662
asbag56
(g77
g58
NtRp3663
(dp3664
g61
(dp3665
g88
g89
ssg70
g3654
sg63
(lp3666
S':'
asbag56
(g77
g58
NtRp3667
(dp3668
g61
(dp3669
sg70
g3654
sg63
(lp3670
g56
(g57
g58
NtRp3671
(dp3672
g61
(dp3673
g69
I4
ssg70
g3667
sg63
(lp3674
S'Wed, 30 Nov 2011 18:29:15 GMT'
p3675
asbasbasbag56
(g72
g58
NtRp3676
(dp3677
g61
(dp3678
sg70
g3606
sg63
(lp3679
g56
(g77
g58
NtRp3680
(dp3681
g61
(dp3682
g81
g82
ssg70
g3676
sg63
(lp3683
S'Pragma'
p3684
asbag56
(g77
g58
NtRp3685
(dp3686
g61
(dp3687
g88
g89
ssg70
g3676
sg63
(lp3688
S':'
asbag56
(g77
g58
NtRp3689
(dp3690
g61
(dp3691
sg70
g3676
sg63
(lp3692
g56
(g57
g58
NtRp3693
(dp3694
g61
(dp3695
g69
I4
ssg70
g3689
sg63
(lp3696
S'no-cache'
p3697
asbasbasbag56
(g72
g58
NtRp3698
(dp3699
g61
(dp3700
sg70
g3606
sg63
(lp3701
g56
(g77
g58
NtRp3702
(dp3703
g61
(dp3704
g81
g82
ssg70
g3698
sg63
(lp3705
S'X-Powered-By'
p3706
asbag56
(g77
g58
NtRp3707
(dp3708
g61
(dp3709
g88
g89
ssg70
g3698
sg63
(lp3710
S':'
asbag56
(g77
g58
NtRp3711
(dp3712
g61
(dp3713
sg70
g3698
sg63
(lp3714
g56
(g57
g58
NtRp3715
(dp3716
g61
(dp3717
g69
I4
ssg70
g3711
sg63
(lp3718
S'web2py'
p3719
asbasbasbasbasbasbasbag56
(g72
g58
NtRp3720
(dp3721
g61
(dp3722
sg70
g3242
sg63
(lp3723
g56
(g77
g58
NtRp3724
(dp3725
g61
(dp3726
g81
g82
ssg70
g3720
sg63
(lp3727
S'menu'
p3728
asbag56
(g77
g58
NtRp3729
(dp3730
g61
(dp3731
g88
g89
ssg70
g3720
sg63
(lp3732
S':'
asbag56
(g77
g58
NtRp3733
(dp3734
g61
(dp3735
sg70
g3720
sg63
(lp3736
g56
(g57
g58
NtRp3737
(dp3738
g61
(dp3739
g69
I5
ssg70
g3733
sg63
(lp3740
g56
(g65
g58
NtRp3741
(dp3742
g61
(dp3743
g69
I4
ssg70
Nsg63
(lp3744
g56
(g72
g58
NtRp3745
(dp3746
g61
(dp3747
sg70
g3741
sg63
(lp3748
g56
(g77
g58
NtRp3749
(dp3750
g61
(dp3751
sg70
g3745
sg63
(lp3752
g56
(g57
g58
NtRp3753
(dp3754
g61
(dp3755
g69
I4
ssg70
g3749
sg63
(lp3756
g56
(g65
g58
NtRp3757
(dp3758
g61
(dp3759
g69
I3
ssg70
Nsg63
(lp3760
g56
(g72
g58
NtRp3761
(dp3762
g61
(dp3763
sg70
g3757
sg63
(lp3764
g56
(g77
g58
NtRp3765
(dp3766
g61
(dp3767
sg70
g3761
sg63
(lp3768
g56
(g57
g58
NtRp3769
(dp3770
g61
(dp3771
g69
I3
ssg70
g3765
sg63
(lp3772
cgluon.languages
lazyT_unpickle
p3773
(S's\x11\x00\x00\x00Cassandra Manager'
tRp3774
asbasbasbag56
(g72
g58
NtRp3775
(dp3776
g61
(dp3777
sg70
g3757
sg63
(lp3778
g56
(g77
g58
NtRp3779
(dp3780
g61
(dp3781
sg70
g3775
sg63
(lp3782
g56
(g57
g58
NtRp3783
(dp3784
g61
(dp3785
g69
I3
ssg70
g3779
sg63
(lp3786
g1841
asbasbasbag56
(g72
g58
NtRp3787
(dp3788
g61
(dp3789
sg70
g3757
sg63
(lp3790
g56
(g77
g58
NtRp3791
(dp3792
g61
(dp3793
sg70
g3787
sg63
(lp3794
g56
(g57
g58
NtRp3795
(dp3796
g61
(dp3797
g69
I3
ssg70
g3791
sg63
(lp3798
S'/cass1/cass_mgr/index'
p3799
asbasbasbag56
(g72
g58
NtRp3800
(dp3801
g61
(dp3802
sg70
g3757
sg63
(lp3803
g56
(g77
g58
NtRp3804
(dp3805
g61
(dp3806
sg70
g3800
sg63
(lp3807
g56
(g57
g58
NtRp3808
(dp3809
g61
(dp3810
g69
I3
ssg70
g3804
sg63
(lp3811
g56
(g65
g58
NtRp3812
(dp3813
g61
(dp3814
g69
I2
ssg70
Nsg63
(lp3815
sbasbasbasbasbasbasbasbag56
(g72
g58
NtRp3816
(dp3817
g61
(dp3818
sg70
g3741
sg63
(lp3819
g56
(g77
g58
NtRp3820
(dp3821
g61
(dp3822
sg70
g3816
sg63
(lp3823
g56
(g57
g58
NtRp3824
(dp3825
g61
(dp3826
g69
I4
ssg70
g3820
sg63
(lp3827
g56
(g65
g58
NtRp3828
(dp3829
g61
(dp3830
g69
I3
ssg70
Nsg63
(lp3831
g56
(g72
g58
NtRp3832
(dp3833
g61
(dp3834
sg70
g3828
sg63
(lp3835
g56
(g77
g58
NtRp3836
(dp3837
g61
(dp3838
sg70
g3832
sg63
(lp3839
g56
(g57
g58
NtRp3840
(dp3841
g61
(dp3842
g69
I3
ssg70
g3836
sg63
(lp3843
g3773
(S's\x15\x00\x00\x00Cassandra Performance'
tRp3844
asbasbasbag56
(g72
g58
NtRp3845
(dp3846
g61
(dp3847
sg70
g3828
sg63
(lp3848
g56
(g77
g58
NtRp3849
(dp3850
g61
(dp3851
sg70
g3845
sg63
(lp3852
g56
(g57
g58
NtRp3853
(dp3854
g61
(dp3855
g69
I3
ssg70
g3849
sg63
(lp3856
g99
asbasbasbag56
(g72
g58
NtRp3857
(dp3858
g61
(dp3859
sg70
g3828
sg63
(lp3860
g56
(g77
g58
NtRp3861
(dp3862
g61
(dp3863
sg70
g3857
sg63
(lp3864
g56
(g57
g58
NtRp3865
(dp3866
g61
(dp3867
g69
I3
ssg70
g3861
sg63
(lp3868
S'/cass1/default/index'
p3869
asbasbasbag56
(g72
g58
NtRp3870
(dp3871
g61
(dp3872
sg70
g3828
sg63
(lp3873
g56
(g77
g58
NtRp3874
(dp3875
g61
(dp3876
sg70
g3870
sg63
(lp3877
g56
(g57
g58
NtRp3878
(dp3879
g61
(dp3880
g69
I3
ssg70
g3874
sg63
(lp3881
g56
(g65
g58
NtRp3882
(dp3883
g61
(dp3884
g69
I2
ssg70
Nsg63
(lp3885
sbasbasbasbasbasbasbasbag56
(g72
g58
NtRp3886
(dp3887
g61
(dp3888
sg70
g3741
sg63
(lp3889
g56
(g77
g58
NtRp3890
(dp3891
g61
(dp3892
sg70
g3886
sg63
(lp3893
g56
(g57
g58
NtRp3894
(dp3895
g61
(dp3896
g69
I4
ssg70
g3890
sg63
(lp3897
g56
(g65
g58
NtRp3898
(dp3899
g61
(dp3900
g69
I3
ssg70
Nsg63
(lp3901
g56
(g72
g58
NtRp3902
(dp3903
g61
(dp3904
sg70
g3898
sg63
(lp3905
g56
(g77
g58
NtRp3906
(dp3907
g61
(dp3908
sg70
g3902
sg63
(lp3909
g56
(g57
g58
NtRp3910
(dp3911
g61
(dp3912
g69
I3
ssg70
g3906
sg63
(lp3913
g3773
(S's\x13\x00\x00\x00Cassandra Internals'
tRp3914
asbasbasbag56
(g72
g58
NtRp3915
(dp3916
g61
(dp3917
sg70
g3898
sg63
(lp3918
g56
(g77
g58
NtRp3919
(dp3920
g61
(dp3921
sg70
g3915
sg63
(lp3922
g56
(g57
g58
NtRp3923
(dp3924
g61
(dp3925
g69
I3
ssg70
g3919
sg63
(lp3926
g99
asbasbasbag56
(g72
g58
NtRp3927
(dp3928
g61
(dp3929
sg70
g3898
sg63
(lp3930
g56
(g77
g58
NtRp3931
(dp3932
g61
(dp3933
sg70
g3927
sg63
(lp3934
g56
(g57
g58
NtRp3935
(dp3936
g61
(dp3937
g69
I3
ssg70
g3931
sg63
(lp3938
S'/cass1/cass_internals/index'
p3939
asbasbasbag56
(g72
g58
NtRp3940
(dp3941
g61
(dp3942
sg70
g3898
sg63
(lp3943
g56
(g77
g58
NtRp3944
(dp3945
g61
(dp3946
sg70
g3940
sg63
(lp3947
g56
(g57
g58
NtRp3948
(dp3949
g61
(dp3950
g69
I3
ssg70
g3944
sg63
(lp3951
g56
(g65
g58
NtRp3952
(dp3953
g61
(dp3954
g69
I2
ssg70
Nsg63
(lp3955
sbasbasbasbasbasbasbasbag56
(g72
g58
NtRp3956
(dp3957
g61
(dp3958
sg70
g3741
sg63
(lp3959
g56
(g77
g58
NtRp3960
(dp3961
g61
(dp3962
sg70
g3956
sg63
(lp3963
g56
(g57
g58
NtRp3964
(dp3965
g61
(dp3966
g69
I4
ssg70
g3960
sg63
(lp3967
g56
(g65
g58
NtRp3968
(dp3969
g61
(dp3970
g69
I3
ssg70
Nsg63
(lp3971
g56
(g72
g58
NtRp3972
(dp3973
g61
(dp3974
sg70
g3968
sg63
(lp3975
g56
(g77
g58
NtRp3976
(dp3977
g61
(dp3978
sg70
g3972
sg63
(lp3979
g56
(g57
g58
NtRp3980
(dp3981
g61
(dp3982
g69
I3
ssg70
g3976
sg63
(lp3983
g3773
(S's\r\x00\x00\x00MySQL Manager'
tRp3984
asbasbasbag56
(g72
g58
NtRp3985
(dp3986
g61
(dp3987
sg70
g3968
sg63
(lp3988
g56
(g77
g58
NtRp3989
(dp3990
g61
(dp3991
sg70
g3985
sg63
(lp3992
g56
(g57
g58
NtRp3993
(dp3994
g61
(dp3995
g69
I3
ssg70
g3989
sg63
(lp3996
g99
asbasbasbag56
(g72
g58
NtRp3997
(dp3998
g61
(dp3999
sg70
g3968
sg63
(lp4000
g56
(g77
g58
NtRp4001
(dp4002
g61
(dp4003
sg70
g3997
sg63
(lp4004
g56
(g57
g58
NtRp4005
(dp4006
g61
(dp4007
g69
I3
ssg70
g4001
sg63
(lp4008
S'/cass1/internals/index'
p4009
asbasbasbag56
(g72
g58
NtRp4010
(dp4011
g61
(dp4012
sg70
g3968
sg63
(lp4013
g56
(g77
g58
NtRp4014
(dp4015
g61
(dp4016
sg70
g4010
sg63
(lp4017
g56
(g57
g58
NtRp4018
(dp4019
g61
(dp4020
g69
I3
ssg70
g4014
sg63
(lp4021
g56
(g65
g58
NtRp4022
(dp4023
g61
(dp4024
g69
I2
ssg70
Nsg63
(lp4025
sbasbasbasbasbasbasbasbag56
(g72
g58
NtRp4026
(dp4027
g61
(dp4028
sg70
g3741
sg63
(lp4029
g56
(g77
g58
NtRp4030
(dp4031
g61
(dp4032
sg70
g4026
sg63
(lp4033
g56
(g57
g58
NtRp4034
(dp4035
g61
(dp4036
g69
I4
ssg70
g4030
sg63
(lp4037
g56
(g65
g58
NtRp4038
(dp4039
g61
(dp4040
g69
I3
ssg70
Nsg63
(lp4041
g56
(g72
g58
NtRp4042
(dp4043
g61
(dp4044
sg70
g4038
sg63
(lp4045
g56
(g77
g58
NtRp4046
(dp4047
g61
(dp4048
sg70
g4042
sg63
(lp4049
g56
(g57
g58
NtRp4050
(dp4051
g61
(dp4052
g69
I3
ssg70
g4046
sg63
(lp4053
g3773
(S's\x11\x00\x00\x00MySQL Performance'
tRp4054
asbasbasbag56
(g72
g58
NtRp4055
(dp4056
g61
(dp4057
sg70
g4038
sg63
(lp4058
g56
(g77
g58
NtRp4059
(dp4060
g61
(dp4061
sg70
g4055
sg63
(lp4062
g56
(g57
g58
NtRp4063
(dp4064
g61
(dp4065
g69
I3
ssg70
g4059
sg63
(lp4066
g99
asbasbasbag56
(g72
g58
NtRp4067
(dp4068
g61
(dp4069
sg70
g4038
sg63
(lp4070
g56
(g77
g58
NtRp4071
(dp4072
g61
(dp4073
sg70
g4067
sg63
(lp4074
g56
(g57
g58
NtRp4075
(dp4076
g61
(dp4077
g69
I3
ssg70
g4071
sg63
(lp4078
S'/cass1/internals/index'
p4079
asbasbasbag56
(g72
g58
NtRp4080
(dp4081
g61
(dp4082
sg70
g4038
sg63
(lp4083
g56
(g77
g58
NtRp4084
(dp4085
g61
(dp4086
sg70
g4080
sg63
(lp4087
g56
(g57
g58
NtRp4088
(dp4089
g61
(dp4090
g69
I3
ssg70
g4084
sg63
(lp4091
g56
(g65
g58
NtRp4092
(dp4093
g61
(dp4094
g69
I2
ssg70
Nsg63
(lp4095
sbasbasbasbasbasbasbasbasbasbasbasbag56
(g72
g58
NtRp4096
(dp4097
g61
(dp4098
sg70
g3242
sg63
(lp4099
g56
(g77
g58
NtRp4100
(dp4101
g61
(dp4102
g81
g82
ssg70
g4096
sg63
(lp4103
S'meta'
p4104
asbag56
(g77
g58
NtRp4105
(dp4106
g61
(dp4107
g88
g89
ssg70
g4096
sg63
(lp4108
S':'
asbag56
(g77
g58
NtRp4109
(dp4110
g61
(dp4111
sg70
g4096
sg63
(lp4112
g56
(g57
g58
NtRp4113
(dp4114
g61
(dp4115
g69
I5
ssg70
g4109
sg63
(lp4116
g56
(g65
g58
NtRp4117
(dp4118
g61
(dp4119
g69
I4
ssg70
Nsg63
(lp4120
g56
(g72
g58
NtRp4121
(dp4122
g61
(dp4123
sg70
g4117
sg63
(lp4124
g56
(g77
g58
NtRp4125
(dp4126
g61
(dp4127
g81
g82
ssg70
g4121
sg63
(lp4128
S'author'
p4129
asbag56
(g77
g58
NtRp4130
(dp4131
g61
(dp4132
g88
g89
ssg70
g4121
sg63
(lp4133
S':'
asbag56
(g77
g58
NtRp4134
(dp4135
g61
(dp4136
sg70
g4121
sg63
(lp4137
g56
(g57
g58
NtRp4138
(dp4139
g61
(dp4140
g69
I4
ssg70
g4134
sg63
(lp4141
S'chris <chris@cheynes.org>'
p4142
asbasbasbag56
(g72
g58
NtRp4143
(dp4144
g61
(dp4145
sg70
g4117
sg63
(lp4146
g56
(g77
g58
NtRp4147
(dp4148
g61
(dp4149
g81
g82
ssg70
g4143
sg63
(lp4150
S'description'
p4151
asbag56
(g77
g58
NtRp4152
(dp4153
g61
(dp4154
g88
g89
ssg70
g4143
sg63
(lp4155
S':'
asbag56
(g77
g58
NtRp4156
(dp4157
g61
(dp4158
sg70
g4143
sg63
(lp4159
g56
(g57
g58
NtRp4160
(dp4161
g61
(dp4162
g69
I4
ssg70
g4156
sg63
(lp4163
S'Test application 1'
p4164
asbasbasbag56
(g72
g58
NtRp4165
(dp4166
g61
(dp4167
sg70
g4117
sg63
(lp4168
g56
(g77
g58
NtRp4169
(dp4170
g61
(dp4171
g81
g82
ssg70
g4165
sg63
(lp4172
S'keywords'
p4173
asbag56
(g77
g58
NtRp4174
(dp4175
g61
(dp4176
g88
g89
ssg70
g4165
sg63
(lp4177
S':'
asbag56
(g77
g58
NtRp4178
(dp4179
g61
(dp4180
sg70
g4165
sg63
(lp4181
g56
(g57
g58
NtRp4182
(dp4183
g61
(dp4184
g69
I4
ssg70
g4178
sg63
(lp4185
S'cassandra,bigdata,nosql'
p4186
asbasbasbasbasbasbasbag56
(g72
g58
NtRp4187
(dp4188
g61
(dp4189
sg70
g3242
sg63
(lp4190
g56
(g77
g58
NtRp4191
(dp4192
g61
(dp4193
g81
g82
ssg70
g4187
sg63
(lp4194
S'postprocessing'
p4195
asbag56
(g77
g58
NtRp4196
(dp4197
g61
(dp4198
g88
g89
ssg70
g4187
sg63
(lp4199
S':'
asbag56
(g77
g58
NtRp4200
(dp4201
g61
(dp4202
sg70
g4187
sg63
(lp4203
g56
(g57
g58
NtRp4204
(dp4205
g61
(dp4206
g69
I5
ssg70
g4200
sg63
(lp4207
g56
(g65
g58
NtRp4208
(dp4209
g61
(dp4210
g69
I4
ssg70
Nsg63
(lp4211
sbasbasbasbag56
(g72
g58
NtRp4212
(dp4213
g61
(dp4214
sg70
g3242
sg63
(lp4215
g56
(g77
g58
NtRp4216
(dp4217
g61
(dp4218
g81
g82
ssg70
g4212
sg63
(lp4219
S'session_filename'
p4220
asbag56
(g77
g58
NtRp4221
(dp4222
g61
(dp4223
g88
g89
ssg70
g4212
sg63
(lp4224
S':'
asbag56
(g77
g58
NtRp4225
(dp4226
g61
(dp4227
sg70
g4212
sg63
(lp4228
g56
(g57
g58
NtRp4229
(dp4230
g61
(dp4231
g69
I5
ssg70
g4225
sg63
(lp4232
S'/opt/cassandra-dev/PROJECTS/Cassandra-Monitor/src/CassandraMonitor/myinterface/applications/cass1/sessions/127.0.0.1-10def63c-6540-4e3d-b76b-3b1d02b2d66b'
p4233
asbasbasbag56
(g72
g58
NtRp4234
(dp4235
g61
(dp4236
sg70
g3242
sg63
(lp4237
g56
(g77
g58
NtRp4238
(dp4239
g61
(dp4240
g81
g82
ssg70
g4234
sg63
(lp4241
S'session_id'
p4242
asbag56
(g77
g58
NtRp4243
(dp4244
g61
(dp4245
g88
g89
ssg70
g4234
sg63
(lp4246
S':'
asbag56
(g77
g58
NtRp4247
(dp4248
g61
(dp4249
sg70
g4234
sg63
(lp4250
g56
(g57
g58
NtRp4251
(dp4252
g61
(dp4253
g69
I5
ssg70
g4247
sg63
(lp4254
S'127.0.0.1-10def63c-6540-4e3d-b76b-3b1d02b2d66b'
p4255
asbasbasbag56
(g72
g58
NtRp4256
(dp4257
g61
(dp4258
sg70
g3242
sg63
(lp4259
g56
(g77
g58
NtRp4260
(dp4261
g61
(dp4262
g81
g82
ssg70
g4256
sg63
(lp4263
S'session_id_name'
p4264
asbag56
(g77
g58
NtRp4265
(dp4266
g61
(dp4267
g88
g89
ssg70
g4256
sg63
(lp4268
S':'
asbag56
(g77
g58
NtRp4269
(dp4270
g61
(dp4271
sg70
g4256
sg63
(lp4272
g56
(g57
g58
NtRp4273
(dp4274
g61
(dp4275
g69
I5
ssg70
g4269
sg63
(lp4276
g3299
asbasbasbag56
(g72
g58
NtRp4277
(dp4278
g61
(dp4279
sg70
g3242
sg63
(lp4280
g56
(g77
g58
NtRp4281
(dp4282
g61
(dp4283
g81
g82
ssg70
g4277
sg63
(lp4284
S'session_new'
p4285
asbag56
(g77
g58
NtRp4286
(dp4287
g61
(dp4288
g88
g89
ssg70
g4277
sg63
(lp4289
S':'
asbag56
(g77
g58
NtRp4290
(dp4291
g61
(dp4292
sg70
g4277
sg63
(lp4293
g56
(g57
g58
NtRp4294
(dp4295
g61
(dp4296
g69
I5
ssg70
g4290
sg63
(lp4297
g1841
asbasbasbag56
(g72
g58
NtRp4298
(dp4299
g61
(dp4300
sg70
g3242
sg63
(lp4301
g56
(g77
g58
NtRp4302
(dp4303
g61
(dp4304
g81
g82
ssg70
g4298
sg63
(lp4305
S'status'
p4306
asbag56
(g77
g58
NtRp4307
(dp4308
g61
(dp4309
g88
g89
ssg70
g4298
sg63
(lp4310
S':'
asbag56
(g77
g58
NtRp4311
(dp4312
g61
(dp4313
sg70
g4298
sg63
(lp4314
g56
(g57
g58
NtRp4315
(dp4316
g61
(dp4317
g69
I5
ssg70
g4311
sg63
(lp4318
S'200'
p4319
asbasbasbag56
(g72
g58
NtRp4320
(dp4321
g61
(dp4322
sg70
g3242
sg63
(lp4323
g56
(g77
g58
NtRp4324
(dp4325
g61
(dp4326
g81
g82
ssg70
g4320
sg63
(lp4327
S'subtitle'
p4328
asbag56
(g77
g58
NtRp4329
(dp4330
g61
(dp4331
g88
g89
ssg70
g4320
sg63
(lp4332
S':'
asbag56
(g77
g58
NtRp4333
(dp4334
g61
(dp4335
sg70
g4320
sg63
(lp4336
g56
(g57
g58
NtRp4337
(dp4338
g61
(dp4339
g69
I5
ssg70
g4333
sg63
(lp4340
S'/cass1/static/logo.gif'
p4341
asbasbasbag56
(g72
g58
NtRp4342
(dp4343
g61
(dp4344
sg70
g3242
sg63
(lp4345
g56
(g77
g58
NtRp4346
(dp4347
g61
(dp4348
g81
g82
ssg70
g4342
sg63
(lp4349
S'title'
p4350
asbag56
(g77
g58
NtRp4351
(dp4352
g61
(dp4353
g88
g89
ssg70
g4342
sg63
(lp4354
S':'
asbag56
(g77
g58
NtRp4355
(dp4356
g61
(dp4357
sg70
g4342
sg63
(lp4358
g56
(g57
g58
NtRp4359
(dp4360
g61
(dp4361
g69
I5
ssg70
g4355
sg63
(lp4362
S'HEARST UK - Data System 0.0.14a'
p4363
asbasbasbag56
(g72
g58
NtRp4364
(dp4365
g61
(dp4366
sg70
g3242
sg63
(lp4367
g56
(g77
g58
NtRp4368
(dp4369
g61
(dp4370
g81
g82
ssg70
g4364
sg63
(lp4371
g2485
asbag56
(g77
g58
NtRp4372
(dp4373
g61
(dp4374
g88
g89
ssg70
g4364
sg63
(lp4375
S':'
asbag56
(g77
g58
NtRp4376
(dp4377
g61
(dp4378
sg70
g4364
sg63
(lp4379
g56
(g57
g58
NtRp4380
(dp4381
g61
(dp4382
g69
I5
ssg70
g4376
sg63
(lp4383
g2498
asbasbasbag56
(g72
g58
NtRp4384
(dp4385
g61
(dp4386
sg70
g3242
sg63
(lp4387
g56
(g77
g58
NtRp4388
(dp4389
g61
(dp4390
g81
g82
ssg70
g4384
sg63
(lp4391
S'view'
p4392
asbag56
(g77
g58
NtRp4393
(dp4394
g61
(dp4395
g88
g89
ssg70
g4384
sg63
(lp4396
S':'
asbag56
(g77
g58
NtRp4397
(dp4398
g61
(dp4399
sg70
g4384
sg63
(lp4400
g56
(g57
g58
NtRp4401
(dp4402
g61
(dp4403
g69
I5
ssg70
g4397
sg63
(lp4404
S'cass_mgr/index.html'
p4405
asbasbasbasbasbsS'locals'
p4406
(dp4407
S'fromlist'
p4408
S'[]'
p4409
sS'name'
p4410
S"'mydata.data'"
p4411
sg69
S'0'
sS'self'
p4412
S'<gluon.custom_import._Web2pyImporter object>'
p4413
sS'globals'
p4414
S"{'A': <class 'gluon.html.A'>, 'Auth': <class 'gluon.tools.Auth'>, 'B': <class 'gluon.html.B'>, 'BEAUTIFY': <class 'gluon.html.BEAUTIFY'>, 'BODY': <class 'gluon.html.BODY'>, 'BR': <class 'gluon.html.BR'>, 'BUTTON': <class 'gluon.html.BUTTON'>, 'CAT': <class 'gluon.html.CAT'>, 'CENTER': <class 'gluon.html.CENTER'>, 'CLEANUP': <class 'gluon.validators.CLEANUP'>, ...}"
p4415
sg4406
S"{'A': <class 'gluon.html.A'>, 'Auth': <class 'gluon.tools.Auth'>, 'B': <class 'gluon.html.B'>, 'BEAUTIFY': <class 'gluon.html.BEAUTIFY'>, 'BODY': <class 'gluon.html.BODY'>, 'BR': <class 'gluon.html.BR'>, 'BUTTON': <class 'gluon.html.BUTTON'>, 'CAT': <class 'gluon.html.CAT'>, 'CENTER': <class 'gluon.html.CENTER'>, 'CLEANUP': <class 'gluon.validators.CLEANUP'>, ...}"
p4416
sssS'traceback'
p4417
S'Traceback (most recent call last):\n  File "/opt/cassandra-dev/PROJECTS/Cassandra-Monitor/src/CassandraMonitor/myinterface/gluon/restricted.py", line 194, in restricted\n    exec ccode in environment\n  File "/opt/cassandra-dev/PROJECTS/Cassandra-Monitor/src/CassandraMonitor/myinterface/applications/cass1/controllers/cass_mgr.py", line 8, in <module>\n    import mydata.data as d\n  File "/opt/cassandra-dev/PROJECTS/Cassandra-Monitor/src/CassandraMonitor/myinterface/gluon/custom_import.py", line 294, in __call__\n    fromlist, level)\n  File "/opt/cassandra-dev/PROJECTS/Cassandra-Monitor/src/CassandraMonitor/myinterface/gluon/custom_import.py", line 78, in __call__\n    level)\nImportError: No module named mydata.data\n'
p4418
s.