(dp1
S'output'
p2
S''
sS'layer'
p3
S'/opt/cassandra-dev/PROJECTS/Cassandra-Monitor/src/CassandraMonitor/mycassandramanager/myinterface/applications/cass1/controllers/cass_mgr.py'
p4
sS'code'
p5
S'#!/usr/bin/env python\n# -*- coding: utf-8 -*-\n#\n# Licensed under the Apache License, Version 2.0 (the "License"); you may\n# not use this file except in compliance with the License. You may obtain\n# a copy of the License at\n#\n#     http://www.apache.org/licenses/LICENSE-2.0\n#\n# Unless required by applicable law or agreed to in writing, software\n# distributed under the License is distributed on an "AS IS" BASIS, WITHOUT\n# WARRANTIES OR CONDITIONS OF ANY KIND, either express or implied. See the\n# License for the specific language governing permissions and limitations\n# under the License.\n\n# Thu Dec  8 10:11:14 GMT 2011\n"""\nVERY BASIC TEMPORARY TESTING CONTROLLER!!\n"""\n\nfrom __future__ import absolute_import\nimport sys\nsys.path.append("/opt/cassandra-dev/PROJECTS/Cassandra-Monitor/src/CassandraMonitor/mycassandramanager/myinterface/applications/cass1/controllers")\nsys.path.append("/opt/cassandra-dev/PROJECTS/Cassandra-Monitor/src/CassandraMonitor/mycassandramanager/myinterface/applications/cass1/controllers/mydata")\n\nimport mydata.data as d\nimport networkx  as nx\n\ndef index():\n    data = d.MyData()\n    myjmx = data.mydict()\n    session.counter = (session.counter or 0) + 1\n    return dict(myjmx,message="Cass Manager",counter=session.counter)\n\ndef first():\n    return dict()\n\ndef second():\n    return dict()\n\ndef clusteroverview():\n    """ draw the cluster overview """\n    G=nx.Graph(cluster="ring0live")\n    G.add_node(1)\n    G.add_nodes_from([2,3])\n    H=nx.path_graph(10)\n    G.add_nodes_from(H)\n    G.add_node(H)\n    G.add_edge(1,2)\n    e=(2,3)\n    G.add_edge(*e)\n    nx.draw(G)\n    plt.show()\n\n    return object(G)\n\nif __name__ == \'__main__\':\n    data = d.MyData()\n    myjmx = data.mydict()\n    d = dict(myjmx)\n    print d\n\n\n\nresponse._vars=response._caller(clusteroverview)\n'
p6
sS'snapshot'
p7
(dp8
S'exception'
p9
(dp10
S'__hash__'
p11
S"<method-wrapper '__hash__' of exceptions.NameError object>"
p12
sS'__setattr__'
p13
S"<method-wrapper '__setattr__' of exceptions.NameError object>"
p14
sS'__reduce_ex__'
p15
S'<built-in method __reduce_ex__ of exceptions.NameError object>'
p16
sS'__getslice__'
p17
S"<method-wrapper '__getslice__' of exceptions.NameError object>"
p18
sS'__getitem__'
p19
S"<method-wrapper '__getitem__' of exceptions.NameError object>"
p20
sS'__setstate__'
p21
S'<built-in method __setstate__ of exceptions.NameError object>'
p22
sS'args'
p23
S'("global name \'plt\' is not defined",)'
p24
sS'__reduce__'
p25
S'<built-in method __reduce__ of exceptions.NameError object>'
p26
sS'__str__'
p27
S"<method-wrapper '__str__' of exceptions.NameError object>"
p28
sS'__format__'
p29
S'<built-in method __format__ of exceptions.NameError object>'
p30
sS'__getattribute__'
p31
S"<method-wrapper '__getattribute__' of exceptions.NameError object>"
p32
sS'__class__'
p33
S"<type 'exceptions.NameError'>"
p34
sS'__unicode__'
p35
S'<built-in method __unicode__ of exceptions.NameError object>'
p36
sS'__delattr__'
p37
S"<method-wrapper '__delattr__' of exceptions.NameError object>"
p38
sS'__subclasshook__'
p39
S'<built-in method __subclasshook__ of type object>'
p40
sS'__repr__'
p41
S"<method-wrapper '__repr__' of exceptions.NameError object>"
p42
sS'__dict__'
p43
S'{}'
p44
sS'__sizeof__'
p45
S'<built-in method __sizeof__ of exceptions.NameError object>'
p46
sS'__doc__'
p47
S"'Name not found globally.'"
p48
sS'__init__'
p49
S"<method-wrapper '__init__' of exceptions.NameError object>"
p50
sS'__new__'
p51
S'<built-in method __new__ of type object>'
p52
ssS'evalue'
p53
S"global name 'plt' is not defined"
p54
sS'request'
p55
ccopy_reg
_reconstructor
p56
(cgluon.html
BEAUTIFY
p57
c__builtin__
object
p58
NtRp59
(dp60
S'attributes'
p61
(dp62
sS'components'
p63
(lp64
g56
(cgluon.html
TABLE
p65
g58
NtRp66
(dp67
g61
(dp68
S'level'
p69
I5
ssS'parent'
p70
Nsg63
(lp71
g56
(cgluon.html
TR
p72
g58
NtRp73
(dp74
g61
(dp75
sg70
g66
sg63
(lp76
g56
(cgluon.html
TD
p77
g58
NtRp78
(dp79
g61
(dp80
S'_style'
p81
S'font-weight:bold;'
p82
ssg70
g73
sg63
(lp83
S'ajax'
p84
asbag56
(g77
g58
NtRp85
(dp86
g61
(dp87
S'_valign'
p88
S'top'
p89
ssg70
g73
sg63
(lp90
S':'
asbag56
(g77
g58
NtRp91
(dp92
g61
(dp93
sg70
g73
sg63
(lp94
g56
(g57
g58
NtRp95
(dp96
g61
(dp97
g69
I5
ssg70
g91
sg63
(lp98
S'False'
p99
asbasbasbag56
(g72
g58
NtRp100
(dp101
g61
(dp102
sg70
g66
sg63
(lp103
g56
(g77
g58
NtRp104
(dp105
g61
(dp106
g81
g82
ssg70
g100
sg63
(lp107
S'application'
p108
asbag56
(g77
g58
NtRp109
(dp110
g61
(dp111
g88
g89
ssg70
g100
sg63
(lp112
S':'
asbag56
(g77
g58
NtRp113
(dp114
g61
(dp115
sg70
g100
sg63
(lp116
g56
(g57
g58
NtRp117
(dp118
g61
(dp119
g69
I5
ssg70
g113
sg63
(lp120
S'cass1'
p121
asbasbasbag56
(g72
g58
NtRp122
(dp123
g61
(dp124
sg70
g66
sg63
(lp125
g56
(g77
g58
NtRp126
(dp127
g61
(dp128
g81
g82
ssg70
g122
sg63
(lp129
g23
asbag56
(g77
g58
NtRp130
(dp131
g61
(dp132
g88
g89
ssg70
g122
sg63
(lp133
S':'
asbag56
(g77
g58
NtRp134
(dp135
g61
(dp136
sg70
g122
sg63
(lp137
g56
(g57
g58
NtRp138
(dp139
g61
(dp140
g69
I5
ssg70
g134
sg63
(lp141
g56
(g65
g58
NtRp142
(dp143
g61
(dp144
g69
I4
ssg70
Nsg63
(lp145
sbasbasbasbag56
(g72
g58
NtRp146
(dp147
g61
(dp148
sg70
g66
sg63
(lp149
g56
(g77
g58
NtRp150
(dp151
g61
(dp152
g81
g82
ssg70
g146
sg63
(lp153
S'body'
p154
asbag56
(g77
g58
NtRp155
(dp156
g61
(dp157
g88
g89
ssg70
g146
sg63
(lp158
S':'
asbag56
(g77
g58
NtRp159
(dp160
g61
(dp161
sg70
g146
sg63
(lp162
g56
(g57
g58
NtRp163
(dp164
g61
(dp165
g69
I5
ssg70
g159
sg63
(lp166
S'<cStringIO.StringO object at 0x3324030>'
p167
asbasbasbag56
(g72
g58
NtRp168
(dp169
g61
(dp170
sg70
g66
sg63
(lp171
g56
(g77
g58
NtRp172
(dp173
g61
(dp174
g81
g82
ssg70
g168
sg63
(lp175
S'client'
p176
asbag56
(g77
g58
NtRp177
(dp178
g61
(dp179
g88
g89
ssg70
g168
sg63
(lp180
S':'
asbag56
(g77
g58
NtRp181
(dp182
g61
(dp183
sg70
g168
sg63
(lp184
g56
(g57
g58
NtRp185
(dp186
g61
(dp187
g69
I5
ssg70
g181
sg63
(lp188
S'127.0.0.1'
p189
asbasbasbag56
(g72
g58
NtRp190
(dp191
g61
(dp192
sg70
g66
sg63
(lp193
g56
(g77
g58
NtRp194
(dp195
g61
(dp196
g81
g82
ssg70
g190
sg63
(lp197
S'controller'
p198
asbag56
(g77
g58
NtRp199
(dp200
g61
(dp201
g88
g89
ssg70
g190
sg63
(lp202
S':'
asbag56
(g77
g58
NtRp203
(dp204
g61
(dp205
sg70
g190
sg63
(lp206
g56
(g57
g58
NtRp207
(dp208
g61
(dp209
g69
I5
ssg70
g203
sg63
(lp210
S'cass_mgr'
p211
asbasbasbag56
(g72
g58
NtRp212
(dp213
g61
(dp214
sg70
g66
sg63
(lp215
g56
(g77
g58
NtRp216
(dp217
g61
(dp218
g81
g82
ssg70
g212
sg63
(lp219
S'cookies'
p220
asbag56
(g77
g58
NtRp221
(dp222
g61
(dp223
g88
g89
ssg70
g212
sg63
(lp224
S':'
asbag56
(g77
g58
NtRp225
(dp226
g61
(dp227
sg70
g212
sg63
(lp228
g56
(g57
g58
NtRp229
(dp230
g61
(dp231
g69
I5
ssg70
g225
sg63
(lp232
g56
(g65
g58
NtRp233
(dp234
g61
(dp235
g69
I4
ssg70
Nsg63
(lp236
g56
(g72
g58
NtRp237
(dp238
g61
(dp239
sg70
g233
sg63
(lp240
g56
(g77
g58
NtRp241
(dp242
g61
(dp243
g81
g82
ssg70
g237
sg63
(lp244
S'session_id_admin'
p245
asbag56
(g77
g58
NtRp246
(dp247
g61
(dp248
g88
g89
ssg70
g237
sg63
(lp249
S':'
asbag56
(g77
g58
NtRp250
(dp251
g61
(dp252
sg70
g237
sg63
(lp253
g56
(g57
g58
NtRp254
(dp255
g61
(dp256
g69
I4
ssg70
g250
sg63
(lp257
g56
(g65
g58
NtRp258
(dp259
g61
(dp260
g69
I3
ssg70
Nsg63
(lp261
g56
(g72
g58
NtRp262
(dp263
g61
(dp264
sg70
g258
sg63
(lp265
g56
(g77
g58
NtRp266
(dp267
g61
(dp268
g81
g82
ssg70
g262
sg63
(lp269
S'comment'
p270
asbag56
(g77
g58
NtRp271
(dp272
g61
(dp273
g88
g89
ssg70
g262
sg63
(lp274
S':'
asbag56
(g77
g58
NtRp275
(dp276
g61
(dp277
sg70
g262
sg63
(lp278
g56
(g57
g58
NtRp279
(dp280
g61
(dp281
g69
I3
ssg70
g275
sg63
(lp282
S''
asbasbasbag56
(g72
g58
NtRp283
(dp284
g61
(dp285
sg70
g258
sg63
(lp286
g56
(g77
g58
NtRp287
(dp288
g61
(dp289
g81
g82
ssg70
g283
sg63
(lp290
S'domain'
p291
asbag56
(g77
g58
NtRp292
(dp293
g61
(dp294
g88
g89
ssg70
g283
sg63
(lp295
S':'
asbag56
(g77
g58
NtRp296
(dp297
g61
(dp298
sg70
g283
sg63
(lp299
g56
(g57
g58
NtRp300
(dp301
g61
(dp302
g69
I3
ssg70
g296
sg63
(lp303
S''
asbasbasbag56
(g72
g58
NtRp304
(dp305
g61
(dp306
sg70
g258
sg63
(lp307
g56
(g77
g58
NtRp308
(dp309
g61
(dp310
g81
g82
ssg70
g304
sg63
(lp311
S'expires'
p312
asbag56
(g77
g58
NtRp313
(dp314
g61
(dp315
g88
g89
ssg70
g304
sg63
(lp316
S':'
asbag56
(g77
g58
NtRp317
(dp318
g61
(dp319
sg70
g304
sg63
(lp320
g56
(g57
g58
NtRp321
(dp322
g61
(dp323
g69
I3
ssg70
g317
sg63
(lp324
S''
asbasbasbag56
(g72
g58
NtRp325
(dp326
g61
(dp327
sg70
g258
sg63
(lp328
g56
(g77
g58
NtRp329
(dp330
g61
(dp331
g81
g82
ssg70
g325
sg63
(lp332
S'httponly'
p333
asbag56
(g77
g58
NtRp334
(dp335
g61
(dp336
g88
g89
ssg70
g325
sg63
(lp337
S':'
asbag56
(g77
g58
NtRp338
(dp339
g61
(dp340
sg70
g325
sg63
(lp341
g56
(g57
g58
NtRp342
(dp343
g61
(dp344
g69
I3
ssg70
g338
sg63
(lp345
S''
asbasbasbag56
(g72
g58
NtRp346
(dp347
g61
(dp348
sg70
g258
sg63
(lp349
g56
(g77
g58
NtRp350
(dp351
g61
(dp352
g81
g82
ssg70
g346
sg63
(lp353
S'max-age'
p354
asbag56
(g77
g58
NtRp355
(dp356
g61
(dp357
g88
g89
ssg70
g346
sg63
(lp358
S':'
asbag56
(g77
g58
NtRp359
(dp360
g61
(dp361
sg70
g346
sg63
(lp362
g56
(g57
g58
NtRp363
(dp364
g61
(dp365
g69
I3
ssg70
g359
sg63
(lp366
S''
asbasbasbag56
(g72
g58
NtRp367
(dp368
g61
(dp369
sg70
g258
sg63
(lp370
g56
(g77
g58
NtRp371
(dp372
g61
(dp373
g81
g82
ssg70
g367
sg63
(lp374
S'path'
p375
asbag56
(g77
g58
NtRp376
(dp377
g61
(dp378
g88
g89
ssg70
g367
sg63
(lp379
S':'
asbag56
(g77
g58
NtRp380
(dp381
g61
(dp382
sg70
g367
sg63
(lp383
g56
(g57
g58
NtRp384
(dp385
g61
(dp386
g69
I3
ssg70
g380
sg63
(lp387
S''
asbasbasbag56
(g72
g58
NtRp388
(dp389
g61
(dp390
sg70
g258
sg63
(lp391
g56
(g77
g58
NtRp392
(dp393
g61
(dp394
g81
g82
ssg70
g388
sg63
(lp395
S'secure'
p396
asbag56
(g77
g58
NtRp397
(dp398
g61
(dp399
g88
g89
ssg70
g388
sg63
(lp400
S':'
asbag56
(g77
g58
NtRp401
(dp402
g61
(dp403
sg70
g388
sg63
(lp404
g56
(g57
g58
NtRp405
(dp406
g61
(dp407
g69
I3
ssg70
g401
sg63
(lp408
S''
asbasbasbag56
(g72
g58
NtRp409
(dp410
g61
(dp411
sg70
g258
sg63
(lp412
g56
(g77
g58
NtRp413
(dp414
g61
(dp415
g81
g82
ssg70
g409
sg63
(lp416
S'version'
p417
asbag56
(g77
g58
NtRp418
(dp419
g61
(dp420
g88
g89
ssg70
g409
sg63
(lp421
S':'
asbag56
(g77
g58
NtRp422
(dp423
g61
(dp424
sg70
g409
sg63
(lp425
g56
(g57
g58
NtRp426
(dp427
g61
(dp428
g69
I3
ssg70
g422
sg63
(lp429
S''
asbasbasbasbasbasbasbag56
(g72
g58
NtRp430
(dp431
g61
(dp432
sg70
g233
sg63
(lp433
g56
(g77
g58
NtRp434
(dp435
g61
(dp436
g81
g82
ssg70
g430
sg63
(lp437
S'session_id_cass1'
p438
asbag56
(g77
g58
NtRp439
(dp440
g61
(dp441
g88
g89
ssg70
g430
sg63
(lp442
S':'
asbag56
(g77
g58
NtRp443
(dp444
g61
(dp445
sg70
g430
sg63
(lp446
g56
(g57
g58
NtRp447
(dp448
g61
(dp449
g69
I4
ssg70
g443
sg63
(lp450
g56
(g65
g58
NtRp451
(dp452
g61
(dp453
g69
I3
ssg70
Nsg63
(lp454
g56
(g72
g58
NtRp455
(dp456
g61
(dp457
sg70
g451
sg63
(lp458
g56
(g77
g58
NtRp459
(dp460
g61
(dp461
g81
g82
ssg70
g455
sg63
(lp462
g270
asbag56
(g77
g58
NtRp463
(dp464
g61
(dp465
g88
g89
ssg70
g455
sg63
(lp466
S':'
asbag56
(g77
g58
NtRp467
(dp468
g61
(dp469
sg70
g455
sg63
(lp470
g56
(g57
g58
NtRp471
(dp472
g61
(dp473
g69
I3
ssg70
g467
sg63
(lp474
S''
asbasbasbag56
(g72
g58
NtRp475
(dp476
g61
(dp477
sg70
g451
sg63
(lp478
g56
(g77
g58
NtRp479
(dp480
g61
(dp481
g81
g82
ssg70
g475
sg63
(lp482
g291
asbag56
(g77
g58
NtRp483
(dp484
g61
(dp485
g88
g89
ssg70
g475
sg63
(lp486
S':'
asbag56
(g77
g58
NtRp487
(dp488
g61
(dp489
sg70
g475
sg63
(lp490
g56
(g57
g58
NtRp491
(dp492
g61
(dp493
g69
I3
ssg70
g487
sg63
(lp494
S''
asbasbasbag56
(g72
g58
NtRp495
(dp496
g61
(dp497
sg70
g451
sg63
(lp498
g56
(g77
g58
NtRp499
(dp500
g61
(dp501
g81
g82
ssg70
g495
sg63
(lp502
g312
asbag56
(g77
g58
NtRp503
(dp504
g61
(dp505
g88
g89
ssg70
g495
sg63
(lp506
S':'
asbag56
(g77
g58
NtRp507
(dp508
g61
(dp509
sg70
g495
sg63
(lp510
g56
(g57
g58
NtRp511
(dp512
g61
(dp513
g69
I3
ssg70
g507
sg63
(lp514
S''
asbasbasbag56
(g72
g58
NtRp515
(dp516
g61
(dp517
sg70
g451
sg63
(lp518
g56
(g77
g58
NtRp519
(dp520
g61
(dp521
g81
g82
ssg70
g515
sg63
(lp522
g333
asbag56
(g77
g58
NtRp523
(dp524
g61
(dp525
g88
g89
ssg70
g515
sg63
(lp526
S':'
asbag56
(g77
g58
NtRp527
(dp528
g61
(dp529
sg70
g515
sg63
(lp530
g56
(g57
g58
NtRp531
(dp532
g61
(dp533
g69
I3
ssg70
g527
sg63
(lp534
S''
asbasbasbag56
(g72
g58
NtRp535
(dp536
g61
(dp537
sg70
g451
sg63
(lp538
g56
(g77
g58
NtRp539
(dp540
g61
(dp541
g81
g82
ssg70
g535
sg63
(lp542
g354
asbag56
(g77
g58
NtRp543
(dp544
g61
(dp545
g88
g89
ssg70
g535
sg63
(lp546
S':'
asbag56
(g77
g58
NtRp547
(dp548
g61
(dp549
sg70
g535
sg63
(lp550
g56
(g57
g58
NtRp551
(dp552
g61
(dp553
g69
I3
ssg70
g547
sg63
(lp554
S''
asbasbasbag56
(g72
g58
NtRp555
(dp556
g61
(dp557
sg70
g451
sg63
(lp558
g56
(g77
g58
NtRp559
(dp560
g61
(dp561
g81
g82
ssg70
g555
sg63
(lp562
g375
asbag56
(g77
g58
NtRp563
(dp564
g61
(dp565
g88
g89
ssg70
g555
sg63
(lp566
S':'
asbag56
(g77
g58
NtRp567
(dp568
g61
(dp569
sg70
g555
sg63
(lp570
g56
(g57
g58
NtRp571
(dp572
g61
(dp573
g69
I3
ssg70
g567
sg63
(lp574
S''
asbasbasbag56
(g72
g58
NtRp575
(dp576
g61
(dp577
sg70
g451
sg63
(lp578
g56
(g77
g58
NtRp579
(dp580
g61
(dp581
g81
g82
ssg70
g575
sg63
(lp582
g396
asbag56
(g77
g58
NtRp583
(dp584
g61
(dp585
g88
g89
ssg70
g575
sg63
(lp586
S':'
asbag56
(g77
g58
NtRp587
(dp588
g61
(dp589
sg70
g575
sg63
(lp590
g56
(g57
g58
NtRp591
(dp592
g61
(dp593
g69
I3
ssg70
g587
sg63
(lp594
S''
asbasbasbag56
(g72
g58
NtRp595
(dp596
g61
(dp597
sg70
g451
sg63
(lp598
g56
(g77
g58
NtRp599
(dp600
g61
(dp601
g81
g82
ssg70
g595
sg63
(lp602
g417
asbag56
(g77
g58
NtRp603
(dp604
g61
(dp605
g88
g89
ssg70
g595
sg63
(lp606
S':'
asbag56
(g77
g58
NtRp607
(dp608
g61
(dp609
sg70
g595
sg63
(lp610
g56
(g57
g58
NtRp611
(dp612
g61
(dp613
g69
I3
ssg70
g607
sg63
(lp614
S''
asbasbasbasbasbasbasbag56
(g72
g58
NtRp615
(dp616
g61
(dp617
sg70
g233
sg63
(lp618
g56
(g77
g58
NtRp619
(dp620
g61
(dp621
g81
g82
ssg70
g615
sg63
(lp622
S'session_id_welcome'
p623
asbag56
(g77
g58
NtRp624
(dp625
g61
(dp626
g88
g89
ssg70
g615
sg63
(lp627
S':'
asbag56
(g77
g58
NtRp628
(dp629
g61
(dp630
sg70
g615
sg63
(lp631
g56
(g57
g58
NtRp632
(dp633
g61
(dp634
g69
I4
ssg70
g628
sg63
(lp635
g56
(g65
g58
NtRp636
(dp637
g61
(dp638
g69
I3
ssg70
Nsg63
(lp639
g56
(g72
g58
NtRp640
(dp641
g61
(dp642
sg70
g636
sg63
(lp643
g56
(g77
g58
NtRp644
(dp645
g61
(dp646
g81
g82
ssg70
g640
sg63
(lp647
g270
asbag56
(g77
g58
NtRp648
(dp649
g61
(dp650
g88
g89
ssg70
g640
sg63
(lp651
S':'
asbag56
(g77
g58
NtRp652
(dp653
g61
(dp654
sg70
g640
sg63
(lp655
g56
(g57
g58
NtRp656
(dp657
g61
(dp658
g69
I3
ssg70
g652
sg63
(lp659
S''
asbasbasbag56
(g72
g58
NtRp660
(dp661
g61
(dp662
sg70
g636
sg63
(lp663
g56
(g77
g58
NtRp664
(dp665
g61
(dp666
g81
g82
ssg70
g660
sg63
(lp667
g291
asbag56
(g77
g58
NtRp668
(dp669
g61
(dp670
g88
g89
ssg70
g660
sg63
(lp671
S':'
asbag56
(g77
g58
NtRp672
(dp673
g61
(dp674
sg70
g660
sg63
(lp675
g56
(g57
g58
NtRp676
(dp677
g61
(dp678
g69
I3
ssg70
g672
sg63
(lp679
S''
asbasbasbag56
(g72
g58
NtRp680
(dp681
g61
(dp682
sg70
g636
sg63
(lp683
g56
(g77
g58
NtRp684
(dp685
g61
(dp686
g81
g82
ssg70
g680
sg63
(lp687
g312
asbag56
(g77
g58
NtRp688
(dp689
g61
(dp690
g88
g89
ssg70
g680
sg63
(lp691
S':'
asbag56
(g77
g58
NtRp692
(dp693
g61
(dp694
sg70
g680
sg63
(lp695
g56
(g57
g58
NtRp696
(dp697
g61
(dp698
g69
I3
ssg70
g692
sg63
(lp699
S''
asbasbasbag56
(g72
g58
NtRp700
(dp701
g61
(dp702
sg70
g636
sg63
(lp703
g56
(g77
g58
NtRp704
(dp705
g61
(dp706
g81
g82
ssg70
g700
sg63
(lp707
g333
asbag56
(g77
g58
NtRp708
(dp709
g61
(dp710
g88
g89
ssg70
g700
sg63
(lp711
S':'
asbag56
(g77
g58
NtRp712
(dp713
g61
(dp714
sg70
g700
sg63
(lp715
g56
(g57
g58
NtRp716
(dp717
g61
(dp718
g69
I3
ssg70
g712
sg63
(lp719
S''
asbasbasbag56
(g72
g58
NtRp720
(dp721
g61
(dp722
sg70
g636
sg63
(lp723
g56
(g77
g58
NtRp724
(dp725
g61
(dp726
g81
g82
ssg70
g720
sg63
(lp727
g354
asbag56
(g77
g58
NtRp728
(dp729
g61
(dp730
g88
g89
ssg70
g720
sg63
(lp731
S':'
asbag56
(g77
g58
NtRp732
(dp733
g61
(dp734
sg70
g720
sg63
(lp735
g56
(g57
g58
NtRp736
(dp737
g61
(dp738
g69
I3
ssg70
g732
sg63
(lp739
S''
asbasbasbag56
(g72
g58
NtRp740
(dp741
g61
(dp742
sg70
g636
sg63
(lp743
g56
(g77
g58
NtRp744
(dp745
g61
(dp746
g81
g82
ssg70
g740
sg63
(lp747
g375
asbag56
(g77
g58
NtRp748
(dp749
g61
(dp750
g88
g89
ssg70
g740
sg63
(lp751
S':'
asbag56
(g77
g58
NtRp752
(dp753
g61
(dp754
sg70
g740
sg63
(lp755
g56
(g57
g58
NtRp756
(dp757
g61
(dp758
g69
I3
ssg70
g752
sg63
(lp759
S''
asbasbasbag56
(g72
g58
NtRp760
(dp761
g61
(dp762
sg70
g636
sg63
(lp763
g56
(g77
g58
NtRp764
(dp765
g61
(dp766
g81
g82
ssg70
g760
sg63
(lp767
g396
asbag56
(g77
g58
NtRp768
(dp769
g61
(dp770
g88
g89
ssg70
g760
sg63
(lp771
S':'
asbag56
(g77
g58
NtRp772
(dp773
g61
(dp774
sg70
g760
sg63
(lp775
g56
(g57
g58
NtRp776
(dp777
g61
(dp778
g69
I3
ssg70
g772
sg63
(lp779
S''
asbasbasbag56
(g72
g58
NtRp780
(dp781
g61
(dp782
sg70
g636
sg63
(lp783
g56
(g77
g58
NtRp784
(dp785
g61
(dp786
g81
g82
ssg70
g780
sg63
(lp787
g417
asbag56
(g77
g58
NtRp788
(dp789
g61
(dp790
g88
g89
ssg70
g780
sg63
(lp791
S':'
asbag56
(g77
g58
NtRp792
(dp793
g61
(dp794
sg70
g780
sg63
(lp795
g56
(g57
g58
NtRp796
(dp797
g61
(dp798
g69
I3
ssg70
g792
sg63
(lp799
S''
asbasbasbasbasbasbasbasbasbasbasbag56
(g72
g58
NtRp800
(dp801
g61
(dp802
sg70
g66
sg63
(lp803
g56
(g77
g58
NtRp804
(dp805
g61
(dp806
g81
g82
ssg70
g800
sg63
(lp807
S'env'
p808
asbag56
(g77
g58
NtRp809
(dp810
g61
(dp811
g88
g89
ssg70
g800
sg63
(lp812
S':'
asbag56
(g77
g58
NtRp813
(dp814
g61
(dp815
sg70
g800
sg63
(lp816
g56
(g57
g58
NtRp817
(dp818
g61
(dp819
g69
I5
ssg70
g813
sg63
(lp820
g56
(g65
g58
NtRp821
(dp822
g61
(dp823
g69
I4
ssg70
Nsg63
(lp824
g56
(g72
g58
NtRp825
(dp826
g61
(dp827
sg70
g821
sg63
(lp828
g56
(g77
g58
NtRp829
(dp830
g61
(dp831
g81
g82
ssg70
g825
sg63
(lp832
S'app_folders'
p833
asbag56
(g77
g58
NtRp834
(dp835
g61
(dp836
g88
g89
ssg70
g825
sg63
(lp837
S':'
asbag56
(g77
g58
NtRp838
(dp839
g61
(dp840
sg70
g825
sg63
(lp841
g56
(g57
g58
NtRp842
(dp843
g61
(dp844
g69
I4
ssg70
g838
sg63
(lp845
S"set(['/opt/cassandra-dev/PROJECTS/Cassandra-Monitor/src/CassandraMonitor/mycassandramanager/myinterface/applications/admin/', '/opt/cassandra-dev/PROJECTS/Cassandra-Monitor/src/CassandraMonitor/mycassandramanager/myinterface/applications/cass1/'])"
p846
asbasbasbag56
(g72
g58
NtRp847
(dp848
g61
(dp849
sg70
g821
sg63
(lp850
g56
(g77
g58
NtRp851
(dp852
g61
(dp853
g81
g82
ssg70
g847
sg63
(lp854
S'applications_parent'
p855
asbag56
(g77
g58
NtRp856
(dp857
g61
(dp858
g88
g89
ssg70
g847
sg63
(lp859
S':'
asbag56
(g77
g58
NtRp860
(dp861
g61
(dp862
sg70
g847
sg63
(lp863
g56
(g57
g58
NtRp864
(dp865
g61
(dp866
g69
I4
ssg70
g860
sg63
(lp867
S'/opt/cassandra-dev/PROJECTS/Cassandra-Monitor/src/CassandraMonitor/mycassandramanager/myinterface'
p868
asbasbasbag56
(g72
g58
NtRp869
(dp870
g61
(dp871
sg70
g821
sg63
(lp872
g56
(g77
g58
NtRp873
(dp874
g61
(dp875
g81
g82
ssg70
g869
sg63
(lp876
S'cmd_args'
p877
asbag56
(g77
g58
NtRp878
(dp879
g61
(dp880
g88
g89
ssg70
g869
sg63
(lp881
S':'
asbag56
(g77
g58
NtRp882
(dp883
g61
(dp884
sg70
g869
sg63
(lp885
g56
(g57
g58
NtRp886
(dp887
g61
(dp888
g69
I4
ssg70
g882
sg63
(lp889
g56
(g65
g58
NtRp890
(dp891
g61
(dp892
g69
I3
ssg70
Nsg63
(lp893
sbasbasbasbag56
(g72
g58
NtRp894
(dp895
g61
(dp896
sg70
g821
sg63
(lp897
g56
(g77
g58
NtRp898
(dp899
g61
(dp900
g81
g82
ssg70
g894
sg63
(lp901
S'cmd_options'
p902
asbag56
(g77
g58
NtRp903
(dp904
g61
(dp905
g88
g89
ssg70
g894
sg63
(lp906
S':'
asbag56
(g77
g58
NtRp907
(dp908
g61
(dp909
sg70
g894
sg63
(lp910
g56
(g57
g58
NtRp911
(dp912
g61
(dp913
g69
I4
ssg70
g907
sg63
(lp914
S"<Values at 0x17d4098: {'verbose': False, 'ip': '127.0.0.1', 'shutdown_timeout': 5, 'taskbar': False, 'nocron': False, 'pid_filename': 'httpserver.pid', 'maxthreads': None, 'softcron': False, 'server_name': 'CASR1-VM10-DEV', 'bpython': False, 'nogui': False, 'port': 8000, 'extcron': False, 'debuglevel': 30, 'test': None, 'folder': '/opt/cassandra-dev/PROJECTS/Cassandra-Monitor/src/CassandraMonitor/mycassandramanager/myinterface', 'config': '', 'import_models': False, 'winservice': '', 'shell': None, 'run': '', 'log_filename': 'httpserver.log', 'args': [''], 'ssl_ca_certificate': None, 'scheduler': None, 'profiler_filename': None, 'ssl_private_key': '', 'password': 'testing', 'request_queue_size': 5, 'ssl_certificate': '', 'cronjob': False, 'plain': False, 'quiet': False, 'interfaces': None, 'minthreads': None, 'timeout': 10, 'numthreads': None, 'nobanner': False}>"
p915
asbasbasbag56
(g72
g58
NtRp916
(dp917
g61
(dp918
sg70
g821
sg63
(lp919
g56
(g77
g58
NtRp920
(dp921
g61
(dp922
g81
g82
ssg70
g916
sg63
(lp923
S'db_sessions'
p924
asbag56
(g77
g58
NtRp925
(dp926
g61
(dp927
g88
g89
ssg70
g916
sg63
(lp928
S':'
asbag56
(g77
g58
NtRp929
(dp930
g61
(dp931
sg70
g916
sg63
(lp932
g56
(g57
g58
NtRp933
(dp934
g61
(dp935
g69
I4
ssg70
g929
sg63
(lp936
S'set([])'
p937
asbasbasbag56
(g72
g58
NtRp938
(dp939
g61
(dp940
sg70
g821
sg63
(lp941
g56
(g77
g58
NtRp942
(dp943
g61
(dp944
g81
g82
ssg70
g938
sg63
(lp945
S'debugging'
p946
asbag56
(g77
g58
NtRp947
(dp948
g61
(dp949
g88
g89
ssg70
g938
sg63
(lp950
S':'
asbag56
(g77
g58
NtRp951
(dp952
g61
(dp953
sg70
g938
sg63
(lp954
g56
(g57
g58
NtRp955
(dp956
g61
(dp957
g69
I4
ssg70
g951
sg63
(lp958
g99
asbasbasbag56
(g72
g58
NtRp959
(dp960
g61
(dp961
sg70
g821
sg63
(lp962
g56
(g77
g58
NtRp963
(dp964
g61
(dp965
g81
g82
ssg70
g959
sg63
(lp966
S'gluon_parent'
p967
asbag56
(g77
g58
NtRp968
(dp969
g61
(dp970
g88
g89
ssg70
g959
sg63
(lp971
S':'
asbag56
(g77
g58
NtRp972
(dp973
g61
(dp974
sg70
g959
sg63
(lp975
g56
(g57
g58
NtRp976
(dp977
g61
(dp978
g69
I4
ssg70
g972
sg63
(lp979
S'/opt/cassandra-dev/PROJECTS/Cassandra-Monitor/src/CassandraMonitor/mycassandramanager/myinterface'
p980
asbasbasbag56
(g72
g58
NtRp981
(dp982
g61
(dp983
sg70
g821
sg63
(lp984
g56
(g77
g58
NtRp985
(dp986
g61
(dp987
g81
g82
ssg70
g981
sg63
(lp988
S'http_accept'
p989
asbag56
(g77
g58
NtRp990
(dp991
g61
(dp992
g88
g89
ssg70
g981
sg63
(lp993
S':'
asbag56
(g77
g58
NtRp994
(dp995
g61
(dp996
sg70
g981
sg63
(lp997
g56
(g57
g58
NtRp998
(dp999
g61
(dp1000
g69
I4
ssg70
g994
sg63
(lp1001
S'text/html,application/xhtml+xml,application/xml;q=0.9,*/*;q=0.8'
p1002
asbasbasbag56
(g72
g58
NtRp1003
(dp1004
g61
(dp1005
sg70
g821
sg63
(lp1006
g56
(g77
g58
NtRp1007
(dp1008
g61
(dp1009
g81
g82
ssg70
g1003
sg63
(lp1010
S'http_accept_charset'
p1011
asbag56
(g77
g58
NtRp1012
(dp1013
g61
(dp1014
g88
g89
ssg70
g1003
sg63
(lp1015
S':'
asbag56
(g77
g58
NtRp1016
(dp1017
g61
(dp1018
sg70
g1003
sg63
(lp1019
g56
(g57
g58
NtRp1020
(dp1021
g61
(dp1022
g69
I4
ssg70
g1016
sg63
(lp1023
S'ISO-8859-1,utf-8;q=0.7,*;q=0.3'
p1024
asbasbasbag56
(g72
g58
NtRp1025
(dp1026
g61
(dp1027
sg70
g821
sg63
(lp1028
g56
(g77
g58
NtRp1029
(dp1030
g61
(dp1031
g81
g82
ssg70
g1025
sg63
(lp1032
S'http_accept_encoding'
p1033
asbag56
(g77
g58
NtRp1034
(dp1035
g61
(dp1036
g88
g89
ssg70
g1025
sg63
(lp1037
S':'
asbag56
(g77
g58
NtRp1038
(dp1039
g61
(dp1040
sg70
g1025
sg63
(lp1041
g56
(g57
g58
NtRp1042
(dp1043
g61
(dp1044
g69
I4
ssg70
g1038
sg63
(lp1045
S'gzip,deflate,sdch'
p1046
asbasbasbag56
(g72
g58
NtRp1047
(dp1048
g61
(dp1049
sg70
g821
sg63
(lp1050
g56
(g77
g58
NtRp1051
(dp1052
g61
(dp1053
g81
g82
ssg70
g1047
sg63
(lp1054
S'http_accept_language'
p1055
asbag56
(g77
g58
NtRp1056
(dp1057
g61
(dp1058
g88
g89
ssg70
g1047
sg63
(lp1059
S':'
asbag56
(g77
g58
NtRp1060
(dp1061
g61
(dp1062
sg70
g1047
sg63
(lp1063
g56
(g57
g58
NtRp1064
(dp1065
g61
(dp1066
g69
I4
ssg70
g1060
sg63
(lp1067
S'en-GB,en-US;q=0.8,en;q=0.6'
p1068
asbasbasbag56
(g72
g58
NtRp1069
(dp1070
g61
(dp1071
sg70
g821
sg63
(lp1072
g56
(g77
g58
NtRp1073
(dp1074
g61
(dp1075
g81
g82
ssg70
g1069
sg63
(lp1076
S'http_connection'
p1077
asbag56
(g77
g58
NtRp1078
(dp1079
g61
(dp1080
g88
g89
ssg70
g1069
sg63
(lp1081
S':'
asbag56
(g77
g58
NtRp1082
(dp1083
g61
(dp1084
sg70
g1069
sg63
(lp1085
g56
(g57
g58
NtRp1086
(dp1087
g61
(dp1088
g69
I4
ssg70
g1082
sg63
(lp1089
S'keep-alive'
p1090
asbasbasbag56
(g72
g58
NtRp1091
(dp1092
g61
(dp1093
sg70
g821
sg63
(lp1094
g56
(g77
g58
NtRp1095
(dp1096
g61
(dp1097
g81
g82
ssg70
g1091
sg63
(lp1098
S'http_cookie'
p1099
asbag56
(g77
g58
NtRp1100
(dp1101
g61
(dp1102
g88
g89
ssg70
g1091
sg63
(lp1103
S':'
asbag56
(g77
g58
NtRp1104
(dp1105
g61
(dp1106
sg70
g1091
sg63
(lp1107
g56
(g57
g58
NtRp1108
(dp1109
g61
(dp1110
g69
I4
ssg70
g1104
sg63
(lp1111
S'session_id_welcome=127.0.0.1-c76157cb-db2b-4c4d-a674-8cfd88c3c202; session_id_admin=127.0.0.1-ad3c8b0e-6155-4c7f-b7b1-582679f3c9e9; session_id_cass1=127.0.0.1-5bed0d91-125b-469b-bd52-fa11514160e4'
p1112
asbasbasbag56
(g72
g58
NtRp1113
(dp1114
g61
(dp1115
sg70
g821
sg63
(lp1116
g56
(g77
g58
NtRp1117
(dp1118
g61
(dp1119
g81
g82
ssg70
g1113
sg63
(lp1120
S'http_host'
p1121
asbag56
(g77
g58
NtRp1122
(dp1123
g61
(dp1124
g88
g89
ssg70
g1113
sg63
(lp1125
S':'
asbag56
(g77
g58
NtRp1126
(dp1127
g61
(dp1128
sg70
g1113
sg63
(lp1129
g56
(g57
g58
NtRp1130
(dp1131
g61
(dp1132
g69
I4
ssg70
g1126
sg63
(lp1133
S'127.0.0.1:8000'
p1134
asbasbasbag56
(g72
g58
NtRp1135
(dp1136
g61
(dp1137
sg70
g821
sg63
(lp1138
g56
(g77
g58
NtRp1139
(dp1140
g61
(dp1141
g81
g82
ssg70
g1135
sg63
(lp1142
S'http_user_agent'
p1143
asbag56
(g77
g58
NtRp1144
(dp1145
g61
(dp1146
g88
g89
ssg70
g1135
sg63
(lp1147
S':'
asbag56
(g77
g58
NtRp1148
(dp1149
g61
(dp1150
sg70
g1135
sg63
(lp1151
g56
(g57
g58
NtRp1152
(dp1153
g61
(dp1154
g69
I4
ssg70
g1148
sg63
(lp1155
S'Mozilla/5.0 (X11; Linux x86_64) AppleWebKit/535.1 (KHTML, like Gecko) Chrome/14.0.835.186 Safari/535.1'
p1156
asbasbasbag56
(g72
g58
NtRp1157
(dp1158
g61
(dp1159
sg70
g821
sg63
(lp1160
g56
(g77
g58
NtRp1161
(dp1162
g61
(dp1163
g81
g82
ssg70
g1157
sg63
(lp1164
S'is_jython'
p1165
asbag56
(g77
g58
NtRp1166
(dp1167
g61
(dp1168
g88
g89
ssg70
g1157
sg63
(lp1169
S':'
asbag56
(g77
g58
NtRp1170
(dp1171
g61
(dp1172
sg70
g1157
sg63
(lp1173
g56
(g57
g58
NtRp1174
(dp1175
g61
(dp1176
g69
I4
ssg70
g1170
sg63
(lp1177
g99
asbasbasbag56
(g72
g58
NtRp1178
(dp1179
g61
(dp1180
sg70
g821
sg63
(lp1181
g56
(g77
g58
NtRp1182
(dp1183
g61
(dp1184
g81
g82
ssg70
g1178
sg63
(lp1185
S'path_info'
p1186
asbag56
(g77
g58
NtRp1187
(dp1188
g61
(dp1189
g88
g89
ssg70
g1178
sg63
(lp1190
S':'
asbag56
(g77
g58
NtRp1191
(dp1192
g61
(dp1193
sg70
g1178
sg63
(lp1194
g56
(g57
g58
NtRp1195
(dp1196
g61
(dp1197
g69
I4
ssg70
g1191
sg63
(lp1198
S'/cass1/cass_mgr/clusteroverview'
p1199
asbasbasbag56
(g72
g58
NtRp1200
(dp1201
g61
(dp1202
sg70
g821
sg63
(lp1203
g56
(g77
g58
NtRp1204
(dp1205
g61
(dp1206
g81
g82
ssg70
g1200
sg63
(lp1207
S'query_string'
p1208
asbag56
(g77
g58
NtRp1209
(dp1210
g61
(dp1211
g88
g89
ssg70
g1200
sg63
(lp1212
S':'
asbag56
(g77
g58
NtRp1213
(dp1214
g61
(dp1215
sg70
g1200
sg63
(lp1216
g56
(g57
g58
NtRp1217
(dp1218
g61
(dp1219
g69
I4
ssg70
g1213
sg63
(lp1220
S''
asbasbasbag56
(g72
g58
NtRp1221
(dp1222
g61
(dp1223
sg70
g821
sg63
(lp1224
g56
(g77
g58
NtRp1225
(dp1226
g61
(dp1227
g81
g82
ssg70
g1221
sg63
(lp1228
S'remote_addr'
p1229
asbag56
(g77
g58
NtRp1230
(dp1231
g61
(dp1232
g88
g89
ssg70
g1221
sg63
(lp1233
S':'
asbag56
(g77
g58
NtRp1234
(dp1235
g61
(dp1236
sg70
g1221
sg63
(lp1237
g56
(g57
g58
NtRp1238
(dp1239
g61
(dp1240
g69
I4
ssg70
g1234
sg63
(lp1241
g189
asbasbasbag56
(g72
g58
NtRp1242
(dp1243
g61
(dp1244
sg70
g821
sg63
(lp1245
g56
(g77
g58
NtRp1246
(dp1247
g61
(dp1248
g81
g82
ssg70
g1242
sg63
(lp1249
S'remote_port'
p1250
asbag56
(g77
g58
NtRp1251
(dp1252
g61
(dp1253
g88
g89
ssg70
g1242
sg63
(lp1254
S':'
asbag56
(g77
g58
NtRp1255
(dp1256
g61
(dp1257
sg70
g1242
sg63
(lp1258
g56
(g57
g58
NtRp1259
(dp1260
g61
(dp1261
g69
I4
ssg70
g1255
sg63
(lp1262
S'56945'
p1263
asbasbasbag56
(g72
g58
NtRp1264
(dp1265
g61
(dp1266
sg70
g821
sg63
(lp1267
g56
(g77
g58
NtRp1268
(dp1269
g61
(dp1270
g81
g82
ssg70
g1264
sg63
(lp1271
S'request_method'
p1272
asbag56
(g77
g58
NtRp1273
(dp1274
g61
(dp1275
g88
g89
ssg70
g1264
sg63
(lp1276
S':'
asbag56
(g77
g58
NtRp1277
(dp1278
g61
(dp1279
sg70
g1264
sg63
(lp1280
g56
(g57
g58
NtRp1281
(dp1282
g61
(dp1283
g69
I4
ssg70
g1277
sg63
(lp1284
S'GET'
p1285
asbasbasbag56
(g72
g58
NtRp1286
(dp1287
g61
(dp1288
sg70
g821
sg63
(lp1289
g56
(g77
g58
NtRp1290
(dp1291
g61
(dp1292
g81
g82
ssg70
g1286
sg63
(lp1293
S'script_name'
p1294
asbag56
(g77
g58
NtRp1295
(dp1296
g61
(dp1297
g88
g89
ssg70
g1286
sg63
(lp1298
S':'
asbag56
(g77
g58
NtRp1299
(dp1300
g61
(dp1301
sg70
g1286
sg63
(lp1302
g56
(g57
g58
NtRp1303
(dp1304
g61
(dp1305
g69
I4
ssg70
g1299
sg63
(lp1306
S''
asbasbasbag56
(g72
g58
NtRp1307
(dp1308
g61
(dp1309
sg70
g821
sg63
(lp1310
g56
(g77
g58
NtRp1311
(dp1312
g61
(dp1313
g81
g82
ssg70
g1307
sg63
(lp1314
S'server_name'
p1315
asbag56
(g77
g58
NtRp1316
(dp1317
g61
(dp1318
g88
g89
ssg70
g1307
sg63
(lp1319
S':'
asbag56
(g77
g58
NtRp1320
(dp1321
g61
(dp1322
sg70
g1307
sg63
(lp1323
g56
(g57
g58
NtRp1324
(dp1325
g61
(dp1326
g69
I4
ssg70
g1320
sg63
(lp1327
S'CASR1-VM10-DEV'
p1328
asbasbasbag56
(g72
g58
NtRp1329
(dp1330
g61
(dp1331
sg70
g821
sg63
(lp1332
g56
(g77
g58
NtRp1333
(dp1334
g61
(dp1335
g81
g82
ssg70
g1329
sg63
(lp1336
S'server_port'
p1337
asbag56
(g77
g58
NtRp1338
(dp1339
g61
(dp1340
g88
g89
ssg70
g1329
sg63
(lp1341
S':'
asbag56
(g77
g58
NtRp1342
(dp1343
g61
(dp1344
sg70
g1329
sg63
(lp1345
g56
(g57
g58
NtRp1346
(dp1347
g61
(dp1348
g69
I4
ssg70
g1342
sg63
(lp1349
S'8000'
p1350
asbasbasbag56
(g72
g58
NtRp1351
(dp1352
g61
(dp1353
sg70
g821
sg63
(lp1354
g56
(g77
g58
NtRp1355
(dp1356
g61
(dp1357
g81
g82
ssg70
g1351
sg63
(lp1358
S'server_protocol'
p1359
asbag56
(g77
g58
NtRp1360
(dp1361
g61
(dp1362
g88
g89
ssg70
g1351
sg63
(lp1363
S':'
asbag56
(g77
g58
NtRp1364
(dp1365
g61
(dp1366
sg70
g1351
sg63
(lp1367
g56
(g57
g58
NtRp1368
(dp1369
g61
(dp1370
g69
I4
ssg70
g1364
sg63
(lp1371
S'HTTP/1.1'
p1372
asbasbasbag56
(g72
g58
NtRp1373
(dp1374
g61
(dp1375
sg70
g821
sg63
(lp1376
g56
(g77
g58
NtRp1377
(dp1378
g61
(dp1379
g81
g82
ssg70
g1373
sg63
(lp1380
S'server_software'
p1381
asbag56
(g77
g58
NtRp1382
(dp1383
g61
(dp1384
g88
g89
ssg70
g1373
sg63
(lp1385
S':'
asbag56
(g77
g58
NtRp1386
(dp1387
g61
(dp1388
sg70
g1373
sg63
(lp1389
g56
(g57
g58
NtRp1390
(dp1391
g61
(dp1392
g69
I4
ssg70
g1386
sg63
(lp1393
S'Rocket 1.2.4'
p1394
asbasbasbag56
(g72
g58
NtRp1395
(dp1396
g61
(dp1397
sg70
g821
sg63
(lp1398
g56
(g77
g58
NtRp1399
(dp1400
g61
(dp1401
g81
g82
ssg70
g1395
sg63
(lp1402
S'web2py_crontype'
p1403
asbag56
(g77
g58
NtRp1404
(dp1405
g61
(dp1406
g88
g89
ssg70
g1395
sg63
(lp1407
S':'
asbag56
(g77
g58
NtRp1408
(dp1409
g61
(dp1410
sg70
g1395
sg63
(lp1411
g56
(g57
g58
NtRp1412
(dp1413
g61
(dp1414
g69
I4
ssg70
g1408
sg63
(lp1415
S'hard'
p1416
asbasbasbag56
(g72
g58
NtRp1417
(dp1418
g61
(dp1419
sg70
g821
sg63
(lp1420
g56
(g77
g58
NtRp1421
(dp1422
g61
(dp1423
g81
g82
ssg70
g1417
sg63
(lp1424
S'web2py_path'
p1425
asbag56
(g77
g58
NtRp1426
(dp1427
g61
(dp1428
g88
g89
ssg70
g1417
sg63
(lp1429
S':'
asbag56
(g77
g58
NtRp1430
(dp1431
g61
(dp1432
sg70
g1417
sg63
(lp1433
g56
(g57
g58
NtRp1434
(dp1435
g61
(dp1436
g69
I4
ssg70
g1430
sg63
(lp1437
g868
asbasbasbag56
(g72
g58
NtRp1438
(dp1439
g61
(dp1440
sg70
g821
sg63
(lp1441
g56
(g77
g58
NtRp1442
(dp1443
g61
(dp1444
g81
g82
ssg70
g1438
sg63
(lp1445
S'web2py_version'
p1446
asbag56
(g77
g58
NtRp1447
(dp1448
g61
(dp1449
g88
g89
ssg70
g1438
sg63
(lp1450
S':'
asbag56
(g77
g58
NtRp1451
(dp1452
g61
(dp1453
sg70
g1438
sg63
(lp1454
g56
(g57
g58
NtRp1455
(dp1456
g61
(dp1457
g69
I4
ssg70
g1451
sg63
(lp1458
g56
(g65
g58
NtRp1459
(dp1460
g61
(dp1461
g69
I3
ssg70
Nsg63
(lp1462
g56
(g72
g58
NtRp1463
(dp1464
g61
(dp1465
sg70
g1459
sg63
(lp1466
g56
(g77
g58
NtRp1467
(dp1468
g61
(dp1469
sg70
g1463
sg63
(lp1470
g56
(g57
g58
NtRp1471
(dp1472
g61
(dp1473
g69
I3
ssg70
g1467
sg63
(lp1474
S'1'
asbasbasbag56
(g72
g58
NtRp1475
(dp1476
g61
(dp1477
sg70
g1459
sg63
(lp1478
g56
(g77
g58
NtRp1479
(dp1480
g61
(dp1481
sg70
g1475
sg63
(lp1482
g56
(g57
g58
NtRp1483
(dp1484
g61
(dp1485
g69
I3
ssg70
g1479
sg63
(lp1486
S'99'
p1487
asbasbasbag56
(g72
g58
NtRp1488
(dp1489
g61
(dp1490
sg70
g1459
sg63
(lp1491
g56
(g77
g58
NtRp1492
(dp1493
g61
(dp1494
sg70
g1488
sg63
(lp1495
g56
(g57
g58
NtRp1496
(dp1497
g61
(dp1498
g69
I3
ssg70
g1492
sg63
(lp1499
S'2'
asbasbasbag56
(g72
g58
NtRp1500
(dp1501
g61
(dp1502
sg70
g1459
sg63
(lp1503
g56
(g77
g58
NtRp1504
(dp1505
g61
(dp1506
sg70
g1500
sg63
(lp1507
g56
(g57
g58
NtRp1508
(dp1509
g61
(dp1510
g69
I3
ssg70
g1504
sg63
(lp1511
S'datetime.datetime(2011, 9, 26, 6, 55, 33)'
p1512
asbasbasbag56
(g72
g58
NtRp1513
(dp1514
g61
(dp1515
sg70
g1459
sg63
(lp1516
g56
(g77
g58
NtRp1517
(dp1518
g61
(dp1519
sg70
g1513
sg63
(lp1520
g56
(g57
g58
NtRp1521
(dp1522
g61
(dp1523
g69
I3
ssg70
g1517
sg63
(lp1524
S'stable'
p1525
asbasbasbasbasbasbasbag56
(g72
g58
NtRp1526
(dp1527
g61
(dp1528
sg70
g821
sg63
(lp1529
g56
(g77
g58
NtRp1530
(dp1531
g61
(dp1532
g81
g82
ssg70
g1526
sg63
(lp1533
S'wsgi_errors'
p1534
asbag56
(g77
g58
NtRp1535
(dp1536
g61
(dp1537
g88
g89
ssg70
g1526
sg63
(lp1538
S':'
asbag56
(g77
g58
NtRp1539
(dp1540
g61
(dp1541
sg70
g1526
sg63
(lp1542
g56
(g57
g58
NtRp1543
(dp1544
g61
(dp1545
g69
I4
ssg70
g1539
sg63
(lp1546
S"<open file '<stderr>', mode 'w' at 0x7fb885d02270>"
p1547
asbasbasbag56
(g72
g58
NtRp1548
(dp1549
g61
(dp1550
sg70
g821
sg63
(lp1551
g56
(g77
g58
NtRp1552
(dp1553
g61
(dp1554
g81
g82
ssg70
g1548
sg63
(lp1555
S'wsgi_file_wrapper'
p1556
asbag56
(g77
g58
NtRp1557
(dp1558
g61
(dp1559
g88
g89
ssg70
g1548
sg63
(lp1560
S':'
asbag56
(g77
g58
NtRp1561
(dp1562
g61
(dp1563
sg70
g1548
sg63
(lp1564
g56
(g57
g58
NtRp1565
(dp1566
g61
(dp1567
g69
I4
ssg70
g1561
sg63
(lp1568
S'<class wsgiref.util.FileWrapper at 0x14c2390>'
p1569
asbasbasbag56
(g72
g58
NtRp1570
(dp1571
g61
(dp1572
sg70
g821
sg63
(lp1573
g56
(g77
g58
NtRp1574
(dp1575
g61
(dp1576
g81
g82
ssg70
g1570
sg63
(lp1577
S'wsgi_input'
p1578
asbag56
(g77
g58
NtRp1579
(dp1580
g61
(dp1581
g88
g89
ssg70
g1570
sg63
(lp1582
S':'
asbag56
(g77
g58
NtRp1583
(dp1584
g61
(dp1585
sg70
g1570
sg63
(lp1586
g56
(g57
g58
NtRp1587
(dp1588
g61
(dp1589
g69
I4
ssg70
g1583
sg63
(lp1590
S'<socket._fileobject object at 0x2227bd0>'
p1591
asbasbasbag56
(g72
g58
NtRp1592
(dp1593
g61
(dp1594
sg70
g821
sg63
(lp1595
g56
(g77
g58
NtRp1596
(dp1597
g61
(dp1598
g81
g82
ssg70
g1592
sg63
(lp1599
S'wsgi_multiprocess'
p1600
asbag56
(g77
g58
NtRp1601
(dp1602
g61
(dp1603
g88
g89
ssg70
g1592
sg63
(lp1604
S':'
asbag56
(g77
g58
NtRp1605
(dp1606
g61
(dp1607
sg70
g1592
sg63
(lp1608
g56
(g57
g58
NtRp1609
(dp1610
g61
(dp1611
g69
I4
ssg70
g1605
sg63
(lp1612
g99
asbasbasbag56
(g72
g58
NtRp1613
(dp1614
g61
(dp1615
sg70
g821
sg63
(lp1616
g56
(g77
g58
NtRp1617
(dp1618
g61
(dp1619
g81
g82
ssg70
g1613
sg63
(lp1620
S'wsgi_multithread'
p1621
asbag56
(g77
g58
NtRp1622
(dp1623
g61
(dp1624
g88
g89
ssg70
g1613
sg63
(lp1625
S':'
asbag56
(g77
g58
NtRp1626
(dp1627
g61
(dp1628
sg70
g1613
sg63
(lp1629
g56
(g57
g58
NtRp1630
(dp1631
g61
(dp1632
g69
I4
ssg70
g1626
sg63
(lp1633
S'True'
p1634
asbasbasbag56
(g72
g58
NtRp1635
(dp1636
g61
(dp1637
sg70
g821
sg63
(lp1638
g56
(g77
g58
NtRp1639
(dp1640
g61
(dp1641
g81
g82
ssg70
g1635
sg63
(lp1642
S'wsgi_run_once'
p1643
asbag56
(g77
g58
NtRp1644
(dp1645
g61
(dp1646
g88
g89
ssg70
g1635
sg63
(lp1647
S':'
asbag56
(g77
g58
NtRp1648
(dp1649
g61
(dp1650
sg70
g1635
sg63
(lp1651
g56
(g57
g58
NtRp1652
(dp1653
g61
(dp1654
g69
I4
ssg70
g1648
sg63
(lp1655
g99
asbasbasbag56
(g72
g58
NtRp1656
(dp1657
g61
(dp1658
sg70
g821
sg63
(lp1659
g56
(g77
g58
NtRp1660
(dp1661
g61
(dp1662
g81
g82
ssg70
g1656
sg63
(lp1663
S'wsgi_url_scheme'
p1664
asbag56
(g77
g58
NtRp1665
(dp1666
g61
(dp1667
g88
g89
ssg70
g1656
sg63
(lp1668
S':'
asbag56
(g77
g58
NtRp1669
(dp1670
g61
(dp1671
sg70
g1656
sg63
(lp1672
g56
(g57
g58
NtRp1673
(dp1674
g61
(dp1675
g69
I4
ssg70
g1669
sg63
(lp1676
S'http'
p1677
asbasbasbag56
(g72
g58
NtRp1678
(dp1679
g61
(dp1680
sg70
g821
sg63
(lp1681
g56
(g77
g58
NtRp1682
(dp1683
g61
(dp1684
g81
g82
ssg70
g1678
sg63
(lp1685
S'wsgi_version'
p1686
asbag56
(g77
g58
NtRp1687
(dp1688
g61
(dp1689
g88
g89
ssg70
g1678
sg63
(lp1690
S':'
asbag56
(g77
g58
NtRp1691
(dp1692
g61
(dp1693
sg70
g1678
sg63
(lp1694
g56
(g57
g58
NtRp1695
(dp1696
g61
(dp1697
g69
I4
ssg70
g1691
sg63
(lp1698
g56
(g65
g58
NtRp1699
(dp1700
g61
(dp1701
g69
I3
ssg70
Nsg63
(lp1702
g56
(g72
g58
NtRp1703
(dp1704
g61
(dp1705
sg70
g1699
sg63
(lp1706
g56
(g77
g58
NtRp1707
(dp1708
g61
(dp1709
sg70
g1703
sg63
(lp1710
g56
(g57
g58
NtRp1711
(dp1712
g61
(dp1713
g69
I3
ssg70
g1707
sg63
(lp1714
S'1'
asbasbasbag56
(g72
g58
NtRp1715
(dp1716
g61
(dp1717
sg70
g1699
sg63
(lp1718
g56
(g77
g58
NtRp1719
(dp1720
g61
(dp1721
sg70
g1715
sg63
(lp1722
g56
(g57
g58
NtRp1723
(dp1724
g61
(dp1725
g69
I3
ssg70
g1719
sg63
(lp1726
S'0'
asbasbasbasbasbasbasbasbasbasbasbag56
(g72
g58
NtRp1727
(dp1728
g61
(dp1729
sg70
g66
sg63
(lp1730
g56
(g77
g58
NtRp1731
(dp1732
g61
(dp1733
g81
g82
ssg70
g1727
sg63
(lp1734
S'extension'
p1735
asbag56
(g77
g58
NtRp1736
(dp1737
g61
(dp1738
g88
g89
ssg70
g1727
sg63
(lp1739
S':'
asbag56
(g77
g58
NtRp1740
(dp1741
g61
(dp1742
sg70
g1727
sg63
(lp1743
g56
(g57
g58
NtRp1744
(dp1745
g61
(dp1746
g69
I5
ssg70
g1740
sg63
(lp1747
S'html'
p1748
asbasbasbag56
(g72
g58
NtRp1749
(dp1750
g61
(dp1751
sg70
g66
sg63
(lp1752
g56
(g77
g58
NtRp1753
(dp1754
g61
(dp1755
g81
g82
ssg70
g1749
sg63
(lp1756
S'folder'
p1757
asbag56
(g77
g58
NtRp1758
(dp1759
g61
(dp1760
g88
g89
ssg70
g1749
sg63
(lp1761
S':'
asbag56
(g77
g58
NtRp1762
(dp1763
g61
(dp1764
sg70
g1749
sg63
(lp1765
g56
(g57
g58
NtRp1766
(dp1767
g61
(dp1768
g69
I5
ssg70
g1762
sg63
(lp1769
S'/opt/cassandra-dev/PROJECTS/Cassandra-Monitor/src/CassandraMonitor/mycassandramanager/myinterface/applications/cass1/'
p1770
asbasbasbag56
(g72
g58
NtRp1771
(dp1772
g61
(dp1773
sg70
g66
sg63
(lp1774
g56
(g77
g58
NtRp1775
(dp1776
g61
(dp1777
g81
g82
ssg70
g1771
sg63
(lp1778
S'function'
p1779
asbag56
(g77
g58
NtRp1780
(dp1781
g61
(dp1782
g88
g89
ssg70
g1771
sg63
(lp1783
S':'
asbag56
(g77
g58
NtRp1784
(dp1785
g61
(dp1786
sg70
g1771
sg63
(lp1787
g56
(g57
g58
NtRp1788
(dp1789
g61
(dp1790
g69
I5
ssg70
g1784
sg63
(lp1791
S'clusteroverview'
p1792
asbasbasbag56
(g72
g58
NtRp1793
(dp1794
g61
(dp1795
sg70
g66
sg63
(lp1796
g56
(g77
g58
NtRp1797
(dp1798
g61
(dp1799
g81
g82
ssg70
g1793
sg63
(lp1800
S'get_vars'
p1801
asbag56
(g77
g58
NtRp1802
(dp1803
g61
(dp1804
g88
g89
ssg70
g1793
sg63
(lp1805
S':'
asbag56
(g77
g58
NtRp1806
(dp1807
g61
(dp1808
sg70
g1793
sg63
(lp1809
g56
(g57
g58
NtRp1810
(dp1811
g61
(dp1812
g69
I5
ssg70
g1806
sg63
(lp1813
g56
(g65
g58
NtRp1814
(dp1815
g61
(dp1816
g69
I4
ssg70
Nsg63
(lp1817
sbasbasbasbag56
(g72
g58
NtRp1818
(dp1819
g61
(dp1820
sg70
g66
sg63
(lp1821
g56
(g77
g58
NtRp1822
(dp1823
g61
(dp1824
g81
g82
ssg70
g1818
sg63
(lp1825
S'global_settings'
p1826
asbag56
(g77
g58
NtRp1827
(dp1828
g61
(dp1829
g88
g89
ssg70
g1818
sg63
(lp1830
S':'
asbag56
(g77
g58
NtRp1831
(dp1832
g61
(dp1833
sg70
g1818
sg63
(lp1834
g56
(g57
g58
NtRp1835
(dp1836
g61
(dp1837
g69
I5
ssg70
g1831
sg63
(lp1838
g56
(g65
g58
NtRp1839
(dp1840
g61
(dp1841
g69
I4
ssg70
Nsg63
(lp1842
g56
(g72
g58
NtRp1843
(dp1844
g61
(dp1845
sg70
g1839
sg63
(lp1846
g56
(g77
g58
NtRp1847
(dp1848
g61
(dp1849
g81
g82
ssg70
g1843
sg63
(lp1850
g833
asbag56
(g77
g58
NtRp1851
(dp1852
g61
(dp1853
g88
g89
ssg70
g1843
sg63
(lp1854
S':'
asbag56
(g77
g58
NtRp1855
(dp1856
g61
(dp1857
sg70
g1843
sg63
(lp1858
g56
(g57
g58
NtRp1859
(dp1860
g61
(dp1861
g69
I4
ssg70
g1855
sg63
(lp1862
S"set(['/opt/cassandra-dev/PROJECTS/Cassandra-Monitor/src/CassandraMonitor/mycassandramanager/myinterface/applications/admin/', '/opt/cassandra-dev/PROJECTS/Cassandra-Monitor/src/CassandraMonitor/mycassandramanager/myinterface/applications/cass1/'])"
p1863
asbasbasbag56
(g72
g58
NtRp1864
(dp1865
g61
(dp1866
sg70
g1839
sg63
(lp1867
g56
(g77
g58
NtRp1868
(dp1869
g61
(dp1870
g81
g82
ssg70
g1864
sg63
(lp1871
g855
asbag56
(g77
g58
NtRp1872
(dp1873
g61
(dp1874
g88
g89
ssg70
g1864
sg63
(lp1875
S':'
asbag56
(g77
g58
NtRp1876
(dp1877
g61
(dp1878
sg70
g1864
sg63
(lp1879
g56
(g57
g58
NtRp1880
(dp1881
g61
(dp1882
g69
I4
ssg70
g1876
sg63
(lp1883
g868
asbasbasbag56
(g72
g58
NtRp1884
(dp1885
g61
(dp1886
sg70
g1839
sg63
(lp1887
g56
(g77
g58
NtRp1888
(dp1889
g61
(dp1890
g81
g82
ssg70
g1884
sg63
(lp1891
g877
asbag56
(g77
g58
NtRp1892
(dp1893
g61
(dp1894
g88
g89
ssg70
g1884
sg63
(lp1895
S':'
asbag56
(g77
g58
NtRp1896
(dp1897
g61
(dp1898
sg70
g1884
sg63
(lp1899
g56
(g57
g58
NtRp1900
(dp1901
g61
(dp1902
g69
I4
ssg70
g1896
sg63
(lp1903
g56
(g65
g58
NtRp1904
(dp1905
g61
(dp1906
g69
I3
ssg70
Nsg63
(lp1907
sbasbasbasbag56
(g72
g58
NtRp1908
(dp1909
g61
(dp1910
sg70
g1839
sg63
(lp1911
g56
(g77
g58
NtRp1912
(dp1913
g61
(dp1914
g81
g82
ssg70
g1908
sg63
(lp1915
g902
asbag56
(g77
g58
NtRp1916
(dp1917
g61
(dp1918
g88
g89
ssg70
g1908
sg63
(lp1919
S':'
asbag56
(g77
g58
NtRp1920
(dp1921
g61
(dp1922
sg70
g1908
sg63
(lp1923
g56
(g57
g58
NtRp1924
(dp1925
g61
(dp1926
g69
I4
ssg70
g1920
sg63
(lp1927
S"<Values at 0x17d4098: {'verbose': False, 'ip': '127.0.0.1', 'shutdown_timeout': 5, 'taskbar': False, 'nocron': False, 'pid_filename': 'httpserver.pid', 'maxthreads': None, 'softcron': False, 'server_name': 'CASR1-VM10-DEV', 'bpython': False, 'nogui': False, 'port': 8000, 'extcron': False, 'debuglevel': 30, 'test': None, 'folder': '/opt/cassandra-dev/PROJECTS/Cassandra-Monitor/src/CassandraMonitor/mycassandramanager/myinterface', 'config': '', 'import_models': False, 'winservice': '', 'shell': None, 'run': '', 'log_filename': 'httpserver.log', 'args': [''], 'ssl_ca_certificate': None, 'scheduler': None, 'profiler_filename': None, 'ssl_private_key': '', 'password': 'testing', 'request_queue_size': 5, 'ssl_certificate': '', 'cronjob': False, 'plain': False, 'quiet': False, 'interfaces': None, 'minthreads': None, 'timeout': 10, 'numthreads': None, 'nobanner': False}>"
p1928
asbasbasbag56
(g72
g58
NtRp1929
(dp1930
g61
(dp1931
sg70
g1839
sg63
(lp1932
g56
(g77
g58
NtRp1933
(dp1934
g61
(dp1935
g81
g82
ssg70
g1929
sg63
(lp1936
g924
asbag56
(g77
g58
NtRp1937
(dp1938
g61
(dp1939
g88
g89
ssg70
g1929
sg63
(lp1940
S':'
asbag56
(g77
g58
NtRp1941
(dp1942
g61
(dp1943
sg70
g1929
sg63
(lp1944
g56
(g57
g58
NtRp1945
(dp1946
g61
(dp1947
g69
I4
ssg70
g1941
sg63
(lp1948
S'set([])'
p1949
asbasbasbag56
(g72
g58
NtRp1950
(dp1951
g61
(dp1952
sg70
g1839
sg63
(lp1953
g56
(g77
g58
NtRp1954
(dp1955
g61
(dp1956
g81
g82
ssg70
g1950
sg63
(lp1957
g946
asbag56
(g77
g58
NtRp1958
(dp1959
g61
(dp1960
g88
g89
ssg70
g1950
sg63
(lp1961
S':'
asbag56
(g77
g58
NtRp1962
(dp1963
g61
(dp1964
sg70
g1950
sg63
(lp1965
g56
(g57
g58
NtRp1966
(dp1967
g61
(dp1968
g69
I4
ssg70
g1962
sg63
(lp1969
g99
asbasbasbag56
(g72
g58
NtRp1970
(dp1971
g61
(dp1972
sg70
g1839
sg63
(lp1973
g56
(g77
g58
NtRp1974
(dp1975
g61
(dp1976
g81
g82
ssg70
g1970
sg63
(lp1977
g967
asbag56
(g77
g58
NtRp1978
(dp1979
g61
(dp1980
g88
g89
ssg70
g1970
sg63
(lp1981
S':'
asbag56
(g77
g58
NtRp1982
(dp1983
g61
(dp1984
sg70
g1970
sg63
(lp1985
g56
(g57
g58
NtRp1986
(dp1987
g61
(dp1988
g69
I4
ssg70
g1982
sg63
(lp1989
g980
asbasbasbag56
(g72
g58
NtRp1990
(dp1991
g61
(dp1992
sg70
g1839
sg63
(lp1993
g56
(g77
g58
NtRp1994
(dp1995
g61
(dp1996
g81
g82
ssg70
g1990
sg63
(lp1997
g1165
asbag56
(g77
g58
NtRp1998
(dp1999
g61
(dp2000
g88
g89
ssg70
g1990
sg63
(lp2001
S':'
asbag56
(g77
g58
NtRp2002
(dp2003
g61
(dp2004
sg70
g1990
sg63
(lp2005
g56
(g57
g58
NtRp2006
(dp2007
g61
(dp2008
g69
I4
ssg70
g2002
sg63
(lp2009
g99
asbasbasbag56
(g72
g58
NtRp2010
(dp2011
g61
(dp2012
sg70
g1839
sg63
(lp2013
g56
(g77
g58
NtRp2014
(dp2015
g61
(dp2016
g81
g82
ssg70
g2010
sg63
(lp2017
g1403
asbag56
(g77
g58
NtRp2018
(dp2019
g61
(dp2020
g88
g89
ssg70
g2010
sg63
(lp2021
S':'
asbag56
(g77
g58
NtRp2022
(dp2023
g61
(dp2024
sg70
g2010
sg63
(lp2025
g56
(g57
g58
NtRp2026
(dp2027
g61
(dp2028
g69
I4
ssg70
g2022
sg63
(lp2029
g1416
asbasbasbag56
(g72
g58
NtRp2030
(dp2031
g61
(dp2032
sg70
g1839
sg63
(lp2033
g56
(g77
g58
NtRp2034
(dp2035
g61
(dp2036
g81
g82
ssg70
g2030
sg63
(lp2037
g1446
asbag56
(g77
g58
NtRp2038
(dp2039
g61
(dp2040
g88
g89
ssg70
g2030
sg63
(lp2041
S':'
asbag56
(g77
g58
NtRp2042
(dp2043
g61
(dp2044
sg70
g2030
sg63
(lp2045
g56
(g57
g58
NtRp2046
(dp2047
g61
(dp2048
g69
I4
ssg70
g2042
sg63
(lp2049
g56
(g65
g58
NtRp2050
(dp2051
g61
(dp2052
g69
I3
ssg70
Nsg63
(lp2053
g56
(g72
g58
NtRp2054
(dp2055
g61
(dp2056
sg70
g2050
sg63
(lp2057
g56
(g77
g58
NtRp2058
(dp2059
g61
(dp2060
sg70
g2054
sg63
(lp2061
g56
(g57
g58
NtRp2062
(dp2063
g61
(dp2064
g69
I3
ssg70
g2058
sg63
(lp2065
S'1'
asbasbasbag56
(g72
g58
NtRp2066
(dp2067
g61
(dp2068
sg70
g2050
sg63
(lp2069
g56
(g77
g58
NtRp2070
(dp2071
g61
(dp2072
sg70
g2066
sg63
(lp2073
g56
(g57
g58
NtRp2074
(dp2075
g61
(dp2076
g69
I3
ssg70
g2070
sg63
(lp2077
S'99'
p2078
asbasbasbag56
(g72
g58
NtRp2079
(dp2080
g61
(dp2081
sg70
g2050
sg63
(lp2082
g56
(g77
g58
NtRp2083
(dp2084
g61
(dp2085
sg70
g2079
sg63
(lp2086
g56
(g57
g58
NtRp2087
(dp2088
g61
(dp2089
g69
I3
ssg70
g2083
sg63
(lp2090
S'2'
asbasbasbag56
(g72
g58
NtRp2091
(dp2092
g61
(dp2093
sg70
g2050
sg63
(lp2094
g56
(g77
g58
NtRp2095
(dp2096
g61
(dp2097
sg70
g2091
sg63
(lp2098
g56
(g57
g58
NtRp2099
(dp2100
g61
(dp2101
g69
I3
ssg70
g2095
sg63
(lp2102
S'datetime.datetime(2011, 9, 26, 6, 55, 33)'
p2103
asbasbasbag56
(g72
g58
NtRp2104
(dp2105
g61
(dp2106
sg70
g2050
sg63
(lp2107
g56
(g77
g58
NtRp2108
(dp2109
g61
(dp2110
sg70
g2104
sg63
(lp2111
g56
(g57
g58
NtRp2112
(dp2113
g61
(dp2114
g69
I3
ssg70
g2108
sg63
(lp2115
g1525
asbasbasbasbasbasbasbasbasbasbasbag56
(g72
g58
NtRp2116
(dp2117
g61
(dp2118
sg70
g66
sg63
(lp2119
g56
(g77
g58
NtRp2120
(dp2121
g61
(dp2122
g81
g82
ssg70
g2116
sg63
(lp2123
S'is_https'
p2124
asbag56
(g77
g58
NtRp2125
(dp2126
g61
(dp2127
g88
g89
ssg70
g2116
sg63
(lp2128
S':'
asbag56
(g77
g58
NtRp2129
(dp2130
g61
(dp2131
sg70
g2116
sg63
(lp2132
g56
(g57
g58
NtRp2133
(dp2134
g61
(dp2135
g69
I5
ssg70
g2129
sg63
(lp2136
g99
asbasbasbag56
(g72
g58
NtRp2137
(dp2138
g61
(dp2139
sg70
g66
sg63
(lp2140
g56
(g77
g58
NtRp2141
(dp2142
g61
(dp2143
g81
g82
ssg70
g2137
sg63
(lp2144
S'is_local'
p2145
asbag56
(g77
g58
NtRp2146
(dp2147
g61
(dp2148
g88
g89
ssg70
g2137
sg63
(lp2149
S':'
asbag56
(g77
g58
NtRp2150
(dp2151
g61
(dp2152
sg70
g2137
sg63
(lp2153
g56
(g57
g58
NtRp2154
(dp2155
g61
(dp2156
g69
I5
ssg70
g2150
sg63
(lp2157
g1634
asbasbasbag56
(g72
g58
NtRp2158
(dp2159
g61
(dp2160
sg70
g66
sg63
(lp2161
g56
(g77
g58
NtRp2162
(dp2163
g61
(dp2164
g81
g82
ssg70
g2158
sg63
(lp2165
S'is_restful'
p2166
asbag56
(g77
g58
NtRp2167
(dp2168
g61
(dp2169
g88
g89
ssg70
g2158
sg63
(lp2170
S':'
asbag56
(g77
g58
NtRp2171
(dp2172
g61
(dp2173
sg70
g2158
sg63
(lp2174
g56
(g57
g58
NtRp2175
(dp2176
g61
(dp2177
g69
I5
ssg70
g2171
sg63
(lp2178
g99
asbasbasbag56
(g72
g58
NtRp2179
(dp2180
g61
(dp2181
sg70
g66
sg63
(lp2182
g56
(g77
g58
NtRp2183
(dp2184
g61
(dp2185
g81
g82
ssg70
g2179
sg63
(lp2186
S'now'
p2187
asbag56
(g77
g58
NtRp2188
(dp2189
g61
(dp2190
g88
g89
ssg70
g2179
sg63
(lp2191
S':'
asbag56
(g77
g58
NtRp2192
(dp2193
g61
(dp2194
sg70
g2179
sg63
(lp2195
g56
(g57
g58
NtRp2196
(dp2197
g61
(dp2198
g69
I5
ssg70
g2192
sg63
(lp2199
S'datetime.datetime(2011, 12, 8, 14, 49, 9, 59921)'
p2200
asbasbasbag56
(g72
g58
NtRp2201
(dp2202
g61
(dp2203
sg70
g66
sg63
(lp2204
g56
(g77
g58
NtRp2205
(dp2206
g61
(dp2207
g81
g82
ssg70
g2201
sg63
(lp2208
S'post_vars'
p2209
asbag56
(g77
g58
NtRp2210
(dp2211
g61
(dp2212
g88
g89
ssg70
g2201
sg63
(lp2213
S':'
asbag56
(g77
g58
NtRp2214
(dp2215
g61
(dp2216
sg70
g2201
sg63
(lp2217
g56
(g57
g58
NtRp2218
(dp2219
g61
(dp2220
g69
I5
ssg70
g2214
sg63
(lp2221
g56
(g65
g58
NtRp2222
(dp2223
g61
(dp2224
g69
I4
ssg70
Nsg63
(lp2225
sbasbasbasbag56
(g72
g58
NtRp2226
(dp2227
g61
(dp2228
sg70
g66
sg63
(lp2229
g56
(g77
g58
NtRp2230
(dp2231
g61
(dp2232
g81
g82
ssg70
g2226
sg63
(lp2233
S'url'
p2234
asbag56
(g77
g58
NtRp2235
(dp2236
g61
(dp2237
g88
g89
ssg70
g2226
sg63
(lp2238
S':'
asbag56
(g77
g58
NtRp2239
(dp2240
g61
(dp2241
sg70
g2226
sg63
(lp2242
g56
(g57
g58
NtRp2243
(dp2244
g61
(dp2245
g69
I5
ssg70
g2239
sg63
(lp2246
S'/cass1/cass_mgr/clusteroverview'
p2247
asbasbasbag56
(g72
g58
NtRp2248
(dp2249
g61
(dp2250
sg70
g66
sg63
(lp2251
g56
(g77
g58
NtRp2252
(dp2253
g61
(dp2254
g81
g82
ssg70
g2248
sg63
(lp2255
S'utcnow'
p2256
asbag56
(g77
g58
NtRp2257
(dp2258
g61
(dp2259
g88
g89
ssg70
g2248
sg63
(lp2260
S':'
asbag56
(g77
g58
NtRp2261
(dp2262
g61
(dp2263
sg70
g2248
sg63
(lp2264
g56
(g57
g58
NtRp2265
(dp2266
g61
(dp2267
g69
I5
ssg70
g2261
sg63
(lp2268
S'datetime.datetime(2011, 12, 8, 14, 49, 9, 60020)'
p2269
asbasbasbag56
(g72
g58
NtRp2270
(dp2271
g61
(dp2272
sg70
g66
sg63
(lp2273
g56
(g77
g58
NtRp2274
(dp2275
g61
(dp2276
g81
g82
ssg70
g2270
sg63
(lp2277
S'uuid'
p2278
asbag56
(g77
g58
NtRp2279
(dp2280
g61
(dp2281
g88
g89
ssg70
g2270
sg63
(lp2282
S':'
asbag56
(g77
g58
NtRp2283
(dp2284
g61
(dp2285
sg70
g2270
sg63
(lp2286
g56
(g57
g58
NtRp2287
(dp2288
g61
(dp2289
g69
I5
ssg70
g2283
sg63
(lp2290
S'cass1/127.0.0.1.2011-12-08.14-49-09.d550e2b6-54e6-49e5-9346-8edb9eefbcb1'
p2291
asbasbasbag56
(g72
g58
NtRp2292
(dp2293
g61
(dp2294
sg70
g66
sg63
(lp2295
g56
(g77
g58
NtRp2296
(dp2297
g61
(dp2298
g81
g82
ssg70
g2292
sg63
(lp2299
S'vars'
p2300
asbag56
(g77
g58
NtRp2301
(dp2302
g61
(dp2303
g88
g89
ssg70
g2292
sg63
(lp2304
S':'
asbag56
(g77
g58
NtRp2305
(dp2306
g61
(dp2307
sg70
g2292
sg63
(lp2308
g56
(g57
g58
NtRp2309
(dp2310
g61
(dp2311
g69
I5
ssg70
g2305
sg63
(lp2312
g56
(g65
g58
NtRp2313
(dp2314
g61
(dp2315
g69
I4
ssg70
Nsg63
(lp2316
sbasbasbasbag56
(g72
g58
NtRp2317
(dp2318
g61
(dp2319
sg70
g66
sg63
(lp2320
g56
(g77
g58
NtRp2321
(dp2322
g61
(dp2323
g81
g82
ssg70
g2317
sg63
(lp2324
S'wsgi'
p2325
asbag56
(g77
g58
NtRp2326
(dp2327
g61
(dp2328
g88
g89
ssg70
g2317
sg63
(lp2329
S':'
asbag56
(g77
g58
NtRp2330
(dp2331
g61
(dp2332
sg70
g2317
sg63
(lp2333
g56
(g57
g58
NtRp2334
(dp2335
g61
(dp2336
g69
I5
ssg70
g2330
sg63
(lp2337
g56
(g65
g58
NtRp2338
(dp2339
g61
(dp2340
g69
I4
ssg70
Nsg63
(lp2341
g56
(g72
g58
NtRp2342
(dp2343
g61
(dp2344
sg70
g2338
sg63
(lp2345
g56
(g77
g58
NtRp2346
(dp2347
g61
(dp2348
g81
g82
ssg70
g2342
sg63
(lp2349
S'environ'
p2350
asbag56
(g77
g58
NtRp2351
(dp2352
g61
(dp2353
g88
g89
ssg70
g2342
sg63
(lp2354
S':'
asbag56
(g77
g58
NtRp2355
(dp2356
g61
(dp2357
sg70
g2342
sg63
(lp2358
g56
(g57
g58
NtRp2359
(dp2360
g61
(dp2361
g69
I4
ssg70
g2355
sg63
(lp2362
g56
(g65
g58
NtRp2363
(dp2364
g61
(dp2365
g69
I3
ssg70
Nsg63
(lp2366
g56
(g72
g58
NtRp2367
(dp2368
g61
(dp2369
sg70
g2363
sg63
(lp2370
g56
(g77
g58
NtRp2371
(dp2372
g61
(dp2373
g81
g82
ssg70
g2367
sg63
(lp2374
S'HTTP_ACCEPT'
p2375
asbag56
(g77
g58
NtRp2376
(dp2377
g61
(dp2378
g88
g89
ssg70
g2367
sg63
(lp2379
S':'
asbag56
(g77
g58
NtRp2380
(dp2381
g61
(dp2382
sg70
g2367
sg63
(lp2383
g56
(g57
g58
NtRp2384
(dp2385
g61
(dp2386
g69
I3
ssg70
g2380
sg63
(lp2387
g1002
asbasbasbag56
(g72
g58
NtRp2388
(dp2389
g61
(dp2390
sg70
g2363
sg63
(lp2391
g56
(g77
g58
NtRp2392
(dp2393
g61
(dp2394
g81
g82
ssg70
g2388
sg63
(lp2395
S'HTTP_ACCEPT_CHARSET'
p2396
asbag56
(g77
g58
NtRp2397
(dp2398
g61
(dp2399
g88
g89
ssg70
g2388
sg63
(lp2400
S':'
asbag56
(g77
g58
NtRp2401
(dp2402
g61
(dp2403
sg70
g2388
sg63
(lp2404
g56
(g57
g58
NtRp2405
(dp2406
g61
(dp2407
g69
I3
ssg70
g2401
sg63
(lp2408
g1024
asbasbasbag56
(g72
g58
NtRp2409
(dp2410
g61
(dp2411
sg70
g2363
sg63
(lp2412
g56
(g77
g58
NtRp2413
(dp2414
g61
(dp2415
g81
g82
ssg70
g2409
sg63
(lp2416
S'HTTP_ACCEPT_ENCODING'
p2417
asbag56
(g77
g58
NtRp2418
(dp2419
g61
(dp2420
g88
g89
ssg70
g2409
sg63
(lp2421
S':'
asbag56
(g77
g58
NtRp2422
(dp2423
g61
(dp2424
sg70
g2409
sg63
(lp2425
g56
(g57
g58
NtRp2426
(dp2427
g61
(dp2428
g69
I3
ssg70
g2422
sg63
(lp2429
g1046
asbasbasbag56
(g72
g58
NtRp2430
(dp2431
g61
(dp2432
sg70
g2363
sg63
(lp2433
g56
(g77
g58
NtRp2434
(dp2435
g61
(dp2436
g81
g82
ssg70
g2430
sg63
(lp2437
S'HTTP_ACCEPT_LANGUAGE'
p2438
asbag56
(g77
g58
NtRp2439
(dp2440
g61
(dp2441
g88
g89
ssg70
g2430
sg63
(lp2442
S':'
asbag56
(g77
g58
NtRp2443
(dp2444
g61
(dp2445
sg70
g2430
sg63
(lp2446
g56
(g57
g58
NtRp2447
(dp2448
g61
(dp2449
g69
I3
ssg70
g2443
sg63
(lp2450
g1068
asbasbasbag56
(g72
g58
NtRp2451
(dp2452
g61
(dp2453
sg70
g2363
sg63
(lp2454
g56
(g77
g58
NtRp2455
(dp2456
g61
(dp2457
g81
g82
ssg70
g2451
sg63
(lp2458
S'HTTP_CONNECTION'
p2459
asbag56
(g77
g58
NtRp2460
(dp2461
g61
(dp2462
g88
g89
ssg70
g2451
sg63
(lp2463
S':'
asbag56
(g77
g58
NtRp2464
(dp2465
g61
(dp2466
sg70
g2451
sg63
(lp2467
g56
(g57
g58
NtRp2468
(dp2469
g61
(dp2470
g69
I3
ssg70
g2464
sg63
(lp2471
g1090
asbasbasbag56
(g72
g58
NtRp2472
(dp2473
g61
(dp2474
sg70
g2363
sg63
(lp2475
g56
(g77
g58
NtRp2476
(dp2477
g61
(dp2478
g81
g82
ssg70
g2472
sg63
(lp2479
S'HTTP_COOKIE'
p2480
asbag56
(g77
g58
NtRp2481
(dp2482
g61
(dp2483
g88
g89
ssg70
g2472
sg63
(lp2484
S':'
asbag56
(g77
g58
NtRp2485
(dp2486
g61
(dp2487
sg70
g2472
sg63
(lp2488
g56
(g57
g58
NtRp2489
(dp2490
g61
(dp2491
g69
I3
ssg70
g2485
sg63
(lp2492
g1112
asbasbasbag56
(g72
g58
NtRp2493
(dp2494
g61
(dp2495
sg70
g2363
sg63
(lp2496
g56
(g77
g58
NtRp2497
(dp2498
g61
(dp2499
g81
g82
ssg70
g2493
sg63
(lp2500
S'HTTP_HOST'
p2501
asbag56
(g77
g58
NtRp2502
(dp2503
g61
(dp2504
g88
g89
ssg70
g2493
sg63
(lp2505
S':'
asbag56
(g77
g58
NtRp2506
(dp2507
g61
(dp2508
sg70
g2493
sg63
(lp2509
g56
(g57
g58
NtRp2510
(dp2511
g61
(dp2512
g69
I3
ssg70
g2506
sg63
(lp2513
g1134
asbasbasbag56
(g72
g58
NtRp2514
(dp2515
g61
(dp2516
sg70
g2363
sg63
(lp2517
g56
(g77
g58
NtRp2518
(dp2519
g61
(dp2520
g81
g82
ssg70
g2514
sg63
(lp2521
S'HTTP_USER_AGENT'
p2522
asbag56
(g77
g58
NtRp2523
(dp2524
g61
(dp2525
g88
g89
ssg70
g2514
sg63
(lp2526
S':'
asbag56
(g77
g58
NtRp2527
(dp2528
g61
(dp2529
sg70
g2514
sg63
(lp2530
g56
(g57
g58
NtRp2531
(dp2532
g61
(dp2533
g69
I3
ssg70
g2527
sg63
(lp2534
g1156
asbasbasbag56
(g72
g58
NtRp2535
(dp2536
g61
(dp2537
sg70
g2363
sg63
(lp2538
g56
(g77
g58
NtRp2539
(dp2540
g61
(dp2541
g81
g82
ssg70
g2535
sg63
(lp2542
S'PATH_INFO'
p2543
asbag56
(g77
g58
NtRp2544
(dp2545
g61
(dp2546
g88
g89
ssg70
g2535
sg63
(lp2547
S':'
asbag56
(g77
g58
NtRp2548
(dp2549
g61
(dp2550
sg70
g2535
sg63
(lp2551
g56
(g57
g58
NtRp2552
(dp2553
g61
(dp2554
g69
I3
ssg70
g2548
sg63
(lp2555
g1199
asbasbasbag56
(g72
g58
NtRp2556
(dp2557
g61
(dp2558
sg70
g2363
sg63
(lp2559
g56
(g77
g58
NtRp2560
(dp2561
g61
(dp2562
g81
g82
ssg70
g2556
sg63
(lp2563
S'QUERY_STRING'
p2564
asbag56
(g77
g58
NtRp2565
(dp2566
g61
(dp2567
g88
g89
ssg70
g2556
sg63
(lp2568
S':'
asbag56
(g77
g58
NtRp2569
(dp2570
g61
(dp2571
sg70
g2556
sg63
(lp2572
g56
(g57
g58
NtRp2573
(dp2574
g61
(dp2575
g69
I3
ssg70
g2569
sg63
(lp2576
S''
asbasbasbag56
(g72
g58
NtRp2577
(dp2578
g61
(dp2579
sg70
g2363
sg63
(lp2580
g56
(g77
g58
NtRp2581
(dp2582
g61
(dp2583
g81
g82
ssg70
g2577
sg63
(lp2584
S'REMOTE_ADDR'
p2585
asbag56
(g77
g58
NtRp2586
(dp2587
g61
(dp2588
g88
g89
ssg70
g2577
sg63
(lp2589
S':'
asbag56
(g77
g58
NtRp2590
(dp2591
g61
(dp2592
sg70
g2577
sg63
(lp2593
g56
(g57
g58
NtRp2594
(dp2595
g61
(dp2596
g69
I3
ssg70
g2590
sg63
(lp2597
g189
asbasbasbag56
(g72
g58
NtRp2598
(dp2599
g61
(dp2600
sg70
g2363
sg63
(lp2601
g56
(g77
g58
NtRp2602
(dp2603
g61
(dp2604
g81
g82
ssg70
g2598
sg63
(lp2605
S'REMOTE_PORT'
p2606
asbag56
(g77
g58
NtRp2607
(dp2608
g61
(dp2609
g88
g89
ssg70
g2598
sg63
(lp2610
S':'
asbag56
(g77
g58
NtRp2611
(dp2612
g61
(dp2613
sg70
g2598
sg63
(lp2614
g56
(g57
g58
NtRp2615
(dp2616
g61
(dp2617
g69
I3
ssg70
g2611
sg63
(lp2618
g1263
asbasbasbag56
(g72
g58
NtRp2619
(dp2620
g61
(dp2621
sg70
g2363
sg63
(lp2622
g56
(g77
g58
NtRp2623
(dp2624
g61
(dp2625
g81
g82
ssg70
g2619
sg63
(lp2626
S'REQUEST_METHOD'
p2627
asbag56
(g77
g58
NtRp2628
(dp2629
g61
(dp2630
g88
g89
ssg70
g2619
sg63
(lp2631
S':'
asbag56
(g77
g58
NtRp2632
(dp2633
g61
(dp2634
sg70
g2619
sg63
(lp2635
g56
(g57
g58
NtRp2636
(dp2637
g61
(dp2638
g69
I3
ssg70
g2632
sg63
(lp2639
g1285
asbasbasbag56
(g72
g58
NtRp2640
(dp2641
g61
(dp2642
sg70
g2363
sg63
(lp2643
g56
(g77
g58
NtRp2644
(dp2645
g61
(dp2646
g81
g82
ssg70
g2640
sg63
(lp2647
S'SCRIPT_NAME'
p2648
asbag56
(g77
g58
NtRp2649
(dp2650
g61
(dp2651
g88
g89
ssg70
g2640
sg63
(lp2652
S':'
asbag56
(g77
g58
NtRp2653
(dp2654
g61
(dp2655
sg70
g2640
sg63
(lp2656
g56
(g57
g58
NtRp2657
(dp2658
g61
(dp2659
g69
I3
ssg70
g2653
sg63
(lp2660
S''
asbasbasbag56
(g72
g58
NtRp2661
(dp2662
g61
(dp2663
sg70
g2363
sg63
(lp2664
g56
(g77
g58
NtRp2665
(dp2666
g61
(dp2667
g81
g82
ssg70
g2661
sg63
(lp2668
S'SERVER_NAME'
p2669
asbag56
(g77
g58
NtRp2670
(dp2671
g61
(dp2672
g88
g89
ssg70
g2661
sg63
(lp2673
S':'
asbag56
(g77
g58
NtRp2674
(dp2675
g61
(dp2676
sg70
g2661
sg63
(lp2677
g56
(g57
g58
NtRp2678
(dp2679
g61
(dp2680
g69
I3
ssg70
g2674
sg63
(lp2681
g1328
asbasbasbag56
(g72
g58
NtRp2682
(dp2683
g61
(dp2684
sg70
g2363
sg63
(lp2685
g56
(g77
g58
NtRp2686
(dp2687
g61
(dp2688
g81
g82
ssg70
g2682
sg63
(lp2689
S'SERVER_PORT'
p2690
asbag56
(g77
g58
NtRp2691
(dp2692
g61
(dp2693
g88
g89
ssg70
g2682
sg63
(lp2694
S':'
asbag56
(g77
g58
NtRp2695
(dp2696
g61
(dp2697
sg70
g2682
sg63
(lp2698
g56
(g57
g58
NtRp2699
(dp2700
g61
(dp2701
g69
I3
ssg70
g2695
sg63
(lp2702
g1350
asbasbasbag56
(g72
g58
NtRp2703
(dp2704
g61
(dp2705
sg70
g2363
sg63
(lp2706
g56
(g77
g58
NtRp2707
(dp2708
g61
(dp2709
g81
g82
ssg70
g2703
sg63
(lp2710
S'SERVER_PROTOCOL'
p2711
asbag56
(g77
g58
NtRp2712
(dp2713
g61
(dp2714
g88
g89
ssg70
g2703
sg63
(lp2715
S':'
asbag56
(g77
g58
NtRp2716
(dp2717
g61
(dp2718
sg70
g2703
sg63
(lp2719
g56
(g57
g58
NtRp2720
(dp2721
g61
(dp2722
g69
I3
ssg70
g2716
sg63
(lp2723
g1372
asbasbasbag56
(g72
g58
NtRp2724
(dp2725
g61
(dp2726
sg70
g2363
sg63
(lp2727
g56
(g77
g58
NtRp2728
(dp2729
g61
(dp2730
g81
g82
ssg70
g2724
sg63
(lp2731
S'SERVER_SOFTWARE'
p2732
asbag56
(g77
g58
NtRp2733
(dp2734
g61
(dp2735
g88
g89
ssg70
g2724
sg63
(lp2736
S':'
asbag56
(g77
g58
NtRp2737
(dp2738
g61
(dp2739
sg70
g2724
sg63
(lp2740
g56
(g57
g58
NtRp2741
(dp2742
g61
(dp2743
g69
I3
ssg70
g2737
sg63
(lp2744
g1394
asbasbasbag56
(g72
g58
NtRp2745
(dp2746
g61
(dp2747
sg70
g2363
sg63
(lp2748
g56
(g77
g58
NtRp2749
(dp2750
g61
(dp2751
g81
g82
ssg70
g2745
sg63
(lp2752
S'wsgi.errors'
p2753
asbag56
(g77
g58
NtRp2754
(dp2755
g61
(dp2756
g88
g89
ssg70
g2745
sg63
(lp2757
S':'
asbag56
(g77
g58
NtRp2758
(dp2759
g61
(dp2760
sg70
g2745
sg63
(lp2761
g56
(g57
g58
NtRp2762
(dp2763
g61
(dp2764
g69
I3
ssg70
g2758
sg63
(lp2765
S"<open file '<stderr>', mode 'w' at 0x7fb885d02270>"
p2766
asbasbasbag56
(g72
g58
NtRp2767
(dp2768
g61
(dp2769
sg70
g2363
sg63
(lp2770
g56
(g77
g58
NtRp2771
(dp2772
g61
(dp2773
g81
g82
ssg70
g2767
sg63
(lp2774
S'wsgi.file_wrapper'
p2775
asbag56
(g77
g58
NtRp2776
(dp2777
g61
(dp2778
g88
g89
ssg70
g2767
sg63
(lp2779
S':'
asbag56
(g77
g58
NtRp2780
(dp2781
g61
(dp2782
sg70
g2767
sg63
(lp2783
g56
(g57
g58
NtRp2784
(dp2785
g61
(dp2786
g69
I3
ssg70
g2780
sg63
(lp2787
S'<class wsgiref.util.FileWrapper at 0x14c2390>'
p2788
asbasbasbag56
(g72
g58
NtRp2789
(dp2790
g61
(dp2791
sg70
g2363
sg63
(lp2792
g56
(g77
g58
NtRp2793
(dp2794
g61
(dp2795
g81
g82
ssg70
g2789
sg63
(lp2796
S'wsgi.input'
p2797
asbag56
(g77
g58
NtRp2798
(dp2799
g61
(dp2800
g88
g89
ssg70
g2789
sg63
(lp2801
S':'
asbag56
(g77
g58
NtRp2802
(dp2803
g61
(dp2804
sg70
g2789
sg63
(lp2805
g56
(g57
g58
NtRp2806
(dp2807
g61
(dp2808
g69
I3
ssg70
g2802
sg63
(lp2809
S'<cStringIO.StringO object at 0x3324030>'
p2810
asbasbasbag56
(g72
g58
NtRp2811
(dp2812
g61
(dp2813
sg70
g2363
sg63
(lp2814
g56
(g77
g58
NtRp2815
(dp2816
g61
(dp2817
g81
g82
ssg70
g2811
sg63
(lp2818
S'wsgi.multiprocess'
p2819
asbag56
(g77
g58
NtRp2820
(dp2821
g61
(dp2822
g88
g89
ssg70
g2811
sg63
(lp2823
S':'
asbag56
(g77
g58
NtRp2824
(dp2825
g61
(dp2826
sg70
g2811
sg63
(lp2827
g56
(g57
g58
NtRp2828
(dp2829
g61
(dp2830
g69
I3
ssg70
g2824
sg63
(lp2831
g99
asbasbasbag56
(g72
g58
NtRp2832
(dp2833
g61
(dp2834
sg70
g2363
sg63
(lp2835
g56
(g77
g58
NtRp2836
(dp2837
g61
(dp2838
g81
g82
ssg70
g2832
sg63
(lp2839
S'wsgi.multithread'
p2840
asbag56
(g77
g58
NtRp2841
(dp2842
g61
(dp2843
g88
g89
ssg70
g2832
sg63
(lp2844
S':'
asbag56
(g77
g58
NtRp2845
(dp2846
g61
(dp2847
sg70
g2832
sg63
(lp2848
g56
(g57
g58
NtRp2849
(dp2850
g61
(dp2851
g69
I3
ssg70
g2845
sg63
(lp2852
g1634
asbasbasbag56
(g72
g58
NtRp2853
(dp2854
g61
(dp2855
sg70
g2363
sg63
(lp2856
g56
(g77
g58
NtRp2857
(dp2858
g61
(dp2859
g81
g82
ssg70
g2853
sg63
(lp2860
S'wsgi.run_once'
p2861
asbag56
(g77
g58
NtRp2862
(dp2863
g61
(dp2864
g88
g89
ssg70
g2853
sg63
(lp2865
S':'
asbag56
(g77
g58
NtRp2866
(dp2867
g61
(dp2868
sg70
g2853
sg63
(lp2869
g56
(g57
g58
NtRp2870
(dp2871
g61
(dp2872
g69
I3
ssg70
g2866
sg63
(lp2873
g99
asbasbasbag56
(g72
g58
NtRp2874
(dp2875
g61
(dp2876
sg70
g2363
sg63
(lp2877
g56
(g77
g58
NtRp2878
(dp2879
g61
(dp2880
g81
g82
ssg70
g2874
sg63
(lp2881
S'wsgi.url_scheme'
p2882
asbag56
(g77
g58
NtRp2883
(dp2884
g61
(dp2885
g88
g89
ssg70
g2874
sg63
(lp2886
S':'
asbag56
(g77
g58
NtRp2887
(dp2888
g61
(dp2889
sg70
g2874
sg63
(lp2890
g56
(g57
g58
NtRp2891
(dp2892
g61
(dp2893
g69
I3
ssg70
g2887
sg63
(lp2894
g1677
asbasbasbag56
(g72
g58
NtRp2895
(dp2896
g61
(dp2897
sg70
g2363
sg63
(lp2898
g56
(g77
g58
NtRp2899
(dp2900
g61
(dp2901
g81
g82
ssg70
g2895
sg63
(lp2902
S'wsgi.version'
p2903
asbag56
(g77
g58
NtRp2904
(dp2905
g61
(dp2906
g88
g89
ssg70
g2895
sg63
(lp2907
S':'
asbag56
(g77
g58
NtRp2908
(dp2909
g61
(dp2910
sg70
g2895
sg63
(lp2911
g56
(g57
g58
NtRp2912
(dp2913
g61
(dp2914
g69
I3
ssg70
g2908
sg63
(lp2915
S'1'
asbasbasbasbasbasbasbasbasbasbasbasbasbsS'frames'
p2916
(lp2917
(dp2918
S'file'
p2919
S'/opt/cassandra-dev/PROJECTS/Cassandra-Monitor/src/CassandraMonitor/mycassandramanager/myinterface/gluon/restricted.py'
p2920
sS'dump'
p2921
(dp2922
S'environment'
p2923
S"{'A': <class 'gluon.html.A'>, 'Auth': <class 'gluon.tools.Auth'>, 'B': <class 'gluon.html.B'>, 'BEAUTIFY': <class 'gluon.html.BEAUTIFY'>, 'BODY': <class 'gluon.html.BODY'>, 'BR': <class 'gluon.html.BR'>, 'BUTTON': <class 'gluon.html.BUTTON'>, 'CAT': <class 'gluon.html.CAT'>, 'CENTER': <class 'gluon.html.CENTER'>, 'CLEANUP': <class 'gluon.validators.CLEANUP'>, ...}"
p2924
sS'ccode'
p2925
S'<code object <module> at 0x32ab1b0, file "/opt/c...ications/cass1/controllers/cass_mgr.py", line 19>'
p2926
ssS'lnum'
p2927
I194
sS'lines'
p2928
(dp2929
I192
S'        else:'
p2930
sI193
S'            ccode = compile2(code,layer)'
p2931
sI194
S'        exec ccode in environment'
p2932
sI195
S'    except HTTP:'
p2933
sI196
S'        raise'
p2934
sI197
S'    except Exception, error:'
p2935
sI198
S'        # XXX Show exception in Wing IDE if running in debugger'
p2936
sI189
S'    try:'
p2937
sI190
S'        if type(code) == types.CodeType:'
p2938
sI191
S'            ccode = code'
p2939
ssS'call'
p2940
S"(code='#!/usr/bin/env python\\n# -*- coding: utf-8 -*-\\n#\\n...response._vars=response._caller(clusteroverview)\\n', environment={'A': <class 'gluon.html.A'>, 'Auth': <class 'gluon.tools.Auth'>, 'B': <class 'gluon.html.B'>, 'BEAUTIFY': <class 'gluon.html.BEAUTIFY'>, 'BODY': <class 'gluon.html.BODY'>, 'BR': <class 'gluon.html.BR'>, 'BUTTON': <class 'gluon.html.BUTTON'>, 'CAT': <class 'gluon.html.CAT'>, 'CENTER': <class 'gluon.html.CENTER'>, 'CLEANUP': <class 'gluon.validators.CLEANUP'>, ...}, layer='/opt/cassandra-dev/PROJECTS/Cassandra-Monitor/sr...erface/applications/cass1/controllers/cass_mgr.py')"
p2941
sS'func'
p2942
S'restricted'
p2943
sa(dp2944
g2919
S'/opt/cassandra-dev/PROJECTS/Cassandra-Monitor/src/CassandraMonitor/mycassandramanager/myinterface/applications/cass1/controllers/cass_mgr.py'
p2945
sg2921
(dp2946
sg2927
I65
sg2928
(dp2947
I54
S''
sI55
S'    return object(G)'
p2948
sI56
S''
sI57
S"if __name__ == '__main__':"
p2949
sI58
S'    data = d.MyData()'
p2950
sI59
S'    myjmx = data.mydict()'
p2951
sI60
S'    d = dict(myjmx)'
p2952
sI61
S'    print d'
p2953
sI62
S''
sI63
S''
ssg2940
S'()'
p2954
sg2942
S'<module>'
p2955
sa(dp2956
g2919
S'/opt/cassandra-dev/PROJECTS/Cassandra-Monitor/src/CassandraMonitor/mycassandramanager/myinterface/gluon/globals.py'
p2957
sg2921
(dp2958
S'self'
p2959
S'undefined'
p2960
sS'f'
S'<function clusteroverview>'
p2961
ssg2927
I149
sg2928
(dp2962
I144
S'        self.meta = Storage()      # used by web2py_ajax.html'
p2963
sI145
S'        self.menu = []             # used by the default view layout'
p2964
sI146
S'        self.files = []            # used by web2py_ajax.html'
p2965
sI147
S'        self.generic_patterns = [] # patterns to allow generic views'
p2966
sI148
S'        self._vars = None'
p2967
sI149
S'        self._caller = lambda f: f()'
p2968
sI150
S'        self._view_environment = None'
p2969
sI151
S'        self._custom_commit = None'
p2970
sI152
S'        self._custom_rollback = None'
p2971
sI153
S''
ssg2940
S'(f=<function clusteroverview>)'
p2972
sg2942
S'<lambda>'
p2973
sa(dp2974
g2919
S'/opt/cassandra-dev/PROJECTS/Cassandra-Monitor/src/CassandraMonitor/mycassandramanager/myinterface/applications/cass1/controllers/cass_mgr.py'
p2975
sg2921
(dp2976
S'plt'
p2977
g2960
ssg2927
I53
sg2928
(dp2978
I48
S'    G.add_node(H)'
p2979
sI49
S'    G.add_edge(1,2)'
p2980
sI50
S'    e=(2,3)'
p2981
sI51
S'    G.add_edge(*e)'
p2982
sI52
S'    nx.draw(G)'
p2983
sI53
S'    plt.show()'
p2984
sI54
S''
sI55
S'    return object(G)'
p2985
sI56
S''
sI57
S"if __name__ == '__main__':"
p2986
ssg2940
S'()'
p2987
sg2942
S'clusteroverview'
p2988
sasS'pyver'
p2989
S'Python 2.7.2: /opt/cassandra-dev/PROJECTS/Cassandra-Monitor/python-virtualenv/bin/python'
p2990
sS'session'
p2991
g56
(g57
g58
NtRp2992
(dp2993
g61
(dp2994
sg63
(lp2995
g56
(g65
g58
NtRp2996
(dp2997
g61
(dp2998
g69
I5
ssg70
Nsg63
(lp2999
g56
(g72
g58
NtRp3000
(dp3001
g61
(dp3002
sg70
g2996
sg63
(lp3003
g56
(g77
g58
NtRp3004
(dp3005
g61
(dp3006
g81
g82
ssg70
g3000
sg63
(lp3007
S'counter'
p3008
asbag56
(g77
g58
NtRp3009
(dp3010
g61
(dp3011
g88
g89
ssg70
g3000
sg63
(lp3012
S':'
asbag56
(g77
g58
NtRp3013
(dp3014
g61
(dp3015
sg70
g3000
sg63
(lp3016
g56
(g57
g58
NtRp3017
(dp3018
g61
(dp3019
g69
I5
ssg70
g3013
sg63
(lp3020
S'17'
p3021
asbasbasbasbasbsS'etype'
p3022
S"<type 'exceptions.NameError'>"
p3023
sS'date'
p3024
S'Thu Dec  8 14:49:09 2011'
p3025
sS'response'
p3026
g56
(g57
g58
NtRp3027
(dp3028
g61
(dp3029
sg63
(lp3030
g56
(g65
g58
NtRp3031
(dp3032
g61
(dp3033
g69
I5
ssg70
Nsg63
(lp3034
g56
(g72
g58
NtRp3035
(dp3036
g61
(dp3037
sg70
g3031
sg63
(lp3038
g56
(g77
g58
NtRp3039
(dp3040
g61
(dp3041
g81
g82
ssg70
g3035
sg63
(lp3042
g154
asbag56
(g77
g58
NtRp3043
(dp3044
g61
(dp3045
g88
g89
ssg70
g3035
sg63
(lp3046
S':'
asbag56
(g77
g58
NtRp3047
(dp3048
g61
(dp3049
sg70
g3035
sg63
(lp3050
g56
(g57
g58
NtRp3051
(dp3052
g61
(dp3053
g69
I5
ssg70
g3047
sg63
(lp3054
S'<cStringIO.StringO object at 0x3328dc0>'
p3055
asbasbasbag56
(g72
g58
NtRp3056
(dp3057
g61
(dp3058
sg70
g3031
sg63
(lp3059
g56
(g77
g58
NtRp3060
(dp3061
g61
(dp3062
g81
g82
ssg70
g3056
sg63
(lp3063
g220
asbag56
(g77
g58
NtRp3064
(dp3065
g61
(dp3066
g88
g89
ssg70
g3056
sg63
(lp3067
S':'
asbag56
(g77
g58
NtRp3068
(dp3069
g61
(dp3070
sg70
g3056
sg63
(lp3071
g56
(g57
g58
NtRp3072
(dp3073
g61
(dp3074
g69
I5
ssg70
g3068
sg63
(lp3075
g56
(g65
g58
NtRp3076
(dp3077
g61
(dp3078
g69
I4
ssg70
Nsg63
(lp3079
g56
(g72
g58
NtRp3080
(dp3081
g61
(dp3082
sg70
g3076
sg63
(lp3083
g56
(g77
g58
NtRp3084
(dp3085
g61
(dp3086
g81
g82
ssg70
g3080
sg63
(lp3087
S'session_id_cass1'
p3088
asbag56
(g77
g58
NtRp3089
(dp3090
g61
(dp3091
g88
g89
ssg70
g3080
sg63
(lp3092
S':'
asbag56
(g77
g58
NtRp3093
(dp3094
g61
(dp3095
sg70
g3080
sg63
(lp3096
g56
(g57
g58
NtRp3097
(dp3098
g61
(dp3099
g69
I4
ssg70
g3093
sg63
(lp3100
g56
(g65
g58
NtRp3101
(dp3102
g61
(dp3103
g69
I3
ssg70
Nsg63
(lp3104
g56
(g72
g58
NtRp3105
(dp3106
g61
(dp3107
sg70
g3101
sg63
(lp3108
g56
(g77
g58
NtRp3109
(dp3110
g61
(dp3111
g81
g82
ssg70
g3105
sg63
(lp3112
g270
asbag56
(g77
g58
NtRp3113
(dp3114
g61
(dp3115
g88
g89
ssg70
g3105
sg63
(lp3116
S':'
asbag56
(g77
g58
NtRp3117
(dp3118
g61
(dp3119
sg70
g3105
sg63
(lp3120
g56
(g57
g58
NtRp3121
(dp3122
g61
(dp3123
g69
I3
ssg70
g3117
sg63
(lp3124
S''
asbasbasbag56
(g72
g58
NtRp3125
(dp3126
g61
(dp3127
sg70
g3101
sg63
(lp3128
g56
(g77
g58
NtRp3129
(dp3130
g61
(dp3131
g81
g82
ssg70
g3125
sg63
(lp3132
g291
asbag56
(g77
g58
NtRp3133
(dp3134
g61
(dp3135
g88
g89
ssg70
g3125
sg63
(lp3136
S':'
asbag56
(g77
g58
NtRp3137
(dp3138
g61
(dp3139
sg70
g3125
sg63
(lp3140
g56
(g57
g58
NtRp3141
(dp3142
g61
(dp3143
g69
I3
ssg70
g3137
sg63
(lp3144
S''
asbasbasbag56
(g72
g58
NtRp3145
(dp3146
g61
(dp3147
sg70
g3101
sg63
(lp3148
g56
(g77
g58
NtRp3149
(dp3150
g61
(dp3151
g81
g82
ssg70
g3145
sg63
(lp3152
g312
asbag56
(g77
g58
NtRp3153
(dp3154
g61
(dp3155
g88
g89
ssg70
g3145
sg63
(lp3156
S':'
asbag56
(g77
g58
NtRp3157
(dp3158
g61
(dp3159
sg70
g3145
sg63
(lp3160
g56
(g57
g58
NtRp3161
(dp3162
g61
(dp3163
g69
I3
ssg70
g3157
sg63
(lp3164
S''
asbasbasbag56
(g72
g58
NtRp3165
(dp3166
g61
(dp3167
sg70
g3101
sg63
(lp3168
g56
(g77
g58
NtRp3169
(dp3170
g61
(dp3171
g81
g82
ssg70
g3165
sg63
(lp3172
g333
asbag56
(g77
g58
NtRp3173
(dp3174
g61
(dp3175
g88
g89
ssg70
g3165
sg63
(lp3176
S':'
asbag56
(g77
g58
NtRp3177
(dp3178
g61
(dp3179
sg70
g3165
sg63
(lp3180
g56
(g57
g58
NtRp3181
(dp3182
g61
(dp3183
g69
I3
ssg70
g3177
sg63
(lp3184
S''
asbasbasbag56
(g72
g58
NtRp3185
(dp3186
g61
(dp3187
sg70
g3101
sg63
(lp3188
g56
(g77
g58
NtRp3189
(dp3190
g61
(dp3191
g81
g82
ssg70
g3185
sg63
(lp3192
g354
asbag56
(g77
g58
NtRp3193
(dp3194
g61
(dp3195
g88
g89
ssg70
g3185
sg63
(lp3196
S':'
asbag56
(g77
g58
NtRp3197
(dp3198
g61
(dp3199
sg70
g3185
sg63
(lp3200
g56
(g57
g58
NtRp3201
(dp3202
g61
(dp3203
g69
I3
ssg70
g3197
sg63
(lp3204
S''
asbasbasbag56
(g72
g58
NtRp3205
(dp3206
g61
(dp3207
sg70
g3101
sg63
(lp3208
g56
(g77
g58
NtRp3209
(dp3210
g61
(dp3211
g81
g82
ssg70
g3205
sg63
(lp3212
g375
asbag56
(g77
g58
NtRp3213
(dp3214
g61
(dp3215
g88
g89
ssg70
g3205
sg63
(lp3216
S':'
asbag56
(g77
g58
NtRp3217
(dp3218
g61
(dp3219
sg70
g3205
sg63
(lp3220
g56
(g57
g58
NtRp3221
(dp3222
g61
(dp3223
g69
I3
ssg70
g3217
sg63
(lp3224
S'/'
asbasbasbag56
(g72
g58
NtRp3225
(dp3226
g61
(dp3227
sg70
g3101
sg63
(lp3228
g56
(g77
g58
NtRp3229
(dp3230
g61
(dp3231
g81
g82
ssg70
g3225
sg63
(lp3232
g396
asbag56
(g77
g58
NtRp3233
(dp3234
g61
(dp3235
g88
g89
ssg70
g3225
sg63
(lp3236
S':'
asbag56
(g77
g58
NtRp3237
(dp3238
g61
(dp3239
sg70
g3225
sg63
(lp3240
g56
(g57
g58
NtRp3241
(dp3242
g61
(dp3243
g69
I3
ssg70
g3237
sg63
(lp3244
S''
asbasbasbag56
(g72
g58
NtRp3245
(dp3246
g61
(dp3247
sg70
g3101
sg63
(lp3248
g56
(g77
g58
NtRp3249
(dp3250
g61
(dp3251
g81
g82
ssg70
g3245
sg63
(lp3252
g417
asbag56
(g77
g58
NtRp3253
(dp3254
g61
(dp3255
g88
g89
ssg70
g3245
sg63
(lp3256
S':'
asbag56
(g77
g58
NtRp3257
(dp3258
g61
(dp3259
sg70
g3245
sg63
(lp3260
g56
(g57
g58
NtRp3261
(dp3262
g61
(dp3263
g69
I3
ssg70
g3257
sg63
(lp3264
S''
asbasbasbasbasbasbasbasbasbasbasbag56
(g72
g58
NtRp3265
(dp3266
g61
(dp3267
sg70
g3031
sg63
(lp3268
g56
(g77
g58
NtRp3269
(dp3270
g61
(dp3271
g81
g82
ssg70
g3265
sg63
(lp3272
S'files'
p3273
asbag56
(g77
g58
NtRp3274
(dp3275
g61
(dp3276
g88
g89
ssg70
g3265
sg63
(lp3277
S':'
asbag56
(g77
g58
NtRp3278
(dp3279
g61
(dp3280
sg70
g3265
sg63
(lp3281
g56
(g57
g58
NtRp3282
(dp3283
g61
(dp3284
g69
I5
ssg70
g3278
sg63
(lp3285
g56
(g65
g58
NtRp3286
(dp3287
g61
(dp3288
g69
I4
ssg70
Nsg63
(lp3289
g56
(g72
g58
NtRp3290
(dp3291
g61
(dp3292
sg70
g3286
sg63
(lp3293
g56
(g77
g58
NtRp3294
(dp3295
g61
(dp3296
sg70
g3290
sg63
(lp3297
g56
(g57
g58
NtRp3298
(dp3299
g61
(dp3300
g69
I4
ssg70
g3294
sg63
(lp3301
S'/cass1/static/plugin_sortable/jquery.ui.core.js'
p3302
asbasbasbag56
(g72
g58
NtRp3303
(dp3304
g61
(dp3305
sg70
g3286
sg63
(lp3306
g56
(g77
g58
NtRp3307
(dp3308
g61
(dp3309
sg70
g3303
sg63
(lp3310
g56
(g57
g58
NtRp3311
(dp3312
g61
(dp3313
g69
I4
ssg70
g3307
sg63
(lp3314
S'/cass1/static/plugin_sortable/jquery.ui.sortable.js'
p3315
asbasbasbasbasbasbasbag56
(g72
g58
NtRp3316
(dp3317
g61
(dp3318
sg70
g3031
sg63
(lp3319
g56
(g77
g58
NtRp3320
(dp3321
g61
(dp3322
g81
g82
ssg70
g3316
sg63
(lp3323
S'flash'
p3324
asbag56
(g77
g58
NtRp3325
(dp3326
g61
(dp3327
g88
g89
ssg70
g3316
sg63
(lp3328
S':'
asbag56
(g77
g58
NtRp3329
(dp3330
g61
(dp3331
sg70
g3316
sg63
(lp3332
g56
(g57
g58
NtRp3333
(dp3334
g61
(dp3335
g69
I5
ssg70
g3329
sg63
(lp3336
S''
asbasbasbag56
(g72
g58
NtRp3337
(dp3338
g61
(dp3339
sg70
g3031
sg63
(lp3340
g56
(g77
g58
NtRp3341
(dp3342
g61
(dp3343
g81
g82
ssg70
g3337
sg63
(lp3344
S'generic_patterns'
p3345
asbag56
(g77
g58
NtRp3346
(dp3347
g61
(dp3348
g88
g89
ssg70
g3337
sg63
(lp3349
S':'
asbag56
(g77
g58
NtRp3350
(dp3351
g61
(dp3352
sg70
g3337
sg63
(lp3353
g56
(g57
g58
NtRp3354
(dp3355
g61
(dp3356
g69
I5
ssg70
g3350
sg63
(lp3357
g56
(g65
g58
NtRp3358
(dp3359
g61
(dp3360
g69
I4
ssg70
Nsg63
(lp3361
g56
(g72
g58
NtRp3362
(dp3363
g61
(dp3364
sg70
g3358
sg63
(lp3365
g56
(g77
g58
NtRp3366
(dp3367
g61
(dp3368
sg70
g3362
sg63
(lp3369
g56
(g57
g58
NtRp3370
(dp3371
g61
(dp3372
g69
I4
ssg70
g3366
sg63
(lp3373
S'*'
asbasbasbasbasbasbasbag56
(g72
g58
NtRp3374
(dp3375
g61
(dp3376
sg70
g3031
sg63
(lp3377
g56
(g77
g58
NtRp3378
(dp3379
g61
(dp3380
g81
g82
ssg70
g3374
sg63
(lp3381
S'headers'
p3382
asbag56
(g77
g58
NtRp3383
(dp3384
g61
(dp3385
g88
g89
ssg70
g3374
sg63
(lp3386
S':'
asbag56
(g77
g58
NtRp3387
(dp3388
g61
(dp3389
sg70
g3374
sg63
(lp3390
g56
(g57
g58
NtRp3391
(dp3392
g61
(dp3393
g69
I5
ssg70
g3387
sg63
(lp3394
g56
(g65
g58
NtRp3395
(dp3396
g61
(dp3397
g69
I4
ssg70
Nsg63
(lp3398
g56
(g72
g58
NtRp3399
(dp3400
g61
(dp3401
sg70
g3395
sg63
(lp3402
g56
(g77
g58
NtRp3403
(dp3404
g61
(dp3405
g81
g82
ssg70
g3399
sg63
(lp3406
S'Cache-Control'
p3407
asbag56
(g77
g58
NtRp3408
(dp3409
g61
(dp3410
g88
g89
ssg70
g3399
sg63
(lp3411
S':'
asbag56
(g77
g58
NtRp3412
(dp3413
g61
(dp3414
sg70
g3399
sg63
(lp3415
g56
(g57
g58
NtRp3416
(dp3417
g61
(dp3418
g69
I4
ssg70
g3412
sg63
(lp3419
S'no-store, no-cache, must-revalidate, post-check=0, pre-check=0'
p3420
asbasbasbag56
(g72
g58
NtRp3421
(dp3422
g61
(dp3423
sg70
g3395
sg63
(lp3424
g56
(g77
g58
NtRp3425
(dp3426
g61
(dp3427
g81
g82
ssg70
g3421
sg63
(lp3428
S'Content-Type'
p3429
asbag56
(g77
g58
NtRp3430
(dp3431
g61
(dp3432
g88
g89
ssg70
g3421
sg63
(lp3433
S':'
asbag56
(g77
g58
NtRp3434
(dp3435
g61
(dp3436
sg70
g3421
sg63
(lp3437
g56
(g57
g58
NtRp3438
(dp3439
g61
(dp3440
g69
I4
ssg70
g3434
sg63
(lp3441
S'text/html; charset=utf-8'
p3442
asbasbasbag56
(g72
g58
NtRp3443
(dp3444
g61
(dp3445
sg70
g3395
sg63
(lp3446
g56
(g77
g58
NtRp3447
(dp3448
g61
(dp3449
g81
g82
ssg70
g3443
sg63
(lp3450
S'Expires'
p3451
asbag56
(g77
g58
NtRp3452
(dp3453
g61
(dp3454
g88
g89
ssg70
g3443
sg63
(lp3455
S':'
asbag56
(g77
g58
NtRp3456
(dp3457
g61
(dp3458
sg70
g3443
sg63
(lp3459
g56
(g57
g58
NtRp3460
(dp3461
g61
(dp3462
g69
I4
ssg70
g3456
sg63
(lp3463
S'Thu, 08 Dec 2011 14:49:09 GMT'
p3464
asbasbasbag56
(g72
g58
NtRp3465
(dp3466
g61
(dp3467
sg70
g3395
sg63
(lp3468
g56
(g77
g58
NtRp3469
(dp3470
g61
(dp3471
g81
g82
ssg70
g3465
sg63
(lp3472
S'Pragma'
p3473
asbag56
(g77
g58
NtRp3474
(dp3475
g61
(dp3476
g88
g89
ssg70
g3465
sg63
(lp3477
S':'
asbag56
(g77
g58
NtRp3478
(dp3479
g61
(dp3480
sg70
g3465
sg63
(lp3481
g56
(g57
g58
NtRp3482
(dp3483
g61
(dp3484
g69
I4
ssg70
g3478
sg63
(lp3485
S'no-cache'
p3486
asbasbasbag56
(g72
g58
NtRp3487
(dp3488
g61
(dp3489
sg70
g3395
sg63
(lp3490
g56
(g77
g58
NtRp3491
(dp3492
g61
(dp3493
g81
g82
ssg70
g3487
sg63
(lp3494
S'X-Powered-By'
p3495
asbag56
(g77
g58
NtRp3496
(dp3497
g61
(dp3498
g88
g89
ssg70
g3487
sg63
(lp3499
S':'
asbag56
(g77
g58
NtRp3500
(dp3501
g61
(dp3502
sg70
g3487
sg63
(lp3503
g56
(g57
g58
NtRp3504
(dp3505
g61
(dp3506
g69
I4
ssg70
g3500
sg63
(lp3507
S'web2py'
p3508
asbasbasbasbasbasbasbag56
(g72
g58
NtRp3509
(dp3510
g61
(dp3511
sg70
g3031
sg63
(lp3512
g56
(g77
g58
NtRp3513
(dp3514
g61
(dp3515
g81
g82
ssg70
g3509
sg63
(lp3516
S'menu'
p3517
asbag56
(g77
g58
NtRp3518
(dp3519
g61
(dp3520
g88
g89
ssg70
g3509
sg63
(lp3521
S':'
asbag56
(g77
g58
NtRp3522
(dp3523
g61
(dp3524
sg70
g3509
sg63
(lp3525
g56
(g57
g58
NtRp3526
(dp3527
g61
(dp3528
g69
I5
ssg70
g3522
sg63
(lp3529
g56
(g65
g58
NtRp3530
(dp3531
g61
(dp3532
g69
I4
ssg70
Nsg63
(lp3533
g56
(g72
g58
NtRp3534
(dp3535
g61
(dp3536
sg70
g3530
sg63
(lp3537
g56
(g77
g58
NtRp3538
(dp3539
g61
(dp3540
sg70
g3534
sg63
(lp3541
g56
(g57
g58
NtRp3542
(dp3543
g61
(dp3544
g69
I4
ssg70
g3538
sg63
(lp3545
g56
(g65
g58
NtRp3546
(dp3547
g61
(dp3548
g69
I3
ssg70
Nsg63
(lp3549
g56
(g72
g58
NtRp3550
(dp3551
g61
(dp3552
sg70
g3546
sg63
(lp3553
g56
(g77
g58
NtRp3554
(dp3555
g61
(dp3556
sg70
g3550
sg63
(lp3557
g56
(g57
g58
NtRp3558
(dp3559
g61
(dp3560
g69
I3
ssg70
g3554
sg63
(lp3561
cgluon.languages
lazyT_unpickle
p3562
(S's\x08\x00\x00\x00Cass Mgr'
tRp3563
asbasbasbag56
(g72
g58
NtRp3564
(dp3565
g61
(dp3566
sg70
g3546
sg63
(lp3567
g56
(g77
g58
NtRp3568
(dp3569
g61
(dp3570
sg70
g3564
sg63
(lp3571
g56
(g57
g58
NtRp3572
(dp3573
g61
(dp3574
g69
I3
ssg70
g3568
sg63
(lp3575
g99
asbasbasbag56
(g72
g58
NtRp3576
(dp3577
g61
(dp3578
sg70
g3546
sg63
(lp3579
g56
(g77
g58
NtRp3580
(dp3581
g61
(dp3582
sg70
g3576
sg63
(lp3583
g56
(g57
g58
NtRp3584
(dp3585
g61
(dp3586
g69
I3
ssg70
g3580
sg63
(lp3587
S'/cass1/cass_mgr/index'
p3588
asbasbasbag56
(g72
g58
NtRp3589
(dp3590
g61
(dp3591
sg70
g3546
sg63
(lp3592
g56
(g77
g58
NtRp3593
(dp3594
g61
(dp3595
sg70
g3589
sg63
(lp3596
g56
(g57
g58
NtRp3597
(dp3598
g61
(dp3599
g69
I3
ssg70
g3593
sg63
(lp3600
g56
(g65
g58
NtRp3601
(dp3602
g61
(dp3603
g69
I2
ssg70
Nsg63
(lp3604
sbasbasbasbasbasbasbasbag56
(g72
g58
NtRp3605
(dp3606
g61
(dp3607
sg70
g3530
sg63
(lp3608
g56
(g77
g58
NtRp3609
(dp3610
g61
(dp3611
sg70
g3605
sg63
(lp3612
g56
(g57
g58
NtRp3613
(dp3614
g61
(dp3615
g69
I4
ssg70
g3609
sg63
(lp3616
g56
(g65
g58
NtRp3617
(dp3618
g61
(dp3619
g69
I3
ssg70
Nsg63
(lp3620
g56
(g72
g58
NtRp3621
(dp3622
g61
(dp3623
sg70
g3617
sg63
(lp3624
g56
(g77
g58
NtRp3625
(dp3626
g61
(dp3627
sg70
g3621
sg63
(lp3628
g56
(g57
g58
NtRp3629
(dp3630
g61
(dp3631
g69
I3
ssg70
g3625
sg63
(lp3632
g3562
(S's\t\x00\x00\x00Cass Perf'
tRp3633
asbasbasbag56
(g72
g58
NtRp3634
(dp3635
g61
(dp3636
sg70
g3617
sg63
(lp3637
g56
(g77
g58
NtRp3638
(dp3639
g61
(dp3640
sg70
g3634
sg63
(lp3641
g56
(g57
g58
NtRp3642
(dp3643
g61
(dp3644
g69
I3
ssg70
g3638
sg63
(lp3645
g99
asbasbasbag56
(g72
g58
NtRp3646
(dp3647
g61
(dp3648
sg70
g3617
sg63
(lp3649
g56
(g77
g58
NtRp3650
(dp3651
g61
(dp3652
sg70
g3646
sg63
(lp3653
g56
(g57
g58
NtRp3654
(dp3655
g61
(dp3656
g69
I3
ssg70
g3650
sg63
(lp3657
S'/cass1/cass_perf/index'
p3658
asbasbasbag56
(g72
g58
NtRp3659
(dp3660
g61
(dp3661
sg70
g3617
sg63
(lp3662
g56
(g77
g58
NtRp3663
(dp3664
g61
(dp3665
sg70
g3659
sg63
(lp3666
g56
(g57
g58
NtRp3667
(dp3668
g61
(dp3669
g69
I3
ssg70
g3663
sg63
(lp3670
g56
(g65
g58
NtRp3671
(dp3672
g61
(dp3673
g69
I2
ssg70
Nsg63
(lp3674
sbasbasbasbasbasbasbasbag56
(g72
g58
NtRp3675
(dp3676
g61
(dp3677
sg70
g3530
sg63
(lp3678
g56
(g77
g58
NtRp3679
(dp3680
g61
(dp3681
sg70
g3675
sg63
(lp3682
g56
(g57
g58
NtRp3683
(dp3684
g61
(dp3685
g69
I4
ssg70
g3679
sg63
(lp3686
g56
(g65
g58
NtRp3687
(dp3688
g61
(dp3689
g69
I3
ssg70
Nsg63
(lp3690
g56
(g72
g58
NtRp3691
(dp3692
g61
(dp3693
sg70
g3687
sg63
(lp3694
g56
(g77
g58
NtRp3695
(dp3696
g61
(dp3697
sg70
g3691
sg63
(lp3698
g56
(g57
g58
NtRp3699
(dp3700
g61
(dp3701
g69
I3
ssg70
g3695
sg63
(lp3702
g3562
(S's\t\x00\x00\x00Cass Stat'
tRp3703
asbasbasbag56
(g72
g58
NtRp3704
(dp3705
g61
(dp3706
sg70
g3687
sg63
(lp3707
g56
(g77
g58
NtRp3708
(dp3709
g61
(dp3710
sg70
g3704
sg63
(lp3711
g56
(g57
g58
NtRp3712
(dp3713
g61
(dp3714
g69
I3
ssg70
g3708
sg63
(lp3715
g99
asbasbasbag56
(g72
g58
NtRp3716
(dp3717
g61
(dp3718
sg70
g3687
sg63
(lp3719
g56
(g77
g58
NtRp3720
(dp3721
g61
(dp3722
sg70
g3716
sg63
(lp3723
g56
(g57
g58
NtRp3724
(dp3725
g61
(dp3726
g69
I3
ssg70
g3720
sg63
(lp3727
S'/cass1/cass_internals/index'
p3728
asbasbasbag56
(g72
g58
NtRp3729
(dp3730
g61
(dp3731
sg70
g3687
sg63
(lp3732
g56
(g77
g58
NtRp3733
(dp3734
g61
(dp3735
sg70
g3729
sg63
(lp3736
g56
(g57
g58
NtRp3737
(dp3738
g61
(dp3739
g69
I3
ssg70
g3733
sg63
(lp3740
g56
(g65
g58
NtRp3741
(dp3742
g61
(dp3743
g69
I2
ssg70
Nsg63
(lp3744
sbasbasbasbasbasbasbasbag56
(g72
g58
NtRp3745
(dp3746
g61
(dp3747
sg70
g3530
sg63
(lp3748
g56
(g77
g58
NtRp3749
(dp3750
g61
(dp3751
sg70
g3745
sg63
(lp3752
g56
(g57
g58
NtRp3753
(dp3754
g61
(dp3755
g69
I4
ssg70
g3749
sg63
(lp3756
g56
(g65
g58
NtRp3757
(dp3758
g61
(dp3759
g69
I3
ssg70
Nsg63
(lp3760
g56
(g72
g58
NtRp3761
(dp3762
g61
(dp3763
sg70
g3757
sg63
(lp3764
g56
(g77
g58
NtRp3765
(dp3766
g61
(dp3767
sg70
g3761
sg63
(lp3768
g56
(g57
g58
NtRp3769
(dp3770
g61
(dp3771
g69
I3
ssg70
g3765
sg63
(lp3772
g3562
(S's\t\x00\x00\x00MySQL Mgr'
tRp3773
asbasbasbag56
(g72
g58
NtRp3774
(dp3775
g61
(dp3776
sg70
g3757
sg63
(lp3777
g56
(g77
g58
NtRp3778
(dp3779
g61
(dp3780
sg70
g3774
sg63
(lp3781
g56
(g57
g58
NtRp3782
(dp3783
g61
(dp3784
g69
I3
ssg70
g3778
sg63
(lp3785
g99
asbasbasbag56
(g72
g58
NtRp3786
(dp3787
g61
(dp3788
sg70
g3757
sg63
(lp3789
g56
(g77
g58
NtRp3790
(dp3791
g61
(dp3792
sg70
g3786
sg63
(lp3793
g56
(g57
g58
NtRp3794
(dp3795
g61
(dp3796
g69
I3
ssg70
g3790
sg63
(lp3797
S'/cass1/mysql_mgr/index'
p3798
asbasbasbag56
(g72
g58
NtRp3799
(dp3800
g61
(dp3801
sg70
g3757
sg63
(lp3802
g56
(g77
g58
NtRp3803
(dp3804
g61
(dp3805
sg70
g3799
sg63
(lp3806
g56
(g57
g58
NtRp3807
(dp3808
g61
(dp3809
g69
I3
ssg70
g3803
sg63
(lp3810
g56
(g65
g58
NtRp3811
(dp3812
g61
(dp3813
g69
I2
ssg70
Nsg63
(lp3814
sbasbasbasbasbasbasbasbag56
(g72
g58
NtRp3815
(dp3816
g61
(dp3817
sg70
g3530
sg63
(lp3818
g56
(g77
g58
NtRp3819
(dp3820
g61
(dp3821
sg70
g3815
sg63
(lp3822
g56
(g57
g58
NtRp3823
(dp3824
g61
(dp3825
g69
I4
ssg70
g3819
sg63
(lp3826
g56
(g65
g58
NtRp3827
(dp3828
g61
(dp3829
g69
I3
ssg70
Nsg63
(lp3830
g56
(g72
g58
NtRp3831
(dp3832
g61
(dp3833
sg70
g3827
sg63
(lp3834
g56
(g77
g58
NtRp3835
(dp3836
g61
(dp3837
sg70
g3831
sg63
(lp3838
g56
(g57
g58
NtRp3839
(dp3840
g61
(dp3841
g69
I3
ssg70
g3835
sg63
(lp3842
g3562
(S's\t\x00\x00\x00MySQL Int'
tRp3843
asbasbasbag56
(g72
g58
NtRp3844
(dp3845
g61
(dp3846
sg70
g3827
sg63
(lp3847
g56
(g77
g58
NtRp3848
(dp3849
g61
(dp3850
sg70
g3844
sg63
(lp3851
g56
(g57
g58
NtRp3852
(dp3853
g61
(dp3854
g69
I3
ssg70
g3848
sg63
(lp3855
g99
asbasbasbag56
(g72
g58
NtRp3856
(dp3857
g61
(dp3858
sg70
g3827
sg63
(lp3859
g56
(g77
g58
NtRp3860
(dp3861
g61
(dp3862
sg70
g3856
sg63
(lp3863
g56
(g57
g58
NtRp3864
(dp3865
g61
(dp3866
g69
I3
ssg70
g3860
sg63
(lp3867
S'/cass1/mysql_perf/index'
p3868
asbasbasbag56
(g72
g58
NtRp3869
(dp3870
g61
(dp3871
sg70
g3827
sg63
(lp3872
g56
(g77
g58
NtRp3873
(dp3874
g61
(dp3875
sg70
g3869
sg63
(lp3876
g56
(g57
g58
NtRp3877
(dp3878
g61
(dp3879
g69
I3
ssg70
g3873
sg63
(lp3880
g56
(g65
g58
NtRp3881
(dp3882
g61
(dp3883
g69
I2
ssg70
Nsg63
(lp3884
sbasbasbasbasbasbasbasbag56
(g72
g58
NtRp3885
(dp3886
g61
(dp3887
sg70
g3530
sg63
(lp3888
g56
(g77
g58
NtRp3889
(dp3890
g61
(dp3891
sg70
g3885
sg63
(lp3892
g56
(g57
g58
NtRp3893
(dp3894
g61
(dp3895
g69
I4
ssg70
g3889
sg63
(lp3896
g56
(g65
g58
NtRp3897
(dp3898
g61
(dp3899
g69
I3
ssg70
Nsg63
(lp3900
g56
(g72
g58
NtRp3901
(dp3902
g61
(dp3903
sg70
g3897
sg63
(lp3904
g56
(g77
g58
NtRp3905
(dp3906
g61
(dp3907
sg70
g3901
sg63
(lp3908
g56
(g57
g58
NtRp3909
(dp3910
g61
(dp3911
g69
I3
ssg70
g3905
sg63
(lp3912
g3562
(S't\x06\x00\x00\x00Hadoop'
tRp3913
asbasbasbag56
(g72
g58
NtRp3914
(dp3915
g61
(dp3916
sg70
g3897
sg63
(lp3917
g56
(g77
g58
NtRp3918
(dp3919
g61
(dp3920
sg70
g3914
sg63
(lp3921
g56
(g57
g58
NtRp3922
(dp3923
g61
(dp3924
g69
I3
ssg70
g3918
sg63
(lp3925
g99
asbasbasbag56
(g72
g58
NtRp3926
(dp3927
g61
(dp3928
sg70
g3897
sg63
(lp3929
g56
(g77
g58
NtRp3930
(dp3931
g61
(dp3932
sg70
g3926
sg63
(lp3933
g56
(g57
g58
NtRp3934
(dp3935
g61
(dp3936
g69
I3
ssg70
g3930
sg63
(lp3937
S'/cass1/hadoop/index'
p3938
asbasbasbag56
(g72
g58
NtRp3939
(dp3940
g61
(dp3941
sg70
g3897
sg63
(lp3942
g56
(g77
g58
NtRp3943
(dp3944
g61
(dp3945
sg70
g3939
sg63
(lp3946
g56
(g57
g58
NtRp3947
(dp3948
g61
(dp3949
g69
I3
ssg70
g3943
sg63
(lp3950
g56
(g65
g58
NtRp3951
(dp3952
g61
(dp3953
g69
I2
ssg70
Nsg63
(lp3954
sbasbasbasbasbasbasbasbag56
(g72
g58
NtRp3955
(dp3956
g61
(dp3957
sg70
g3530
sg63
(lp3958
g56
(g77
g58
NtRp3959
(dp3960
g61
(dp3961
sg70
g3955
sg63
(lp3962
g56
(g57
g58
NtRp3963
(dp3964
g61
(dp3965
g69
I4
ssg70
g3959
sg63
(lp3966
g56
(g65
g58
NtRp3967
(dp3968
g61
(dp3969
g69
I3
ssg70
Nsg63
(lp3970
g56
(g72
g58
NtRp3971
(dp3972
g61
(dp3973
sg70
g3967
sg63
(lp3974
g56
(g77
g58
NtRp3975
(dp3976
g61
(dp3977
sg70
g3971
sg63
(lp3978
g56
(g57
g58
NtRp3979
(dp3980
g61
(dp3981
g69
I3
ssg70
g3975
sg63
(lp3982
g3562
(S't\x05\x00\x00\x00STORM'
tRp3983
asbasbasbag56
(g72
g58
NtRp3984
(dp3985
g61
(dp3986
sg70
g3967
sg63
(lp3987
g56
(g77
g58
NtRp3988
(dp3989
g61
(dp3990
sg70
g3984
sg63
(lp3991
g56
(g57
g58
NtRp3992
(dp3993
g61
(dp3994
g69
I3
ssg70
g3988
sg63
(lp3995
g99
asbasbasbag56
(g72
g58
NtRp3996
(dp3997
g61
(dp3998
sg70
g3967
sg63
(lp3999
g56
(g77
g58
NtRp4000
(dp4001
g61
(dp4002
sg70
g3996
sg63
(lp4003
g56
(g57
g58
NtRp4004
(dp4005
g61
(dp4006
g69
I3
ssg70
g4000
sg63
(lp4007
S'/cass1/storm/index'
p4008
asbasbasbag56
(g72
g58
NtRp4009
(dp4010
g61
(dp4011
sg70
g3967
sg63
(lp4012
g56
(g77
g58
NtRp4013
(dp4014
g61
(dp4015
sg70
g4009
sg63
(lp4016
g56
(g57
g58
NtRp4017
(dp4018
g61
(dp4019
g69
I3
ssg70
g4013
sg63
(lp4020
g56
(g65
g58
NtRp4021
(dp4022
g61
(dp4023
g69
I2
ssg70
Nsg63
(lp4024
sbasbasbasbasbasbasbasbasbasbasbasbag56
(g72
g58
NtRp4025
(dp4026
g61
(dp4027
sg70
g3031
sg63
(lp4028
g56
(g77
g58
NtRp4029
(dp4030
g61
(dp4031
g81
g82
ssg70
g4025
sg63
(lp4032
S'meta'
p4033
asbag56
(g77
g58
NtRp4034
(dp4035
g61
(dp4036
g88
g89
ssg70
g4025
sg63
(lp4037
S':'
asbag56
(g77
g58
NtRp4038
(dp4039
g61
(dp4040
sg70
g4025
sg63
(lp4041
g56
(g57
g58
NtRp4042
(dp4043
g61
(dp4044
g69
I5
ssg70
g4038
sg63
(lp4045
g56
(g65
g58
NtRp4046
(dp4047
g61
(dp4048
g69
I4
ssg70
Nsg63
(lp4049
g56
(g72
g58
NtRp4050
(dp4051
g61
(dp4052
sg70
g4046
sg63
(lp4053
g56
(g77
g58
NtRp4054
(dp4055
g61
(dp4056
g81
g82
ssg70
g4050
sg63
(lp4057
S'author'
p4058
asbag56
(g77
g58
NtRp4059
(dp4060
g61
(dp4061
g88
g89
ssg70
g4050
sg63
(lp4062
S':'
asbag56
(g77
g58
NtRp4063
(dp4064
g61
(dp4065
sg70
g4050
sg63
(lp4066
g56
(g57
g58
NtRp4067
(dp4068
g61
(dp4069
g69
I4
ssg70
g4063
sg63
(lp4070
S'chris <chris@cheynes.org>'
p4071
asbasbasbag56
(g72
g58
NtRp4072
(dp4073
g61
(dp4074
sg70
g4046
sg63
(lp4075
g56
(g77
g58
NtRp4076
(dp4077
g61
(dp4078
g81
g82
ssg70
g4072
sg63
(lp4079
S'description'
p4080
asbag56
(g77
g58
NtRp4081
(dp4082
g61
(dp4083
g88
g89
ssg70
g4072
sg63
(lp4084
S':'
asbag56
(g77
g58
NtRp4085
(dp4086
g61
(dp4087
sg70
g4072
sg63
(lp4088
g56
(g57
g58
NtRp4089
(dp4090
g61
(dp4091
g69
I4
ssg70
g4085
sg63
(lp4092
S'Test application 1'
p4093
asbasbasbag56
(g72
g58
NtRp4094
(dp4095
g61
(dp4096
sg70
g4046
sg63
(lp4097
g56
(g77
g58
NtRp4098
(dp4099
g61
(dp4100
g81
g82
ssg70
g4094
sg63
(lp4101
S'keywords'
p4102
asbag56
(g77
g58
NtRp4103
(dp4104
g61
(dp4105
g88
g89
ssg70
g4094
sg63
(lp4106
S':'
asbag56
(g77
g58
NtRp4107
(dp4108
g61
(dp4109
sg70
g4094
sg63
(lp4110
g56
(g57
g58
NtRp4111
(dp4112
g61
(dp4113
g69
I4
ssg70
g4107
sg63
(lp4114
S'cassandra,bigdata,nosql'
p4115
asbasbasbasbasbasbasbag56
(g72
g58
NtRp4116
(dp4117
g61
(dp4118
sg70
g3031
sg63
(lp4119
g56
(g77
g58
NtRp4120
(dp4121
g61
(dp4122
g81
g82
ssg70
g4116
sg63
(lp4123
S'postprocessing'
p4124
asbag56
(g77
g58
NtRp4125
(dp4126
g61
(dp4127
g88
g89
ssg70
g4116
sg63
(lp4128
S':'
asbag56
(g77
g58
NtRp4129
(dp4130
g61
(dp4131
sg70
g4116
sg63
(lp4132
g56
(g57
g58
NtRp4133
(dp4134
g61
(dp4135
g69
I5
ssg70
g4129
sg63
(lp4136
g56
(g65
g58
NtRp4137
(dp4138
g61
(dp4139
g69
I4
ssg70
Nsg63
(lp4140
sbasbasbasbag56
(g72
g58
NtRp4141
(dp4142
g61
(dp4143
sg70
g3031
sg63
(lp4144
g56
(g77
g58
NtRp4145
(dp4146
g61
(dp4147
g81
g82
ssg70
g4141
sg63
(lp4148
S'session_file'
p4149
asbag56
(g77
g58
NtRp4150
(dp4151
g61
(dp4152
g88
g89
ssg70
g4141
sg63
(lp4153
S':'
asbag56
(g77
g58
NtRp4154
(dp4155
g61
(dp4156
sg70
g4141
sg63
(lp4157
g56
(g57
g58
NtRp4158
(dp4159
g61
(dp4160
g69
I5
ssg70
g4154
sg63
(lp4161
S"<open file '/opt/cassandra-dev/PROJECTS/Cassandra-Monitor/src/CassandraMonitor/mycassandramanager/myinterface/applications/cass1/sessions/127.0.0.1-5bed0d91-125b-469b-bd52-fa11514160e4', mode 'rb+' at 0x18636f0>"
p4162
asbasbasbag56
(g72
g58
NtRp4163
(dp4164
g61
(dp4165
sg70
g3031
sg63
(lp4166
g56
(g77
g58
NtRp4167
(dp4168
g61
(dp4169
g81
g82
ssg70
g4163
sg63
(lp4170
S'session_filename'
p4171
asbag56
(g77
g58
NtRp4172
(dp4173
g61
(dp4174
g88
g89
ssg70
g4163
sg63
(lp4175
S':'
asbag56
(g77
g58
NtRp4176
(dp4177
g61
(dp4178
sg70
g4163
sg63
(lp4179
g56
(g57
g58
NtRp4180
(dp4181
g61
(dp4182
g69
I5
ssg70
g4176
sg63
(lp4183
S'/opt/cassandra-dev/PROJECTS/Cassandra-Monitor/src/CassandraMonitor/mycassandramanager/myinterface/applications/cass1/sessions/127.0.0.1-5bed0d91-125b-469b-bd52-fa11514160e4'
p4184
asbasbasbag56
(g72
g58
NtRp4185
(dp4186
g61
(dp4187
sg70
g3031
sg63
(lp4188
g56
(g77
g58
NtRp4189
(dp4190
g61
(dp4191
g81
g82
ssg70
g4185
sg63
(lp4192
S'session_id'
p4193
asbag56
(g77
g58
NtRp4194
(dp4195
g61
(dp4196
g88
g89
ssg70
g4185
sg63
(lp4197
S':'
asbag56
(g77
g58
NtRp4198
(dp4199
g61
(dp4200
sg70
g4185
sg63
(lp4201
g56
(g57
g58
NtRp4202
(dp4203
g61
(dp4204
g69
I5
ssg70
g4198
sg63
(lp4205
S'127.0.0.1-5bed0d91-125b-469b-bd52-fa11514160e4'
p4206
asbasbasbag56
(g72
g58
NtRp4207
(dp4208
g61
(dp4209
sg70
g3031
sg63
(lp4210
g56
(g77
g58
NtRp4211
(dp4212
g61
(dp4213
g81
g82
ssg70
g4207
sg63
(lp4214
S'session_id_name'
p4215
asbag56
(g77
g58
NtRp4216
(dp4217
g61
(dp4218
g88
g89
ssg70
g4207
sg63
(lp4219
S':'
asbag56
(g77
g58
NtRp4220
(dp4221
g61
(dp4222
sg70
g4207
sg63
(lp4223
g56
(g57
g58
NtRp4224
(dp4225
g61
(dp4226
g69
I5
ssg70
g4220
sg63
(lp4227
g3088
asbasbasbag56
(g72
g58
NtRp4228
(dp4229
g61
(dp4230
sg70
g3031
sg63
(lp4231
g56
(g77
g58
NtRp4232
(dp4233
g61
(dp4234
g81
g82
ssg70
g4228
sg63
(lp4235
S'session_locked'
p4236
asbag56
(g77
g58
NtRp4237
(dp4238
g61
(dp4239
g88
g89
ssg70
g4228
sg63
(lp4240
S':'
asbag56
(g77
g58
NtRp4241
(dp4242
g61
(dp4243
sg70
g4228
sg63
(lp4244
g56
(g57
g58
NtRp4245
(dp4246
g61
(dp4247
g69
I5
ssg70
g4241
sg63
(lp4248
g1634
asbasbasbag56
(g72
g58
NtRp4249
(dp4250
g61
(dp4251
sg70
g3031
sg63
(lp4252
g56
(g77
g58
NtRp4253
(dp4254
g61
(dp4255
g81
g82
ssg70
g4249
sg63
(lp4256
S'session_new'
p4257
asbag56
(g77
g58
NtRp4258
(dp4259
g61
(dp4260
g88
g89
ssg70
g4249
sg63
(lp4261
S':'
asbag56
(g77
g58
NtRp4262
(dp4263
g61
(dp4264
sg70
g4249
sg63
(lp4265
g56
(g57
g58
NtRp4266
(dp4267
g61
(dp4268
g69
I5
ssg70
g4262
sg63
(lp4269
g99
asbasbasbag56
(g72
g58
NtRp4270
(dp4271
g61
(dp4272
sg70
g3031
sg63
(lp4273
g56
(g77
g58
NtRp4274
(dp4275
g61
(dp4276
g81
g82
ssg70
g4270
sg63
(lp4277
S'status'
p4278
asbag56
(g77
g58
NtRp4279
(dp4280
g61
(dp4281
g88
g89
ssg70
g4270
sg63
(lp4282
S':'
asbag56
(g77
g58
NtRp4283
(dp4284
g61
(dp4285
sg70
g4270
sg63
(lp4286
g56
(g57
g58
NtRp4287
(dp4288
g61
(dp4289
g69
I5
ssg70
g4283
sg63
(lp4290
S'200'
p4291
asbasbasbag56
(g72
g58
NtRp4292
(dp4293
g61
(dp4294
sg70
g3031
sg63
(lp4295
g56
(g77
g58
NtRp4296
(dp4297
g61
(dp4298
g81
g82
ssg70
g4292
sg63
(lp4299
S'subtitle'
p4300
asbag56
(g77
g58
NtRp4301
(dp4302
g61
(dp4303
g88
g89
ssg70
g4292
sg63
(lp4304
S':'
asbag56
(g77
g58
NtRp4305
(dp4306
g61
(dp4307
sg70
g4292
sg63
(lp4308
g56
(g57
g58
NtRp4309
(dp4310
g61
(dp4311
g69
I5
ssg70
g4305
sg63
(lp4312
S'Real-time Performance and Analytics'
p4313
asbasbasbag56
(g72
g58
NtRp4314
(dp4315
g61
(dp4316
sg70
g3031
sg63
(lp4317
g56
(g77
g58
NtRp4318
(dp4319
g61
(dp4320
g81
g82
ssg70
g4314
sg63
(lp4321
S'title'
p4322
asbag56
(g77
g58
NtRp4323
(dp4324
g61
(dp4325
g88
g89
ssg70
g4314
sg63
(lp4326
S':'
asbag56
(g77
g58
NtRp4327
(dp4328
g61
(dp4329
sg70
g4314
sg63
(lp4330
g56
(g57
g58
NtRp4331
(dp4332
g61
(dp4333
g69
I5
ssg70
g4327
sg63
(lp4334
S'Cassandra Manager 0.0.16a'
p4335
asbasbasbag56
(g72
g58
NtRp4336
(dp4337
g61
(dp4338
sg70
g3031
sg63
(lp4339
g56
(g77
g58
NtRp4340
(dp4341
g61
(dp4342
g81
g82
ssg70
g4336
sg63
(lp4343
g2278
asbag56
(g77
g58
NtRp4344
(dp4345
g61
(dp4346
g88
g89
ssg70
g4336
sg63
(lp4347
S':'
asbag56
(g77
g58
NtRp4348
(dp4349
g61
(dp4350
sg70
g4336
sg63
(lp4351
g56
(g57
g58
NtRp4352
(dp4353
g61
(dp4354
g69
I5
ssg70
g4348
sg63
(lp4355
g2291
asbasbasbag56
(g72
g58
NtRp4356
(dp4357
g61
(dp4358
sg70
g3031
sg63
(lp4359
g56
(g77
g58
NtRp4360
(dp4361
g61
(dp4362
g81
g82
ssg70
g4356
sg63
(lp4363
S'view'
p4364
asbag56
(g77
g58
NtRp4365
(dp4366
g61
(dp4367
g88
g89
ssg70
g4356
sg63
(lp4368
S':'
asbag56
(g77
g58
NtRp4369
(dp4370
g61
(dp4371
sg70
g4356
sg63
(lp4372
g56
(g57
g58
NtRp4373
(dp4374
g61
(dp4375
g69
I5
ssg70
g4369
sg63
(lp4376
S'cass_mgr/clusteroverview.html'
p4377
asbasbasbasbasbsS'locals'
p4378
(dp4379
S'H'
S'<networkx.classes.graph.Graph object>'
p4380
sS'e'
S'(2, 3)'
p4381
sS'G'
S'<networkx.classes.graph.Graph object>'
p4382
sssS'traceback'
p4383
S'Traceback (most recent call last):\n  File "/opt/cassandra-dev/PROJECTS/Cassandra-Monitor/src/CassandraMonitor/mycassandramanager/myinterface/gluon/restricted.py", line 194, in restricted\n    exec ccode in environment\n  File "/opt/cassandra-dev/PROJECTS/Cassandra-Monitor/src/CassandraMonitor/mycassandramanager/myinterface/applications/cass1/controllers/cass_mgr.py", line 65, in <module>\n  File "/opt/cassandra-dev/PROJECTS/Cassandra-Monitor/src/CassandraMonitor/mycassandramanager/myinterface/gluon/globals.py", line 149, in <lambda>\n    self._caller = lambda f: f()\n  File "/opt/cassandra-dev/PROJECTS/Cassandra-Monitor/src/CassandraMonitor/mycassandramanager/myinterface/applications/cass1/controllers/cass_mgr.py", line 53, in clusteroverview\n    plt.show()\nNameError: global name \'plt\' is not defined\n'
p4384
s.