(dp1
S'output'
p2
S''
sS'layer'
p3
S'/opt/cassandra-dev/PROJECTS/Cassandra-Monitor/src/CassandraMonitor/mycassandramanager/myinterface/applications/cass1/controllers/cass_mgr.py'
p4
sS'code'
p5
S'#!/usr/bin/env python\n# -*- coding: utf-8 -*-\n#\n# Licensed under the Apache License, Version 2.0 (the "License"); you may\n# not use this file except in compliance with the License. You may obtain\n# a copy of the License at\n#\n#     http://www.apache.org/licenses/LICENSE-2.0\n#\n# Unless required by applicable law or agreed to in writing, software\n# distributed under the License is distributed on an "AS IS" BASIS, WITHOUT\n# WARRANTIES OR CONDITIONS OF ANY KIND, either express or implied. See the\n# License for the specific language governing permissions and limitations\n# under the License.\n\n# Thu Dec  8 10:11:14 GMT 2011\n"""\nVERY BASIC TEMPORARY TESTING CONTROLLER!!\n"""\n\nfrom __future__ import absolute_import\nimport sys\nsys.path.append("/opt/cassandra-dev/PROJECTS/Cassandra-Monitor/src/CassandraMonitor/mycassandramanager/myinterface/applications/cass1/controllers")\nsys.path.append("/opt/cassandra-dev/PROJECTS/Cassandra-Monitor/src/CassandraMonitor/mycassandramanager/myinterface/applications/cass1/controllers/mydata")\n\nimport mydata.data as d\nimport networkx  as nx\nimport matplotlib.pyplot as plt\ndef index():\n    data = d.MyData()\n    myjmx = data.mydict()\n    session.counter = (session.counter or 0) + 1\n    return dict(myjmx,message="Cass Manager",counter=session.counter)\n\ndef first():\n    return dict()\n\ndef second():\n    return dict()\n\ndef clusteroverview():\n    """ draw the cluster overview """\n    G=nx.Graph(cluster="ring0live")\n    G.add_node(1)\n    G.add_nodes_from([2,3])\n    H=nx.path_graph(10)\n    G.add_nodes_from(H)\n    G.add_node(H)\n    G.add_edge(1,2)\n    e=(2,3)\n    G.add_edge(*e)\n    nx.draw(G)\n    plt.show()\n\n    return object(G)\n\nif __name__ == \'__main__\':\n    data = d.MyData()\n    myjmx = data.mydict()\n    d = dict(myjmx)\n    print d\n\n\n\nresponse._vars=response._caller(clusteroverview)\n'
p6
sS'snapshot'
p7
(dp8
S'exception'
p9
(dp10
S'__hash__'
p11
S"<method-wrapper '__hash__' of exceptions.TypeError object>"
p12
sS'__setattr__'
p13
S"<method-wrapper '__setattr__' of exceptions.TypeError object>"
p14
sS'__reduce_ex__'
p15
S'<built-in method __reduce_ex__ of exceptions.TypeError object>'
p16
sS'__getslice__'
p17
S"<method-wrapper '__getslice__' of exceptions.TypeError object>"
p18
sS'__getitem__'
p19
S"<method-wrapper '__getitem__' of exceptions.TypeError object>"
p20
sS'__setstate__'
p21
S'<built-in method __setstate__ of exceptions.TypeError object>'
p22
sS'args'
p23
S"('object.__new__() takes no parameters',)"
p24
sS'__reduce__'
p25
S'<built-in method __reduce__ of exceptions.TypeError object>'
p26
sS'__str__'
p27
S"<method-wrapper '__str__' of exceptions.TypeError object>"
p28
sS'__format__'
p29
S'<built-in method __format__ of exceptions.TypeError object>'
p30
sS'__getattribute__'
p31
S"<method-wrapper '__getattribute__' of exceptions.TypeError object>"
p32
sS'__class__'
p33
S"<type 'exceptions.TypeError'>"
p34
sS'__unicode__'
p35
S'<built-in method __unicode__ of exceptions.TypeError object>'
p36
sS'__delattr__'
p37
S"<method-wrapper '__delattr__' of exceptions.TypeError object>"
p38
sS'__subclasshook__'
p39
S'<built-in method __subclasshook__ of type object>'
p40
sS'__repr__'
p41
S"<method-wrapper '__repr__' of exceptions.TypeError object>"
p42
sS'__dict__'
p43
S'{}'
p44
sS'__sizeof__'
p45
S'<built-in method __sizeof__ of exceptions.TypeError object>'
p46
sS'__doc__'
p47
S"'Inappropriate argument type.'"
p48
sS'__init__'
p49
S"<method-wrapper '__init__' of exceptions.TypeError object>"
p50
sS'__new__'
p51
S'<built-in method __new__ of type object>'
p52
ssS'evalue'
p53
S'object.__new__() takes no parameters'
p54
sS'request'
p55
ccopy_reg
_reconstructor
p56
(cgluon.html
BEAUTIFY
p57
c__builtin__
object
p58
NtRp59
(dp60
S'attributes'
p61
(dp62
sS'components'
p63
(lp64
g56
(cgluon.html
TABLE
p65
g58
NtRp66
(dp67
g61
(dp68
S'level'
p69
I5
ssS'parent'
p70
Nsg63
(lp71
g56
(cgluon.html
TR
p72
g58
NtRp73
(dp74
g61
(dp75
sg70
g66
sg63
(lp76
g56
(cgluon.html
TD
p77
g58
NtRp78
(dp79
g61
(dp80
S'_style'
p81
S'font-weight:bold;'
p82
ssg70
g73
sg63
(lp83
S'ajax'
p84
asbag56
(g77
g58
NtRp85
(dp86
g61
(dp87
S'_valign'
p88
S'top'
p89
ssg70
g73
sg63
(lp90
S':'
asbag56
(g77
g58
NtRp91
(dp92
g61
(dp93
sg70
g73
sg63
(lp94
g56
(g57
g58
NtRp95
(dp96
g61
(dp97
g69
I5
ssg70
g91
sg63
(lp98
S'False'
p99
asbasbasbag56
(g72
g58
NtRp100
(dp101
g61
(dp102
sg70
g66
sg63
(lp103
g56
(g77
g58
NtRp104
(dp105
g61
(dp106
g81
g82
ssg70
g100
sg63
(lp107
S'application'
p108
asbag56
(g77
g58
NtRp109
(dp110
g61
(dp111
g88
g89
ssg70
g100
sg63
(lp112
S':'
asbag56
(g77
g58
NtRp113
(dp114
g61
(dp115
sg70
g100
sg63
(lp116
g56
(g57
g58
NtRp117
(dp118
g61
(dp119
g69
I5
ssg70
g113
sg63
(lp120
S'cass1'
p121
asbasbasbag56
(g72
g58
NtRp122
(dp123
g61
(dp124
sg70
g66
sg63
(lp125
g56
(g77
g58
NtRp126
(dp127
g61
(dp128
g81
g82
ssg70
g122
sg63
(lp129
g23
asbag56
(g77
g58
NtRp130
(dp131
g61
(dp132
g88
g89
ssg70
g122
sg63
(lp133
S':'
asbag56
(g77
g58
NtRp134
(dp135
g61
(dp136
sg70
g122
sg63
(lp137
g56
(g57
g58
NtRp138
(dp139
g61
(dp140
g69
I5
ssg70
g134
sg63
(lp141
g56
(g65
g58
NtRp142
(dp143
g61
(dp144
g69
I4
ssg70
Nsg63
(lp145
sbasbasbasbag56
(g72
g58
NtRp146
(dp147
g61
(dp148
sg70
g66
sg63
(lp149
g56
(g77
g58
NtRp150
(dp151
g61
(dp152
g81
g82
ssg70
g146
sg63
(lp153
S'body'
p154
asbag56
(g77
g58
NtRp155
(dp156
g61
(dp157
g88
g89
ssg70
g146
sg63
(lp158
S':'
asbag56
(g77
g58
NtRp159
(dp160
g61
(dp161
sg70
g146
sg63
(lp162
g56
(g57
g58
NtRp163
(dp164
g61
(dp165
g69
I5
ssg70
g159
sg63
(lp166
S'<cStringIO.StringO object at 0x35ccc38>'
p167
asbasbasbag56
(g72
g58
NtRp168
(dp169
g61
(dp170
sg70
g66
sg63
(lp171
g56
(g77
g58
NtRp172
(dp173
g61
(dp174
g81
g82
ssg70
g168
sg63
(lp175
S'client'
p176
asbag56
(g77
g58
NtRp177
(dp178
g61
(dp179
g88
g89
ssg70
g168
sg63
(lp180
S':'
asbag56
(g77
g58
NtRp181
(dp182
g61
(dp183
sg70
g168
sg63
(lp184
g56
(g57
g58
NtRp185
(dp186
g61
(dp187
g69
I5
ssg70
g181
sg63
(lp188
S'127.0.0.1'
p189
asbasbasbag56
(g72
g58
NtRp190
(dp191
g61
(dp192
sg70
g66
sg63
(lp193
g56
(g77
g58
NtRp194
(dp195
g61
(dp196
g81
g82
ssg70
g190
sg63
(lp197
S'controller'
p198
asbag56
(g77
g58
NtRp199
(dp200
g61
(dp201
g88
g89
ssg70
g190
sg63
(lp202
S':'
asbag56
(g77
g58
NtRp203
(dp204
g61
(dp205
sg70
g190
sg63
(lp206
g56
(g57
g58
NtRp207
(dp208
g61
(dp209
g69
I5
ssg70
g203
sg63
(lp210
S'cass_mgr'
p211
asbasbasbag56
(g72
g58
NtRp212
(dp213
g61
(dp214
sg70
g66
sg63
(lp215
g56
(g77
g58
NtRp216
(dp217
g61
(dp218
g81
g82
ssg70
g212
sg63
(lp219
S'cookies'
p220
asbag56
(g77
g58
NtRp221
(dp222
g61
(dp223
g88
g89
ssg70
g212
sg63
(lp224
S':'
asbag56
(g77
g58
NtRp225
(dp226
g61
(dp227
sg70
g212
sg63
(lp228
g56
(g57
g58
NtRp229
(dp230
g61
(dp231
g69
I5
ssg70
g225
sg63
(lp232
g56
(g65
g58
NtRp233
(dp234
g61
(dp235
g69
I4
ssg70
Nsg63
(lp236
g56
(g72
g58
NtRp237
(dp238
g61
(dp239
sg70
g233
sg63
(lp240
g56
(g77
g58
NtRp241
(dp242
g61
(dp243
g81
g82
ssg70
g237
sg63
(lp244
S'session_id_admin'
p245
asbag56
(g77
g58
NtRp246
(dp247
g61
(dp248
g88
g89
ssg70
g237
sg63
(lp249
S':'
asbag56
(g77
g58
NtRp250
(dp251
g61
(dp252
sg70
g237
sg63
(lp253
g56
(g57
g58
NtRp254
(dp255
g61
(dp256
g69
I4
ssg70
g250
sg63
(lp257
g56
(g65
g58
NtRp258
(dp259
g61
(dp260
g69
I3
ssg70
Nsg63
(lp261
g56
(g72
g58
NtRp262
(dp263
g61
(dp264
sg70
g258
sg63
(lp265
g56
(g77
g58
NtRp266
(dp267
g61
(dp268
g81
g82
ssg70
g262
sg63
(lp269
S'comment'
p270
asbag56
(g77
g58
NtRp271
(dp272
g61
(dp273
g88
g89
ssg70
g262
sg63
(lp274
S':'
asbag56
(g77
g58
NtRp275
(dp276
g61
(dp277
sg70
g262
sg63
(lp278
g56
(g57
g58
NtRp279
(dp280
g61
(dp281
g69
I3
ssg70
g275
sg63
(lp282
S''
asbasbasbag56
(g72
g58
NtRp283
(dp284
g61
(dp285
sg70
g258
sg63
(lp286
g56
(g77
g58
NtRp287
(dp288
g61
(dp289
g81
g82
ssg70
g283
sg63
(lp290
S'domain'
p291
asbag56
(g77
g58
NtRp292
(dp293
g61
(dp294
g88
g89
ssg70
g283
sg63
(lp295
S':'
asbag56
(g77
g58
NtRp296
(dp297
g61
(dp298
sg70
g283
sg63
(lp299
g56
(g57
g58
NtRp300
(dp301
g61
(dp302
g69
I3
ssg70
g296
sg63
(lp303
S''
asbasbasbag56
(g72
g58
NtRp304
(dp305
g61
(dp306
sg70
g258
sg63
(lp307
g56
(g77
g58
NtRp308
(dp309
g61
(dp310
g81
g82
ssg70
g304
sg63
(lp311
S'expires'
p312
asbag56
(g77
g58
NtRp313
(dp314
g61
(dp315
g88
g89
ssg70
g304
sg63
(lp316
S':'
asbag56
(g77
g58
NtRp317
(dp318
g61
(dp319
sg70
g304
sg63
(lp320
g56
(g57
g58
NtRp321
(dp322
g61
(dp323
g69
I3
ssg70
g317
sg63
(lp324
S''
asbasbasbag56
(g72
g58
NtRp325
(dp326
g61
(dp327
sg70
g258
sg63
(lp328
g56
(g77
g58
NtRp329
(dp330
g61
(dp331
g81
g82
ssg70
g325
sg63
(lp332
S'httponly'
p333
asbag56
(g77
g58
NtRp334
(dp335
g61
(dp336
g88
g89
ssg70
g325
sg63
(lp337
S':'
asbag56
(g77
g58
NtRp338
(dp339
g61
(dp340
sg70
g325
sg63
(lp341
g56
(g57
g58
NtRp342
(dp343
g61
(dp344
g69
I3
ssg70
g338
sg63
(lp345
S''
asbasbasbag56
(g72
g58
NtRp346
(dp347
g61
(dp348
sg70
g258
sg63
(lp349
g56
(g77
g58
NtRp350
(dp351
g61
(dp352
g81
g82
ssg70
g346
sg63
(lp353
S'max-age'
p354
asbag56
(g77
g58
NtRp355
(dp356
g61
(dp357
g88
g89
ssg70
g346
sg63
(lp358
S':'
asbag56
(g77
g58
NtRp359
(dp360
g61
(dp361
sg70
g346
sg63
(lp362
g56
(g57
g58
NtRp363
(dp364
g61
(dp365
g69
I3
ssg70
g359
sg63
(lp366
S''
asbasbasbag56
(g72
g58
NtRp367
(dp368
g61
(dp369
sg70
g258
sg63
(lp370
g56
(g77
g58
NtRp371
(dp372
g61
(dp373
g81
g82
ssg70
g367
sg63
(lp374
S'path'
p375
asbag56
(g77
g58
NtRp376
(dp377
g61
(dp378
g88
g89
ssg70
g367
sg63
(lp379
S':'
asbag56
(g77
g58
NtRp380
(dp381
g61
(dp382
sg70
g367
sg63
(lp383
g56
(g57
g58
NtRp384
(dp385
g61
(dp386
g69
I3
ssg70
g380
sg63
(lp387
S''
asbasbasbag56
(g72
g58
NtRp388
(dp389
g61
(dp390
sg70
g258
sg63
(lp391
g56
(g77
g58
NtRp392
(dp393
g61
(dp394
g81
g82
ssg70
g388
sg63
(lp395
S'secure'
p396
asbag56
(g77
g58
NtRp397
(dp398
g61
(dp399
g88
g89
ssg70
g388
sg63
(lp400
S':'
asbag56
(g77
g58
NtRp401
(dp402
g61
(dp403
sg70
g388
sg63
(lp404
g56
(g57
g58
NtRp405
(dp406
g61
(dp407
g69
I3
ssg70
g401
sg63
(lp408
S''
asbasbasbag56
(g72
g58
NtRp409
(dp410
g61
(dp411
sg70
g258
sg63
(lp412
g56
(g77
g58
NtRp413
(dp414
g61
(dp415
g81
g82
ssg70
g409
sg63
(lp416
S'version'
p417
asbag56
(g77
g58
NtRp418
(dp419
g61
(dp420
g88
g89
ssg70
g409
sg63
(lp421
S':'
asbag56
(g77
g58
NtRp422
(dp423
g61
(dp424
sg70
g409
sg63
(lp425
g56
(g57
g58
NtRp426
(dp427
g61
(dp428
g69
I3
ssg70
g422
sg63
(lp429
S''
asbasbasbasbasbasbasbag56
(g72
g58
NtRp430
(dp431
g61
(dp432
sg70
g233
sg63
(lp433
g56
(g77
g58
NtRp434
(dp435
g61
(dp436
g81
g82
ssg70
g430
sg63
(lp437
S'session_id_cass1'
p438
asbag56
(g77
g58
NtRp439
(dp440
g61
(dp441
g88
g89
ssg70
g430
sg63
(lp442
S':'
asbag56
(g77
g58
NtRp443
(dp444
g61
(dp445
sg70
g430
sg63
(lp446
g56
(g57
g58
NtRp447
(dp448
g61
(dp449
g69
I4
ssg70
g443
sg63
(lp450
g56
(g65
g58
NtRp451
(dp452
g61
(dp453
g69
I3
ssg70
Nsg63
(lp454
g56
(g72
g58
NtRp455
(dp456
g61
(dp457
sg70
g451
sg63
(lp458
g56
(g77
g58
NtRp459
(dp460
g61
(dp461
g81
g82
ssg70
g455
sg63
(lp462
g270
asbag56
(g77
g58
NtRp463
(dp464
g61
(dp465
g88
g89
ssg70
g455
sg63
(lp466
S':'
asbag56
(g77
g58
NtRp467
(dp468
g61
(dp469
sg70
g455
sg63
(lp470
g56
(g57
g58
NtRp471
(dp472
g61
(dp473
g69
I3
ssg70
g467
sg63
(lp474
S''
asbasbasbag56
(g72
g58
NtRp475
(dp476
g61
(dp477
sg70
g451
sg63
(lp478
g56
(g77
g58
NtRp479
(dp480
g61
(dp481
g81
g82
ssg70
g475
sg63
(lp482
g291
asbag56
(g77
g58
NtRp483
(dp484
g61
(dp485
g88
g89
ssg70
g475
sg63
(lp486
S':'
asbag56
(g77
g58
NtRp487
(dp488
g61
(dp489
sg70
g475
sg63
(lp490
g56
(g57
g58
NtRp491
(dp492
g61
(dp493
g69
I3
ssg70
g487
sg63
(lp494
S''
asbasbasbag56
(g72
g58
NtRp495
(dp496
g61
(dp497
sg70
g451
sg63
(lp498
g56
(g77
g58
NtRp499
(dp500
g61
(dp501
g81
g82
ssg70
g495
sg63
(lp502
g312
asbag56
(g77
g58
NtRp503
(dp504
g61
(dp505
g88
g89
ssg70
g495
sg63
(lp506
S':'
asbag56
(g77
g58
NtRp507
(dp508
g61
(dp509
sg70
g495
sg63
(lp510
g56
(g57
g58
NtRp511
(dp512
g61
(dp513
g69
I3
ssg70
g507
sg63
(lp514
S''
asbasbasbag56
(g72
g58
NtRp515
(dp516
g61
(dp517
sg70
g451
sg63
(lp518
g56
(g77
g58
NtRp519
(dp520
g61
(dp521
g81
g82
ssg70
g515
sg63
(lp522
g333
asbag56
(g77
g58
NtRp523
(dp524
g61
(dp525
g88
g89
ssg70
g515
sg63
(lp526
S':'
asbag56
(g77
g58
NtRp527
(dp528
g61
(dp529
sg70
g515
sg63
(lp530
g56
(g57
g58
NtRp531
(dp532
g61
(dp533
g69
I3
ssg70
g527
sg63
(lp534
S''
asbasbasbag56
(g72
g58
NtRp535
(dp536
g61
(dp537
sg70
g451
sg63
(lp538
g56
(g77
g58
NtRp539
(dp540
g61
(dp541
g81
g82
ssg70
g535
sg63
(lp542
g354
asbag56
(g77
g58
NtRp543
(dp544
g61
(dp545
g88
g89
ssg70
g535
sg63
(lp546
S':'
asbag56
(g77
g58
NtRp547
(dp548
g61
(dp549
sg70
g535
sg63
(lp550
g56
(g57
g58
NtRp551
(dp552
g61
(dp553
g69
I3
ssg70
g547
sg63
(lp554
S''
asbasbasbag56
(g72
g58
NtRp555
(dp556
g61
(dp557
sg70
g451
sg63
(lp558
g56
(g77
g58
NtRp559
(dp560
g61
(dp561
g81
g82
ssg70
g555
sg63
(lp562
g375
asbag56
(g77
g58
NtRp563
(dp564
g61
(dp565
g88
g89
ssg70
g555
sg63
(lp566
S':'
asbag56
(g77
g58
NtRp567
(dp568
g61
(dp569
sg70
g555
sg63
(lp570
g56
(g57
g58
NtRp571
(dp572
g61
(dp573
g69
I3
ssg70
g567
sg63
(lp574
S''
asbasbasbag56
(g72
g58
NtRp575
(dp576
g61
(dp577
sg70
g451
sg63
(lp578
g56
(g77
g58
NtRp579
(dp580
g61
(dp581
g81
g82
ssg70
g575
sg63
(lp582
g396
asbag56
(g77
g58
NtRp583
(dp584
g61
(dp585
g88
g89
ssg70
g575
sg63
(lp586
S':'
asbag56
(g77
g58
NtRp587
(dp588
g61
(dp589
sg70
g575
sg63
(lp590
g56
(g57
g58
NtRp591
(dp592
g61
(dp593
g69
I3
ssg70
g587
sg63
(lp594
S''
asbasbasbag56
(g72
g58
NtRp595
(dp596
g61
(dp597
sg70
g451
sg63
(lp598
g56
(g77
g58
NtRp599
(dp600
g61
(dp601
g81
g82
ssg70
g595
sg63
(lp602
g417
asbag56
(g77
g58
NtRp603
(dp604
g61
(dp605
g88
g89
ssg70
g595
sg63
(lp606
S':'
asbag56
(g77
g58
NtRp607
(dp608
g61
(dp609
sg70
g595
sg63
(lp610
g56
(g57
g58
NtRp611
(dp612
g61
(dp613
g69
I3
ssg70
g607
sg63
(lp614
S''
asbasbasbasbasbasbasbag56
(g72
g58
NtRp615
(dp616
g61
(dp617
sg70
g233
sg63
(lp618
g56
(g77
g58
NtRp619
(dp620
g61
(dp621
g81
g82
ssg70
g615
sg63
(lp622
S'session_id_welcome'
p623
asbag56
(g77
g58
NtRp624
(dp625
g61
(dp626
g88
g89
ssg70
g615
sg63
(lp627
S':'
asbag56
(g77
g58
NtRp628
(dp629
g61
(dp630
sg70
g615
sg63
(lp631
g56
(g57
g58
NtRp632
(dp633
g61
(dp634
g69
I4
ssg70
g628
sg63
(lp635
g56
(g65
g58
NtRp636
(dp637
g61
(dp638
g69
I3
ssg70
Nsg63
(lp639
g56
(g72
g58
NtRp640
(dp641
g61
(dp642
sg70
g636
sg63
(lp643
g56
(g77
g58
NtRp644
(dp645
g61
(dp646
g81
g82
ssg70
g640
sg63
(lp647
g270
asbag56
(g77
g58
NtRp648
(dp649
g61
(dp650
g88
g89
ssg70
g640
sg63
(lp651
S':'
asbag56
(g77
g58
NtRp652
(dp653
g61
(dp654
sg70
g640
sg63
(lp655
g56
(g57
g58
NtRp656
(dp657
g61
(dp658
g69
I3
ssg70
g652
sg63
(lp659
S''
asbasbasbag56
(g72
g58
NtRp660
(dp661
g61
(dp662
sg70
g636
sg63
(lp663
g56
(g77
g58
NtRp664
(dp665
g61
(dp666
g81
g82
ssg70
g660
sg63
(lp667
g291
asbag56
(g77
g58
NtRp668
(dp669
g61
(dp670
g88
g89
ssg70
g660
sg63
(lp671
S':'
asbag56
(g77
g58
NtRp672
(dp673
g61
(dp674
sg70
g660
sg63
(lp675
g56
(g57
g58
NtRp676
(dp677
g61
(dp678
g69
I3
ssg70
g672
sg63
(lp679
S''
asbasbasbag56
(g72
g58
NtRp680
(dp681
g61
(dp682
sg70
g636
sg63
(lp683
g56
(g77
g58
NtRp684
(dp685
g61
(dp686
g81
g82
ssg70
g680
sg63
(lp687
g312
asbag56
(g77
g58
NtRp688
(dp689
g61
(dp690
g88
g89
ssg70
g680
sg63
(lp691
S':'
asbag56
(g77
g58
NtRp692
(dp693
g61
(dp694
sg70
g680
sg63
(lp695
g56
(g57
g58
NtRp696
(dp697
g61
(dp698
g69
I3
ssg70
g692
sg63
(lp699
S''
asbasbasbag56
(g72
g58
NtRp700
(dp701
g61
(dp702
sg70
g636
sg63
(lp703
g56
(g77
g58
NtRp704
(dp705
g61
(dp706
g81
g82
ssg70
g700
sg63
(lp707
g333
asbag56
(g77
g58
NtRp708
(dp709
g61
(dp710
g88
g89
ssg70
g700
sg63
(lp711
S':'
asbag56
(g77
g58
NtRp712
(dp713
g61
(dp714
sg70
g700
sg63
(lp715
g56
(g57
g58
NtRp716
(dp717
g61
(dp718
g69
I3
ssg70
g712
sg63
(lp719
S''
asbasbasbag56
(g72
g58
NtRp720
(dp721
g61
(dp722
sg70
g636
sg63
(lp723
g56
(g77
g58
NtRp724
(dp725
g61
(dp726
g81
g82
ssg70
g720
sg63
(lp727
g354
asbag56
(g77
g58
NtRp728
(dp729
g61
(dp730
g88
g89
ssg70
g720
sg63
(lp731
S':'
asbag56
(g77
g58
NtRp732
(dp733
g61
(dp734
sg70
g720
sg63
(lp735
g56
(g57
g58
NtRp736
(dp737
g61
(dp738
g69
I3
ssg70
g732
sg63
(lp739
S''
asbasbasbag56
(g72
g58
NtRp740
(dp741
g61
(dp742
sg70
g636
sg63
(lp743
g56
(g77
g58
NtRp744
(dp745
g61
(dp746
g81
g82
ssg70
g740
sg63
(lp747
g375
asbag56
(g77
g58
NtRp748
(dp749
g61
(dp750
g88
g89
ssg70
g740
sg63
(lp751
S':'
asbag56
(g77
g58
NtRp752
(dp753
g61
(dp754
sg70
g740
sg63
(lp755
g56
(g57
g58
NtRp756
(dp757
g61
(dp758
g69
I3
ssg70
g752
sg63
(lp759
S''
asbasbasbag56
(g72
g58
NtRp760
(dp761
g61
(dp762
sg70
g636
sg63
(lp763
g56
(g77
g58
NtRp764
(dp765
g61
(dp766
g81
g82
ssg70
g760
sg63
(lp767
g396
asbag56
(g77
g58
NtRp768
(dp769
g61
(dp770
g88
g89
ssg70
g760
sg63
(lp771
S':'
asbag56
(g77
g58
NtRp772
(dp773
g61
(dp774
sg70
g760
sg63
(lp775
g56
(g57
g58
NtRp776
(dp777
g61
(dp778
g69
I3
ssg70
g772
sg63
(lp779
S''
asbasbasbag56
(g72
g58
NtRp780
(dp781
g61
(dp782
sg70
g636
sg63
(lp783
g56
(g77
g58
NtRp784
(dp785
g61
(dp786
g81
g82
ssg70
g780
sg63
(lp787
g417
asbag56
(g77
g58
NtRp788
(dp789
g61
(dp790
g88
g89
ssg70
g780
sg63
(lp791
S':'
asbag56
(g77
g58
NtRp792
(dp793
g61
(dp794
sg70
g780
sg63
(lp795
g56
(g57
g58
NtRp796
(dp797
g61
(dp798
g69
I3
ssg70
g792
sg63
(lp799
S''
asbasbasbasbasbasbasbasbasbasbasbag56
(g72
g58
NtRp800
(dp801
g61
(dp802
sg70
g66
sg63
(lp803
g56
(g77
g58
NtRp804
(dp805
g61
(dp806
g81
g82
ssg70
g800
sg63
(lp807
S'env'
p808
asbag56
(g77
g58
NtRp809
(dp810
g61
(dp811
g88
g89
ssg70
g800
sg63
(lp812
S':'
asbag56
(g77
g58
NtRp813
(dp814
g61
(dp815
sg70
g800
sg63
(lp816
g56
(g57
g58
NtRp817
(dp818
g61
(dp819
g69
I5
ssg70
g813
sg63
(lp820
g56
(g65
g58
NtRp821
(dp822
g61
(dp823
g69
I4
ssg70
Nsg63
(lp824
g56
(g72
g58
NtRp825
(dp826
g61
(dp827
sg70
g821
sg63
(lp828
g56
(g77
g58
NtRp829
(dp830
g61
(dp831
g81
g82
ssg70
g825
sg63
(lp832
S'app_folders'
p833
asbag56
(g77
g58
NtRp834
(dp835
g61
(dp836
g88
g89
ssg70
g825
sg63
(lp837
S':'
asbag56
(g77
g58
NtRp838
(dp839
g61
(dp840
sg70
g825
sg63
(lp841
g56
(g57
g58
NtRp842
(dp843
g61
(dp844
g69
I4
ssg70
g838
sg63
(lp845
S"set(['/opt/cassandra-dev/PROJECTS/Cassandra-Monitor/src/CassandraMonitor/mycassandramanager/myinterface/applications/admin/', '/opt/cassandra-dev/PROJECTS/Cassandra-Monitor/src/CassandraMonitor/mycassandramanager/myinterface/applications/cass1/'])"
p846
asbasbasbag56
(g72
g58
NtRp847
(dp848
g61
(dp849
sg70
g821
sg63
(lp850
g56
(g77
g58
NtRp851
(dp852
g61
(dp853
g81
g82
ssg70
g847
sg63
(lp854
S'applications_parent'
p855
asbag56
(g77
g58
NtRp856
(dp857
g61
(dp858
g88
g89
ssg70
g847
sg63
(lp859
S':'
asbag56
(g77
g58
NtRp860
(dp861
g61
(dp862
sg70
g847
sg63
(lp863
g56
(g57
g58
NtRp864
(dp865
g61
(dp866
g69
I4
ssg70
g860
sg63
(lp867
S'/opt/cassandra-dev/PROJECTS/Cassandra-Monitor/src/CassandraMonitor/mycassandramanager/myinterface'
p868
asbasbasbag56
(g72
g58
NtRp869
(dp870
g61
(dp871
sg70
g821
sg63
(lp872
g56
(g77
g58
NtRp873
(dp874
g61
(dp875
g81
g82
ssg70
g869
sg63
(lp876
S'cmd_args'
p877
asbag56
(g77
g58
NtRp878
(dp879
g61
(dp880
g88
g89
ssg70
g869
sg63
(lp881
S':'
asbag56
(g77
g58
NtRp882
(dp883
g61
(dp884
sg70
g869
sg63
(lp885
g56
(g57
g58
NtRp886
(dp887
g61
(dp888
g69
I4
ssg70
g882
sg63
(lp889
g56
(g65
g58
NtRp890
(dp891
g61
(dp892
g69
I3
ssg70
Nsg63
(lp893
sbasbasbasbag56
(g72
g58
NtRp894
(dp895
g61
(dp896
sg70
g821
sg63
(lp897
g56
(g77
g58
NtRp898
(dp899
g61
(dp900
g81
g82
ssg70
g894
sg63
(lp901
S'cmd_options'
p902
asbag56
(g77
g58
NtRp903
(dp904
g61
(dp905
g88
g89
ssg70
g894
sg63
(lp906
S':'
asbag56
(g77
g58
NtRp907
(dp908
g61
(dp909
sg70
g894
sg63
(lp910
g56
(g57
g58
NtRp911
(dp912
g61
(dp913
g69
I4
ssg70
g907
sg63
(lp914
S"<Values at 0x17d4098: {'verbose': False, 'ip': '127.0.0.1', 'shutdown_timeout': 5, 'taskbar': False, 'nocron': False, 'pid_filename': 'httpserver.pid', 'maxthreads': None, 'softcron': False, 'server_name': 'CASR1-VM10-DEV', 'bpython': False, 'nogui': False, 'port': 8000, 'extcron': False, 'debuglevel': 30, 'test': None, 'folder': '/opt/cassandra-dev/PROJECTS/Cassandra-Monitor/src/CassandraMonitor/mycassandramanager/myinterface', 'config': '', 'import_models': False, 'winservice': '', 'shell': None, 'run': '', 'log_filename': 'httpserver.log', 'args': [''], 'ssl_ca_certificate': None, 'scheduler': None, 'profiler_filename': None, 'ssl_private_key': '', 'password': 'testing', 'request_queue_size': 5, 'ssl_certificate': '', 'cronjob': False, 'plain': False, 'quiet': False, 'interfaces': None, 'minthreads': None, 'timeout': 10, 'numthreads': None, 'nobanner': False}>"
p915
asbasbasbag56
(g72
g58
NtRp916
(dp917
g61
(dp918
sg70
g821
sg63
(lp919
g56
(g77
g58
NtRp920
(dp921
g61
(dp922
g81
g82
ssg70
g916
sg63
(lp923
S'db_sessions'
p924
asbag56
(g77
g58
NtRp925
(dp926
g61
(dp927
g88
g89
ssg70
g916
sg63
(lp928
S':'
asbag56
(g77
g58
NtRp929
(dp930
g61
(dp931
sg70
g916
sg63
(lp932
g56
(g57
g58
NtRp933
(dp934
g61
(dp935
g69
I4
ssg70
g929
sg63
(lp936
S'set([])'
p937
asbasbasbag56
(g72
g58
NtRp938
(dp939
g61
(dp940
sg70
g821
sg63
(lp941
g56
(g77
g58
NtRp942
(dp943
g61
(dp944
g81
g82
ssg70
g938
sg63
(lp945
S'debugging'
p946
asbag56
(g77
g58
NtRp947
(dp948
g61
(dp949
g88
g89
ssg70
g938
sg63
(lp950
S':'
asbag56
(g77
g58
NtRp951
(dp952
g61
(dp953
sg70
g938
sg63
(lp954
g56
(g57
g58
NtRp955
(dp956
g61
(dp957
g69
I4
ssg70
g951
sg63
(lp958
g99
asbasbasbag56
(g72
g58
NtRp959
(dp960
g61
(dp961
sg70
g821
sg63
(lp962
g56
(g77
g58
NtRp963
(dp964
g61
(dp965
g81
g82
ssg70
g959
sg63
(lp966
S'gluon_parent'
p967
asbag56
(g77
g58
NtRp968
(dp969
g61
(dp970
g88
g89
ssg70
g959
sg63
(lp971
S':'
asbag56
(g77
g58
NtRp972
(dp973
g61
(dp974
sg70
g959
sg63
(lp975
g56
(g57
g58
NtRp976
(dp977
g61
(dp978
g69
I4
ssg70
g972
sg63
(lp979
S'/opt/cassandra-dev/PROJECTS/Cassandra-Monitor/src/CassandraMonitor/mycassandramanager/myinterface'
p980
asbasbasbag56
(g72
g58
NtRp981
(dp982
g61
(dp983
sg70
g821
sg63
(lp984
g56
(g77
g58
NtRp985
(dp986
g61
(dp987
g81
g82
ssg70
g981
sg63
(lp988
S'http_accept'
p989
asbag56
(g77
g58
NtRp990
(dp991
g61
(dp992
g88
g89
ssg70
g981
sg63
(lp993
S':'
asbag56
(g77
g58
NtRp994
(dp995
g61
(dp996
sg70
g981
sg63
(lp997
g56
(g57
g58
NtRp998
(dp999
g61
(dp1000
g69
I4
ssg70
g994
sg63
(lp1001
S'text/html,application/xhtml+xml,application/xml;q=0.9,*/*;q=0.8'
p1002
asbasbasbag56
(g72
g58
NtRp1003
(dp1004
g61
(dp1005
sg70
g821
sg63
(lp1006
g56
(g77
g58
NtRp1007
(dp1008
g61
(dp1009
g81
g82
ssg70
g1003
sg63
(lp1010
S'http_accept_charset'
p1011
asbag56
(g77
g58
NtRp1012
(dp1013
g61
(dp1014
g88
g89
ssg70
g1003
sg63
(lp1015
S':'
asbag56
(g77
g58
NtRp1016
(dp1017
g61
(dp1018
sg70
g1003
sg63
(lp1019
g56
(g57
g58
NtRp1020
(dp1021
g61
(dp1022
g69
I4
ssg70
g1016
sg63
(lp1023
S'ISO-8859-1,utf-8;q=0.7,*;q=0.3'
p1024
asbasbasbag56
(g72
g58
NtRp1025
(dp1026
g61
(dp1027
sg70
g821
sg63
(lp1028
g56
(g77
g58
NtRp1029
(dp1030
g61
(dp1031
g81
g82
ssg70
g1025
sg63
(lp1032
S'http_accept_encoding'
p1033
asbag56
(g77
g58
NtRp1034
(dp1035
g61
(dp1036
g88
g89
ssg70
g1025
sg63
(lp1037
S':'
asbag56
(g77
g58
NtRp1038
(dp1039
g61
(dp1040
sg70
g1025
sg63
(lp1041
g56
(g57
g58
NtRp1042
(dp1043
g61
(dp1044
g69
I4
ssg70
g1038
sg63
(lp1045
S'gzip,deflate,sdch'
p1046
asbasbasbag56
(g72
g58
NtRp1047
(dp1048
g61
(dp1049
sg70
g821
sg63
(lp1050
g56
(g77
g58
NtRp1051
(dp1052
g61
(dp1053
g81
g82
ssg70
g1047
sg63
(lp1054
S'http_accept_language'
p1055
asbag56
(g77
g58
NtRp1056
(dp1057
g61
(dp1058
g88
g89
ssg70
g1047
sg63
(lp1059
S':'
asbag56
(g77
g58
NtRp1060
(dp1061
g61
(dp1062
sg70
g1047
sg63
(lp1063
g56
(g57
g58
NtRp1064
(dp1065
g61
(dp1066
g69
I4
ssg70
g1060
sg63
(lp1067
S'en-GB,en-US;q=0.8,en;q=0.6'
p1068
asbasbasbag56
(g72
g58
NtRp1069
(dp1070
g61
(dp1071
sg70
g821
sg63
(lp1072
g56
(g77
g58
NtRp1073
(dp1074
g61
(dp1075
g81
g82
ssg70
g1069
sg63
(lp1076
S'http_connection'
p1077
asbag56
(g77
g58
NtRp1078
(dp1079
g61
(dp1080
g88
g89
ssg70
g1069
sg63
(lp1081
S':'
asbag56
(g77
g58
NtRp1082
(dp1083
g61
(dp1084
sg70
g1069
sg63
(lp1085
g56
(g57
g58
NtRp1086
(dp1087
g61
(dp1088
g69
I4
ssg70
g1082
sg63
(lp1089
S'keep-alive'
p1090
asbasbasbag56
(g72
g58
NtRp1091
(dp1092
g61
(dp1093
sg70
g821
sg63
(lp1094
g56
(g77
g58
NtRp1095
(dp1096
g61
(dp1097
g81
g82
ssg70
g1091
sg63
(lp1098
S'http_cookie'
p1099
asbag56
(g77
g58
NtRp1100
(dp1101
g61
(dp1102
g88
g89
ssg70
g1091
sg63
(lp1103
S':'
asbag56
(g77
g58
NtRp1104
(dp1105
g61
(dp1106
sg70
g1091
sg63
(lp1107
g56
(g57
g58
NtRp1108
(dp1109
g61
(dp1110
g69
I4
ssg70
g1104
sg63
(lp1111
S'session_id_welcome=127.0.0.1-c76157cb-db2b-4c4d-a674-8cfd88c3c202; session_id_admin=127.0.0.1-ad3c8b0e-6155-4c7f-b7b1-582679f3c9e9; session_id_cass1=127.0.0.1-5bed0d91-125b-469b-bd52-fa11514160e4'
p1112
asbasbasbag56
(g72
g58
NtRp1113
(dp1114
g61
(dp1115
sg70
g821
sg63
(lp1116
g56
(g77
g58
NtRp1117
(dp1118
g61
(dp1119
g81
g82
ssg70
g1113
sg63
(lp1120
S'http_host'
p1121
asbag56
(g77
g58
NtRp1122
(dp1123
g61
(dp1124
g88
g89
ssg70
g1113
sg63
(lp1125
S':'
asbag56
(g77
g58
NtRp1126
(dp1127
g61
(dp1128
sg70
g1113
sg63
(lp1129
g56
(g57
g58
NtRp1130
(dp1131
g61
(dp1132
g69
I4
ssg70
g1126
sg63
(lp1133
S'127.0.0.1:8000'
p1134
asbasbasbag56
(g72
g58
NtRp1135
(dp1136
g61
(dp1137
sg70
g821
sg63
(lp1138
g56
(g77
g58
NtRp1139
(dp1140
g61
(dp1141
g81
g82
ssg70
g1135
sg63
(lp1142
S'http_user_agent'
p1143
asbag56
(g77
g58
NtRp1144
(dp1145
g61
(dp1146
g88
g89
ssg70
g1135
sg63
(lp1147
S':'
asbag56
(g77
g58
NtRp1148
(dp1149
g61
(dp1150
sg70
g1135
sg63
(lp1151
g56
(g57
g58
NtRp1152
(dp1153
g61
(dp1154
g69
I4
ssg70
g1148
sg63
(lp1155
S'Mozilla/5.0 (X11; Linux x86_64) AppleWebKit/535.1 (KHTML, like Gecko) Chrome/14.0.835.186 Safari/535.1'
p1156
asbasbasbag56
(g72
g58
NtRp1157
(dp1158
g61
(dp1159
sg70
g821
sg63
(lp1160
g56
(g77
g58
NtRp1161
(dp1162
g61
(dp1163
g81
g82
ssg70
g1157
sg63
(lp1164
S'is_jython'
p1165
asbag56
(g77
g58
NtRp1166
(dp1167
g61
(dp1168
g88
g89
ssg70
g1157
sg63
(lp1169
S':'
asbag56
(g77
g58
NtRp1170
(dp1171
g61
(dp1172
sg70
g1157
sg63
(lp1173
g56
(g57
g58
NtRp1174
(dp1175
g61
(dp1176
g69
I4
ssg70
g1170
sg63
(lp1177
g99
asbasbasbag56
(g72
g58
NtRp1178
(dp1179
g61
(dp1180
sg70
g821
sg63
(lp1181
g56
(g77
g58
NtRp1182
(dp1183
g61
(dp1184
g81
g82
ssg70
g1178
sg63
(lp1185
S'path_info'
p1186
asbag56
(g77
g58
NtRp1187
(dp1188
g61
(dp1189
g88
g89
ssg70
g1178
sg63
(lp1190
S':'
asbag56
(g77
g58
NtRp1191
(dp1192
g61
(dp1193
sg70
g1178
sg63
(lp1194
g56
(g57
g58
NtRp1195
(dp1196
g61
(dp1197
g69
I4
ssg70
g1191
sg63
(lp1198
S'/cass1/cass_mgr/clusteroverview'
p1199
asbasbasbag56
(g72
g58
NtRp1200
(dp1201
g61
(dp1202
sg70
g821
sg63
(lp1203
g56
(g77
g58
NtRp1204
(dp1205
g61
(dp1206
g81
g82
ssg70
g1200
sg63
(lp1207
S'query_string'
p1208
asbag56
(g77
g58
NtRp1209
(dp1210
g61
(dp1211
g88
g89
ssg70
g1200
sg63
(lp1212
S':'
asbag56
(g77
g58
NtRp1213
(dp1214
g61
(dp1215
sg70
g1200
sg63
(lp1216
g56
(g57
g58
NtRp1217
(dp1218
g61
(dp1219
g69
I4
ssg70
g1213
sg63
(lp1220
S''
asbasbasbag56
(g72
g58
NtRp1221
(dp1222
g61
(dp1223
sg70
g821
sg63
(lp1224
g56
(g77
g58
NtRp1225
(dp1226
g61
(dp1227
g81
g82
ssg70
g1221
sg63
(lp1228
S'remote_addr'
p1229
asbag56
(g77
g58
NtRp1230
(dp1231
g61
(dp1232
g88
g89
ssg70
g1221
sg63
(lp1233
S':'
asbag56
(g77
g58
NtRp1234
(dp1235
g61
(dp1236
sg70
g1221
sg63
(lp1237
g56
(g57
g58
NtRp1238
(dp1239
g61
(dp1240
g69
I4
ssg70
g1234
sg63
(lp1241
g189
asbasbasbag56
(g72
g58
NtRp1242
(dp1243
g61
(dp1244
sg70
g821
sg63
(lp1245
g56
(g77
g58
NtRp1246
(dp1247
g61
(dp1248
g81
g82
ssg70
g1242
sg63
(lp1249
S'remote_port'
p1250
asbag56
(g77
g58
NtRp1251
(dp1252
g61
(dp1253
g88
g89
ssg70
g1242
sg63
(lp1254
S':'
asbag56
(g77
g58
NtRp1255
(dp1256
g61
(dp1257
sg70
g1242
sg63
(lp1258
g56
(g57
g58
NtRp1259
(dp1260
g61
(dp1261
g69
I4
ssg70
g1255
sg63
(lp1262
S'56946'
p1263
asbasbasbag56
(g72
g58
NtRp1264
(dp1265
g61
(dp1266
sg70
g821
sg63
(lp1267
g56
(g77
g58
NtRp1268
(dp1269
g61
(dp1270
g81
g82
ssg70
g1264
sg63
(lp1271
S'request_method'
p1272
asbag56
(g77
g58
NtRp1273
(dp1274
g61
(dp1275
g88
g89
ssg70
g1264
sg63
(lp1276
S':'
asbag56
(g77
g58
NtRp1277
(dp1278
g61
(dp1279
sg70
g1264
sg63
(lp1280
g56
(g57
g58
NtRp1281
(dp1282
g61
(dp1283
g69
I4
ssg70
g1277
sg63
(lp1284
S'GET'
p1285
asbasbasbag56
(g72
g58
NtRp1286
(dp1287
g61
(dp1288
sg70
g821
sg63
(lp1289
g56
(g77
g58
NtRp1290
(dp1291
g61
(dp1292
g81
g82
ssg70
g1286
sg63
(lp1293
S'script_name'
p1294
asbag56
(g77
g58
NtRp1295
(dp1296
g61
(dp1297
g88
g89
ssg70
g1286
sg63
(lp1298
S':'
asbag56
(g77
g58
NtRp1299
(dp1300
g61
(dp1301
sg70
g1286
sg63
(lp1302
g56
(g57
g58
NtRp1303
(dp1304
g61
(dp1305
g69
I4
ssg70
g1299
sg63
(lp1306
S''
asbasbasbag56
(g72
g58
NtRp1307
(dp1308
g61
(dp1309
sg70
g821
sg63
(lp1310
g56
(g77
g58
NtRp1311
(dp1312
g61
(dp1313
g81
g82
ssg70
g1307
sg63
(lp1314
S'server_name'
p1315
asbag56
(g77
g58
NtRp1316
(dp1317
g61
(dp1318
g88
g89
ssg70
g1307
sg63
(lp1319
S':'
asbag56
(g77
g58
NtRp1320
(dp1321
g61
(dp1322
sg70
g1307
sg63
(lp1323
g56
(g57
g58
NtRp1324
(dp1325
g61
(dp1326
g69
I4
ssg70
g1320
sg63
(lp1327
S'CASR1-VM10-DEV'
p1328
asbasbasbag56
(g72
g58
NtRp1329
(dp1330
g61
(dp1331
sg70
g821
sg63
(lp1332
g56
(g77
g58
NtRp1333
(dp1334
g61
(dp1335
g81
g82
ssg70
g1329
sg63
(lp1336
S'server_port'
p1337
asbag56
(g77
g58
NtRp1338
(dp1339
g61
(dp1340
g88
g89
ssg70
g1329
sg63
(lp1341
S':'
asbag56
(g77
g58
NtRp1342
(dp1343
g61
(dp1344
sg70
g1329
sg63
(lp1345
g56
(g57
g58
NtRp1346
(dp1347
g61
(dp1348
g69
I4
ssg70
g1342
sg63
(lp1349
S'8000'
p1350
asbasbasbag56
(g72
g58
NtRp1351
(dp1352
g61
(dp1353
sg70
g821
sg63
(lp1354
g56
(g77
g58
NtRp1355
(dp1356
g61
(dp1357
g81
g82
ssg70
g1351
sg63
(lp1358
S'server_protocol'
p1359
asbag56
(g77
g58
NtRp1360
(dp1361
g61
(dp1362
g88
g89
ssg70
g1351
sg63
(lp1363
S':'
asbag56
(g77
g58
NtRp1364
(dp1365
g61
(dp1366
sg70
g1351
sg63
(lp1367
g56
(g57
g58
NtRp1368
(dp1369
g61
(dp1370
g69
I4
ssg70
g1364
sg63
(lp1371
S'HTTP/1.1'
p1372
asbasbasbag56
(g72
g58
NtRp1373
(dp1374
g61
(dp1375
sg70
g821
sg63
(lp1376
g56
(g77
g58
NtRp1377
(dp1378
g61
(dp1379
g81
g82
ssg70
g1373
sg63
(lp1380
S'server_software'
p1381
asbag56
(g77
g58
NtRp1382
(dp1383
g61
(dp1384
g88
g89
ssg70
g1373
sg63
(lp1385
S':'
asbag56
(g77
g58
NtRp1386
(dp1387
g61
(dp1388
sg70
g1373
sg63
(lp1389
g56
(g57
g58
NtRp1390
(dp1391
g61
(dp1392
g69
I4
ssg70
g1386
sg63
(lp1393
S'Rocket 1.2.4'
p1394
asbasbasbag56
(g72
g58
NtRp1395
(dp1396
g61
(dp1397
sg70
g821
sg63
(lp1398
g56
(g77
g58
NtRp1399
(dp1400
g61
(dp1401
g81
g82
ssg70
g1395
sg63
(lp1402
S'web2py_crontype'
p1403
asbag56
(g77
g58
NtRp1404
(dp1405
g61
(dp1406
g88
g89
ssg70
g1395
sg63
(lp1407
S':'
asbag56
(g77
g58
NtRp1408
(dp1409
g61
(dp1410
sg70
g1395
sg63
(lp1411
g56
(g57
g58
NtRp1412
(dp1413
g61
(dp1414
g69
I4
ssg70
g1408
sg63
(lp1415
S'hard'
p1416
asbasbasbag56
(g72
g58
NtRp1417
(dp1418
g61
(dp1419
sg70
g821
sg63
(lp1420
g56
(g77
g58
NtRp1421
(dp1422
g61
(dp1423
g81
g82
ssg70
g1417
sg63
(lp1424
S'web2py_path'
p1425
asbag56
(g77
g58
NtRp1426
(dp1427
g61
(dp1428
g88
g89
ssg70
g1417
sg63
(lp1429
S':'
asbag56
(g77
g58
NtRp1430
(dp1431
g61
(dp1432
sg70
g1417
sg63
(lp1433
g56
(g57
g58
NtRp1434
(dp1435
g61
(dp1436
g69
I4
ssg70
g1430
sg63
(lp1437
g868
asbasbasbag56
(g72
g58
NtRp1438
(dp1439
g61
(dp1440
sg70
g821
sg63
(lp1441
g56
(g77
g58
NtRp1442
(dp1443
g61
(dp1444
g81
g82
ssg70
g1438
sg63
(lp1445
S'web2py_version'
p1446
asbag56
(g77
g58
NtRp1447
(dp1448
g61
(dp1449
g88
g89
ssg70
g1438
sg63
(lp1450
S':'
asbag56
(g77
g58
NtRp1451
(dp1452
g61
(dp1453
sg70
g1438
sg63
(lp1454
g56
(g57
g58
NtRp1455
(dp1456
g61
(dp1457
g69
I4
ssg70
g1451
sg63
(lp1458
g56
(g65
g58
NtRp1459
(dp1460
g61
(dp1461
g69
I3
ssg70
Nsg63
(lp1462
g56
(g72
g58
NtRp1463
(dp1464
g61
(dp1465
sg70
g1459
sg63
(lp1466
g56
(g77
g58
NtRp1467
(dp1468
g61
(dp1469
sg70
g1463
sg63
(lp1470
g56
(g57
g58
NtRp1471
(dp1472
g61
(dp1473
g69
I3
ssg70
g1467
sg63
(lp1474
S'1'
asbasbasbag56
(g72
g58
NtRp1475
(dp1476
g61
(dp1477
sg70
g1459
sg63
(lp1478
g56
(g77
g58
NtRp1479
(dp1480
g61
(dp1481
sg70
g1475
sg63
(lp1482
g56
(g57
g58
NtRp1483
(dp1484
g61
(dp1485
g69
I3
ssg70
g1479
sg63
(lp1486
S'99'
p1487
asbasbasbag56
(g72
g58
NtRp1488
(dp1489
g61
(dp1490
sg70
g1459
sg63
(lp1491
g56
(g77
g58
NtRp1492
(dp1493
g61
(dp1494
sg70
g1488
sg63
(lp1495
g56
(g57
g58
NtRp1496
(dp1497
g61
(dp1498
g69
I3
ssg70
g1492
sg63
(lp1499
S'2'
asbasbasbag56
(g72
g58
NtRp1500
(dp1501
g61
(dp1502
sg70
g1459
sg63
(lp1503
g56
(g77
g58
NtRp1504
(dp1505
g61
(dp1506
sg70
g1500
sg63
(lp1507
g56
(g57
g58
NtRp1508
(dp1509
g61
(dp1510
g69
I3
ssg70
g1504
sg63
(lp1511
S'datetime.datetime(2011, 9, 26, 6, 55, 33)'
p1512
asbasbasbag56
(g72
g58
NtRp1513
(dp1514
g61
(dp1515
sg70
g1459
sg63
(lp1516
g56
(g77
g58
NtRp1517
(dp1518
g61
(dp1519
sg70
g1513
sg63
(lp1520
g56
(g57
g58
NtRp1521
(dp1522
g61
(dp1523
g69
I3
ssg70
g1517
sg63
(lp1524
S'stable'
p1525
asbasbasbasbasbasbasbag56
(g72
g58
NtRp1526
(dp1527
g61
(dp1528
sg70
g821
sg63
(lp1529
g56
(g77
g58
NtRp1530
(dp1531
g61
(dp1532
g81
g82
ssg70
g1526
sg63
(lp1533
S'wsgi_errors'
p1534
asbag56
(g77
g58
NtRp1535
(dp1536
g61
(dp1537
g88
g89
ssg70
g1526
sg63
(lp1538
S':'
asbag56
(g77
g58
NtRp1539
(dp1540
g61
(dp1541
sg70
g1526
sg63
(lp1542
g56
(g57
g58
NtRp1543
(dp1544
g61
(dp1545
g69
I4
ssg70
g1539
sg63
(lp1546
S"<open file '<stderr>', mode 'w' at 0x7fb885d02270>"
p1547
asbasbasbag56
(g72
g58
NtRp1548
(dp1549
g61
(dp1550
sg70
g821
sg63
(lp1551
g56
(g77
g58
NtRp1552
(dp1553
g61
(dp1554
g81
g82
ssg70
g1548
sg63
(lp1555
S'wsgi_file_wrapper'
p1556
asbag56
(g77
g58
NtRp1557
(dp1558
g61
(dp1559
g88
g89
ssg70
g1548
sg63
(lp1560
S':'
asbag56
(g77
g58
NtRp1561
(dp1562
g61
(dp1563
sg70
g1548
sg63
(lp1564
g56
(g57
g58
NtRp1565
(dp1566
g61
(dp1567
g69
I4
ssg70
g1561
sg63
(lp1568
S'<class wsgiref.util.FileWrapper at 0x14c2390>'
p1569
asbasbasbag56
(g72
g58
NtRp1570
(dp1571
g61
(dp1572
sg70
g821
sg63
(lp1573
g56
(g77
g58
NtRp1574
(dp1575
g61
(dp1576
g81
g82
ssg70
g1570
sg63
(lp1577
S'wsgi_input'
p1578
asbag56
(g77
g58
NtRp1579
(dp1580
g61
(dp1581
g88
g89
ssg70
g1570
sg63
(lp1582
S':'
asbag56
(g77
g58
NtRp1583
(dp1584
g61
(dp1585
sg70
g1570
sg63
(lp1586
g56
(g57
g58
NtRp1587
(dp1588
g61
(dp1589
g69
I4
ssg70
g1583
sg63
(lp1590
S'<socket._fileobject object at 0x3355b50>'
p1591
asbasbasbag56
(g72
g58
NtRp1592
(dp1593
g61
(dp1594
sg70
g821
sg63
(lp1595
g56
(g77
g58
NtRp1596
(dp1597
g61
(dp1598
g81
g82
ssg70
g1592
sg63
(lp1599
S'wsgi_multiprocess'
p1600
asbag56
(g77
g58
NtRp1601
(dp1602
g61
(dp1603
g88
g89
ssg70
g1592
sg63
(lp1604
S':'
asbag56
(g77
g58
NtRp1605
(dp1606
g61
(dp1607
sg70
g1592
sg63
(lp1608
g56
(g57
g58
NtRp1609
(dp1610
g61
(dp1611
g69
I4
ssg70
g1605
sg63
(lp1612
g99
asbasbasbag56
(g72
g58
NtRp1613
(dp1614
g61
(dp1615
sg70
g821
sg63
(lp1616
g56
(g77
g58
NtRp1617
(dp1618
g61
(dp1619
g81
g82
ssg70
g1613
sg63
(lp1620
S'wsgi_multithread'
p1621
asbag56
(g77
g58
NtRp1622
(dp1623
g61
(dp1624
g88
g89
ssg70
g1613
sg63
(lp1625
S':'
asbag56
(g77
g58
NtRp1626
(dp1627
g61
(dp1628
sg70
g1613
sg63
(lp1629
g56
(g57
g58
NtRp1630
(dp1631
g61
(dp1632
g69
I4
ssg70
g1626
sg63
(lp1633
S'True'
p1634
asbasbasbag56
(g72
g58
NtRp1635
(dp1636
g61
(dp1637
sg70
g821
sg63
(lp1638
g56
(g77
g58
NtRp1639
(dp1640
g61
(dp1641
g81
g82
ssg70
g1635
sg63
(lp1642
S'wsgi_run_once'
p1643
asbag56
(g77
g58
NtRp1644
(dp1645
g61
(dp1646
g88
g89
ssg70
g1635
sg63
(lp1647
S':'
asbag56
(g77
g58
NtRp1648
(dp1649
g61
(dp1650
sg70
g1635
sg63
(lp1651
g56
(g57
g58
NtRp1652
(dp1653
g61
(dp1654
g69
I4
ssg70
g1648
sg63
(lp1655
g99
asbasbasbag56
(g72
g58
NtRp1656
(dp1657
g61
(dp1658
sg70
g821
sg63
(lp1659
g56
(g77
g58
NtRp1660
(dp1661
g61
(dp1662
g81
g82
ssg70
g1656
sg63
(lp1663
S'wsgi_url_scheme'
p1664
asbag56
(g77
g58
NtRp1665
(dp1666
g61
(dp1667
g88
g89
ssg70
g1656
sg63
(lp1668
S':'
asbag56
(g77
g58
NtRp1669
(dp1670
g61
(dp1671
sg70
g1656
sg63
(lp1672
g56
(g57
g58
NtRp1673
(dp1674
g61
(dp1675
g69
I4
ssg70
g1669
sg63
(lp1676
S'http'
p1677
asbasbasbag56
(g72
g58
NtRp1678
(dp1679
g61
(dp1680
sg70
g821
sg63
(lp1681
g56
(g77
g58
NtRp1682
(dp1683
g61
(dp1684
g81
g82
ssg70
g1678
sg63
(lp1685
S'wsgi_version'
p1686
asbag56
(g77
g58
NtRp1687
(dp1688
g61
(dp1689
g88
g89
ssg70
g1678
sg63
(lp1690
S':'
asbag56
(g77
g58
NtRp1691
(dp1692
g61
(dp1693
sg70
g1678
sg63
(lp1694
g56
(g57
g58
NtRp1695
(dp1696
g61
(dp1697
g69
I4
ssg70
g1691
sg63
(lp1698
g56
(g65
g58
NtRp1699
(dp1700
g61
(dp1701
g69
I3
ssg70
Nsg63
(lp1702
g56
(g72
g58
NtRp1703
(dp1704
g61
(dp1705
sg70
g1699
sg63
(lp1706
g56
(g77
g58
NtRp1707
(dp1708
g61
(dp1709
sg70
g1703
sg63
(lp1710
g56
(g57
g58
NtRp1711
(dp1712
g61
(dp1713
g69
I3
ssg70
g1707
sg63
(lp1714
S'1'
asbasbasbag56
(g72
g58
NtRp1715
(dp1716
g61
(dp1717
sg70
g1699
sg63
(lp1718
g56
(g77
g58
NtRp1719
(dp1720
g61
(dp1721
sg70
g1715
sg63
(lp1722
g56
(g57
g58
NtRp1723
(dp1724
g61
(dp1725
g69
I3
ssg70
g1719
sg63
(lp1726
S'0'
asbasbasbasbasbasbasbasbasbasbasbag56
(g72
g58
NtRp1727
(dp1728
g61
(dp1729
sg70
g66
sg63
(lp1730
g56
(g77
g58
NtRp1731
(dp1732
g61
(dp1733
g81
g82
ssg70
g1727
sg63
(lp1734
S'extension'
p1735
asbag56
(g77
g58
NtRp1736
(dp1737
g61
(dp1738
g88
g89
ssg70
g1727
sg63
(lp1739
S':'
asbag56
(g77
g58
NtRp1740
(dp1741
g61
(dp1742
sg70
g1727
sg63
(lp1743
g56
(g57
g58
NtRp1744
(dp1745
g61
(dp1746
g69
I5
ssg70
g1740
sg63
(lp1747
S'html'
p1748
asbasbasbag56
(g72
g58
NtRp1749
(dp1750
g61
(dp1751
sg70
g66
sg63
(lp1752
g56
(g77
g58
NtRp1753
(dp1754
g61
(dp1755
g81
g82
ssg70
g1749
sg63
(lp1756
S'folder'
p1757
asbag56
(g77
g58
NtRp1758
(dp1759
g61
(dp1760
g88
g89
ssg70
g1749
sg63
(lp1761
S':'
asbag56
(g77
g58
NtRp1762
(dp1763
g61
(dp1764
sg70
g1749
sg63
(lp1765
g56
(g57
g58
NtRp1766
(dp1767
g61
(dp1768
g69
I5
ssg70
g1762
sg63
(lp1769
S'/opt/cassandra-dev/PROJECTS/Cassandra-Monitor/src/CassandraMonitor/mycassandramanager/myinterface/applications/cass1/'
p1770
asbasbasbag56
(g72
g58
NtRp1771
(dp1772
g61
(dp1773
sg70
g66
sg63
(lp1774
g56
(g77
g58
NtRp1775
(dp1776
g61
(dp1777
g81
g82
ssg70
g1771
sg63
(lp1778
S'function'
p1779
asbag56
(g77
g58
NtRp1780
(dp1781
g61
(dp1782
g88
g89
ssg70
g1771
sg63
(lp1783
S':'
asbag56
(g77
g58
NtRp1784
(dp1785
g61
(dp1786
sg70
g1771
sg63
(lp1787
g56
(g57
g58
NtRp1788
(dp1789
g61
(dp1790
g69
I5
ssg70
g1784
sg63
(lp1791
S'clusteroverview'
p1792
asbasbasbag56
(g72
g58
NtRp1793
(dp1794
g61
(dp1795
sg70
g66
sg63
(lp1796
g56
(g77
g58
NtRp1797
(dp1798
g61
(dp1799
g81
g82
ssg70
g1793
sg63
(lp1800
S'get_vars'
p1801
asbag56
(g77
g58
NtRp1802
(dp1803
g61
(dp1804
g88
g89
ssg70
g1793
sg63
(lp1805
S':'
asbag56
(g77
g58
NtRp1806
(dp1807
g61
(dp1808
sg70
g1793
sg63
(lp1809
g56
(g57
g58
NtRp1810
(dp1811
g61
(dp1812
g69
I5
ssg70
g1806
sg63
(lp1813
g56
(g65
g58
NtRp1814
(dp1815
g61
(dp1816
g69
I4
ssg70
Nsg63
(lp1817
sbasbasbasbag56
(g72
g58
NtRp1818
(dp1819
g61
(dp1820
sg70
g66
sg63
(lp1821
g56
(g77
g58
NtRp1822
(dp1823
g61
(dp1824
g81
g82
ssg70
g1818
sg63
(lp1825
S'global_settings'
p1826
asbag56
(g77
g58
NtRp1827
(dp1828
g61
(dp1829
g88
g89
ssg70
g1818
sg63
(lp1830
S':'
asbag56
(g77
g58
NtRp1831
(dp1832
g61
(dp1833
sg70
g1818
sg63
(lp1834
g56
(g57
g58
NtRp1835
(dp1836
g61
(dp1837
g69
I5
ssg70
g1831
sg63
(lp1838
g56
(g65
g58
NtRp1839
(dp1840
g61
(dp1841
g69
I4
ssg70
Nsg63
(lp1842
g56
(g72
g58
NtRp1843
(dp1844
g61
(dp1845
sg70
g1839
sg63
(lp1846
g56
(g77
g58
NtRp1847
(dp1848
g61
(dp1849
g81
g82
ssg70
g1843
sg63
(lp1850
g833
asbag56
(g77
g58
NtRp1851
(dp1852
g61
(dp1853
g88
g89
ssg70
g1843
sg63
(lp1854
S':'
asbag56
(g77
g58
NtRp1855
(dp1856
g61
(dp1857
sg70
g1843
sg63
(lp1858
g56
(g57
g58
NtRp1859
(dp1860
g61
(dp1861
g69
I4
ssg70
g1855
sg63
(lp1862
S"set(['/opt/cassandra-dev/PROJECTS/Cassandra-Monitor/src/CassandraMonitor/mycassandramanager/myinterface/applications/admin/', '/opt/cassandra-dev/PROJECTS/Cassandra-Monitor/src/CassandraMonitor/mycassandramanager/myinterface/applications/cass1/'])"
p1863
asbasbasbag56
(g72
g58
NtRp1864
(dp1865
g61
(dp1866
sg70
g1839
sg63
(lp1867
g56
(g77
g58
NtRp1868
(dp1869
g61
(dp1870
g81
g82
ssg70
g1864
sg63
(lp1871
g855
asbag56
(g77
g58
NtRp1872
(dp1873
g61
(dp1874
g88
g89
ssg70
g1864
sg63
(lp1875
S':'
asbag56
(g77
g58
NtRp1876
(dp1877
g61
(dp1878
sg70
g1864
sg63
(lp1879
g56
(g57
g58
NtRp1880
(dp1881
g61
(dp1882
g69
I4
ssg70
g1876
sg63
(lp1883
g868
asbasbasbag56
(g72
g58
NtRp1884
(dp1885
g61
(dp1886
sg70
g1839
sg63
(lp1887
g56
(g77
g58
NtRp1888
(dp1889
g61
(dp1890
g81
g82
ssg70
g1884
sg63
(lp1891
g877
asbag56
(g77
g58
NtRp1892
(dp1893
g61
(dp1894
g88
g89
ssg70
g1884
sg63
(lp1895
S':'
asbag56
(g77
g58
NtRp1896
(dp1897
g61
(dp1898
sg70
g1884
sg63
(lp1899
g56
(g57
g58
NtRp1900
(dp1901
g61
(dp1902
g69
I4
ssg70
g1896
sg63
(lp1903
g56
(g65
g58
NtRp1904
(dp1905
g61
(dp1906
g69
I3
ssg70
Nsg63
(lp1907
sbasbasbasbag56
(g72
g58
NtRp1908
(dp1909
g61
(dp1910
sg70
g1839
sg63
(lp1911
g56
(g77
g58
NtRp1912
(dp1913
g61
(dp1914
g81
g82
ssg70
g1908
sg63
(lp1915
g902
asbag56
(g77
g58
NtRp1916
(dp1917
g61
(dp1918
g88
g89
ssg70
g1908
sg63
(lp1919
S':'
asbag56
(g77
g58
NtRp1920
(dp1921
g61
(dp1922
sg70
g1908
sg63
(lp1923
g56
(g57
g58
NtRp1924
(dp1925
g61
(dp1926
g69
I4
ssg70
g1920
sg63
(lp1927
S"<Values at 0x17d4098: {'verbose': False, 'ip': '127.0.0.1', 'shutdown_timeout': 5, 'taskbar': False, 'nocron': False, 'pid_filename': 'httpserver.pid', 'maxthreads': None, 'softcron': False, 'server_name': 'CASR1-VM10-DEV', 'bpython': False, 'nogui': False, 'port': 8000, 'extcron': False, 'debuglevel': 30, 'test': None, 'folder': '/opt/cassandra-dev/PROJECTS/Cassandra-Monitor/src/CassandraMonitor/mycassandramanager/myinterface', 'config': '', 'import_models': False, 'winservice': '', 'shell': None, 'run': '', 'log_filename': 'httpserver.log', 'args': [''], 'ssl_ca_certificate': None, 'scheduler': None, 'profiler_filename': None, 'ssl_private_key': '', 'password': 'testing', 'request_queue_size': 5, 'ssl_certificate': '', 'cronjob': False, 'plain': False, 'quiet': False, 'interfaces': None, 'minthreads': None, 'timeout': 10, 'numthreads': None, 'nobanner': False}>"
p1928
asbasbasbag56
(g72
g58
NtRp1929
(dp1930
g61
(dp1931
sg70
g1839
sg63
(lp1932
g56
(g77
g58
NtRp1933
(dp1934
g61
(dp1935
g81
g82
ssg70
g1929
sg63
(lp1936
g924
asbag56
(g77
g58
NtRp1937
(dp1938
g61
(dp1939
g88
g89
ssg70
g1929
sg63
(lp1940
S':'
asbag56
(g77
g58
NtRp1941
(dp1942
g61
(dp1943
sg70
g1929
sg63
(lp1944
g56
(g57
g58
NtRp1945
(dp1946
g61
(dp1947
g69
I4
ssg70
g1941
sg63
(lp1948
S'set([])'
p1949
asbasbasbag56
(g72
g58
NtRp1950
(dp1951
g61
(dp1952
sg70
g1839
sg63
(lp1953
g56
(g77
g58
NtRp1954
(dp1955
g61
(dp1956
g81
g82
ssg70
g1950
sg63
(lp1957
g946
asbag56
(g77
g58
NtRp1958
(dp1959
g61
(dp1960
g88
g89
ssg70
g1950
sg63
(lp1961
S':'
asbag56
(g77
g58
NtRp1962
(dp1963
g61
(dp1964
sg70
g1950
sg63
(lp1965
g56
(g57
g58
NtRp1966
(dp1967
g61
(dp1968
g69
I4
ssg70
g1962
sg63
(lp1969
g99
asbasbasbag56
(g72
g58
NtRp1970
(dp1971
g61
(dp1972
sg70
g1839
sg63
(lp1973
g56
(g77
g58
NtRp1974
(dp1975
g61
(dp1976
g81
g82
ssg70
g1970
sg63
(lp1977
g967
asbag56
(g77
g58
NtRp1978
(dp1979
g61
(dp1980
g88
g89
ssg70
g1970
sg63
(lp1981
S':'
asbag56
(g77
g58
NtRp1982
(dp1983
g61
(dp1984
sg70
g1970
sg63
(lp1985
g56
(g57
g58
NtRp1986
(dp1987
g61
(dp1988
g69
I4
ssg70
g1982
sg63
(lp1989
g980
asbasbasbag56
(g72
g58
NtRp1990
(dp1991
g61
(dp1992
sg70
g1839
sg63
(lp1993
g56
(g77
g58
NtRp1994
(dp1995
g61
(dp1996
g81
g82
ssg70
g1990
sg63
(lp1997
g1165
asbag56
(g77
g58
NtRp1998
(dp1999
g61
(dp2000
g88
g89
ssg70
g1990
sg63
(lp2001
S':'
asbag56
(g77
g58
NtRp2002
(dp2003
g61
(dp2004
sg70
g1990
sg63
(lp2005
g56
(g57
g58
NtRp2006
(dp2007
g61
(dp2008
g69
I4
ssg70
g2002
sg63
(lp2009
g99
asbasbasbag56
(g72
g58
NtRp2010
(dp2011
g61
(dp2012
sg70
g1839
sg63
(lp2013
g56
(g77
g58
NtRp2014
(dp2015
g61
(dp2016
g81
g82
ssg70
g2010
sg63
(lp2017
g1403
asbag56
(g77
g58
NtRp2018
(dp2019
g61
(dp2020
g88
g89
ssg70
g2010
sg63
(lp2021
S':'
asbag56
(g77
g58
NtRp2022
(dp2023
g61
(dp2024
sg70
g2010
sg63
(lp2025
g56
(g57
g58
NtRp2026
(dp2027
g61
(dp2028
g69
I4
ssg70
g2022
sg63
(lp2029
g1416
asbasbasbag56
(g72
g58
NtRp2030
(dp2031
g61
(dp2032
sg70
g1839
sg63
(lp2033
g56
(g77
g58
NtRp2034
(dp2035
g61
(dp2036
g81
g82
ssg70
g2030
sg63
(lp2037
g1446
asbag56
(g77
g58
NtRp2038
(dp2039
g61
(dp2040
g88
g89
ssg70
g2030
sg63
(lp2041
S':'
asbag56
(g77
g58
NtRp2042
(dp2043
g61
(dp2044
sg70
g2030
sg63
(lp2045
g56
(g57
g58
NtRp2046
(dp2047
g61
(dp2048
g69
I4
ssg70
g2042
sg63
(lp2049
g56
(g65
g58
NtRp2050
(dp2051
g61
(dp2052
g69
I3
ssg70
Nsg63
(lp2053
g56
(g72
g58
NtRp2054
(dp2055
g61
(dp2056
sg70
g2050
sg63
(lp2057
g56
(g77
g58
NtRp2058
(dp2059
g61
(dp2060
sg70
g2054
sg63
(lp2061
g56
(g57
g58
NtRp2062
(dp2063
g61
(dp2064
g69
I3
ssg70
g2058
sg63
(lp2065
S'1'
asbasbasbag56
(g72
g58
NtRp2066
(dp2067
g61
(dp2068
sg70
g2050
sg63
(lp2069
g56
(g77
g58
NtRp2070
(dp2071
g61
(dp2072
sg70
g2066
sg63
(lp2073
g56
(g57
g58
NtRp2074
(dp2075
g61
(dp2076
g69
I3
ssg70
g2070
sg63
(lp2077
S'99'
p2078
asbasbasbag56
(g72
g58
NtRp2079
(dp2080
g61
(dp2081
sg70
g2050
sg63
(lp2082
g56
(g77
g58
NtRp2083
(dp2084
g61
(dp2085
sg70
g2079
sg63
(lp2086
g56
(g57
g58
NtRp2087
(dp2088
g61
(dp2089
g69
I3
ssg70
g2083
sg63
(lp2090
S'2'
asbasbasbag56
(g72
g58
NtRp2091
(dp2092
g61
(dp2093
sg70
g2050
sg63
(lp2094
g56
(g77
g58
NtRp2095
(dp2096
g61
(dp2097
sg70
g2091
sg63
(lp2098
g56
(g57
g58
NtRp2099
(dp2100
g61
(dp2101
g69
I3
ssg70
g2095
sg63
(lp2102
S'datetime.datetime(2011, 9, 26, 6, 55, 33)'
p2103
asbasbasbag56
(g72
g58
NtRp2104
(dp2105
g61
(dp2106
sg70
g2050
sg63
(lp2107
g56
(g77
g58
NtRp2108
(dp2109
g61
(dp2110
sg70
g2104
sg63
(lp2111
g56
(g57
g58
NtRp2112
(dp2113
g61
(dp2114
g69
I3
ssg70
g2108
sg63
(lp2115
g1525
asbasbasbasbasbasbasbasbasbasbasbag56
(g72
g58
NtRp2116
(dp2117
g61
(dp2118
sg70
g66
sg63
(lp2119
g56
(g77
g58
NtRp2120
(dp2121
g61
(dp2122
g81
g82
ssg70
g2116
sg63
(lp2123
S'is_https'
p2124
asbag56
(g77
g58
NtRp2125
(dp2126
g61
(dp2127
g88
g89
ssg70
g2116
sg63
(lp2128
S':'
asbag56
(g77
g58
NtRp2129
(dp2130
g61
(dp2131
sg70
g2116
sg63
(lp2132
g56
(g57
g58
NtRp2133
(dp2134
g61
(dp2135
g69
I5
ssg70
g2129
sg63
(lp2136
g99
asbasbasbag56
(g72
g58
NtRp2137
(dp2138
g61
(dp2139
sg70
g66
sg63
(lp2140
g56
(g77
g58
NtRp2141
(dp2142
g61
(dp2143
g81
g82
ssg70
g2137
sg63
(lp2144
S'is_local'
p2145
asbag56
(g77
g58
NtRp2146
(dp2147
g61
(dp2148
g88
g89
ssg70
g2137
sg63
(lp2149
S':'
asbag56
(g77
g58
NtRp2150
(dp2151
g61
(dp2152
sg70
g2137
sg63
(lp2153
g56
(g57
g58
NtRp2154
(dp2155
g61
(dp2156
g69
I5
ssg70
g2150
sg63
(lp2157
g1634
asbasbasbag56
(g72
g58
NtRp2158
(dp2159
g61
(dp2160
sg70
g66
sg63
(lp2161
g56
(g77
g58
NtRp2162
(dp2163
g61
(dp2164
g81
g82
ssg70
g2158
sg63
(lp2165
S'is_restful'
p2166
asbag56
(g77
g58
NtRp2167
(dp2168
g61
(dp2169
g88
g89
ssg70
g2158
sg63
(lp2170
S':'
asbag56
(g77
g58
NtRp2171
(dp2172
g61
(dp2173
sg70
g2158
sg63
(lp2174
g56
(g57
g58
NtRp2175
(dp2176
g61
(dp2177
g69
I5
ssg70
g2171
sg63
(lp2178
g99
asbasbasbag56
(g72
g58
NtRp2179
(dp2180
g61
(dp2181
sg70
g66
sg63
(lp2182
g56
(g77
g58
NtRp2183
(dp2184
g61
(dp2185
g81
g82
ssg70
g2179
sg63
(lp2186
S'now'
p2187
asbag56
(g77
g58
NtRp2188
(dp2189
g61
(dp2190
g88
g89
ssg70
g2179
sg63
(lp2191
S':'
asbag56
(g77
g58
NtRp2192
(dp2193
g61
(dp2194
sg70
g2179
sg63
(lp2195
g56
(g57
g58
NtRp2196
(dp2197
g61
(dp2198
g69
I5
ssg70
g2192
sg63
(lp2199
S'datetime.datetime(2011, 12, 8, 14, 50, 8, 767204)'
p2200
asbasbasbag56
(g72
g58
NtRp2201
(dp2202
g61
(dp2203
sg70
g66
sg63
(lp2204
g56
(g77
g58
NtRp2205
(dp2206
g61
(dp2207
g81
g82
ssg70
g2201
sg63
(lp2208
S'post_vars'
p2209
asbag56
(g77
g58
NtRp2210
(dp2211
g61
(dp2212
g88
g89
ssg70
g2201
sg63
(lp2213
S':'
asbag56
(g77
g58
NtRp2214
(dp2215
g61
(dp2216
sg70
g2201
sg63
(lp2217
g56
(g57
g58
NtRp2218
(dp2219
g61
(dp2220
g69
I5
ssg70
g2214
sg63
(lp2221
g56
(g65
g58
NtRp2222
(dp2223
g61
(dp2224
g69
I4
ssg70
Nsg63
(lp2225
sbasbasbasbag56
(g72
g58
NtRp2226
(dp2227
g61
(dp2228
sg70
g66
sg63
(lp2229
g56
(g77
g58
NtRp2230
(dp2231
g61
(dp2232
g81
g82
ssg70
g2226
sg63
(lp2233
S'url'
p2234
asbag56
(g77
g58
NtRp2235
(dp2236
g61
(dp2237
g88
g89
ssg70
g2226
sg63
(lp2238
S':'
asbag56
(g77
g58
NtRp2239
(dp2240
g61
(dp2241
sg70
g2226
sg63
(lp2242
g56
(g57
g58
NtRp2243
(dp2244
g61
(dp2245
g69
I5
ssg70
g2239
sg63
(lp2246
S'/cass1/cass_mgr/clusteroverview'
p2247
asbasbasbag56
(g72
g58
NtRp2248
(dp2249
g61
(dp2250
sg70
g66
sg63
(lp2251
g56
(g77
g58
NtRp2252
(dp2253
g61
(dp2254
g81
g82
ssg70
g2248
sg63
(lp2255
S'utcnow'
p2256
asbag56
(g77
g58
NtRp2257
(dp2258
g61
(dp2259
g88
g89
ssg70
g2248
sg63
(lp2260
S':'
asbag56
(g77
g58
NtRp2261
(dp2262
g61
(dp2263
sg70
g2248
sg63
(lp2264
g56
(g57
g58
NtRp2265
(dp2266
g61
(dp2267
g69
I5
ssg70
g2261
sg63
(lp2268
S'datetime.datetime(2011, 12, 8, 14, 50, 8, 767237)'
p2269
asbasbasbag56
(g72
g58
NtRp2270
(dp2271
g61
(dp2272
sg70
g66
sg63
(lp2273
g56
(g77
g58
NtRp2274
(dp2275
g61
(dp2276
g81
g82
ssg70
g2270
sg63
(lp2277
S'uuid'
p2278
asbag56
(g77
g58
NtRp2279
(dp2280
g61
(dp2281
g88
g89
ssg70
g2270
sg63
(lp2282
S':'
asbag56
(g77
g58
NtRp2283
(dp2284
g61
(dp2285
sg70
g2270
sg63
(lp2286
g56
(g57
g58
NtRp2287
(dp2288
g61
(dp2289
g69
I5
ssg70
g2283
sg63
(lp2290
S'cass1/127.0.0.1.2011-12-08.14-50-08.56c26c80-b586-4f24-830f-0fa0e348300a'
p2291
asbasbasbag56
(g72
g58
NtRp2292
(dp2293
g61
(dp2294
sg70
g66
sg63
(lp2295
g56
(g77
g58
NtRp2296
(dp2297
g61
(dp2298
g81
g82
ssg70
g2292
sg63
(lp2299
S'vars'
p2300
asbag56
(g77
g58
NtRp2301
(dp2302
g61
(dp2303
g88
g89
ssg70
g2292
sg63
(lp2304
S':'
asbag56
(g77
g58
NtRp2305
(dp2306
g61
(dp2307
sg70
g2292
sg63
(lp2308
g56
(g57
g58
NtRp2309
(dp2310
g61
(dp2311
g69
I5
ssg70
g2305
sg63
(lp2312
g56
(g65
g58
NtRp2313
(dp2314
g61
(dp2315
g69
I4
ssg70
Nsg63
(lp2316
sbasbasbasbag56
(g72
g58
NtRp2317
(dp2318
g61
(dp2319
sg70
g66
sg63
(lp2320
g56
(g77
g58
NtRp2321
(dp2322
g61
(dp2323
g81
g82
ssg70
g2317
sg63
(lp2324
S'wsgi'
p2325
asbag56
(g77
g58
NtRp2326
(dp2327
g61
(dp2328
g88
g89
ssg70
g2317
sg63
(lp2329
S':'
asbag56
(g77
g58
NtRp2330
(dp2331
g61
(dp2332
sg70
g2317
sg63
(lp2333
g56
(g57
g58
NtRp2334
(dp2335
g61
(dp2336
g69
I5
ssg70
g2330
sg63
(lp2337
g56
(g65
g58
NtRp2338
(dp2339
g61
(dp2340
g69
I4
ssg70
Nsg63
(lp2341
g56
(g72
g58
NtRp2342
(dp2343
g61
(dp2344
sg70
g2338
sg63
(lp2345
g56
(g77
g58
NtRp2346
(dp2347
g61
(dp2348
g81
g82
ssg70
g2342
sg63
(lp2349
S'environ'
p2350
asbag56
(g77
g58
NtRp2351
(dp2352
g61
(dp2353
g88
g89
ssg70
g2342
sg63
(lp2354
S':'
asbag56
(g77
g58
NtRp2355
(dp2356
g61
(dp2357
sg70
g2342
sg63
(lp2358
g56
(g57
g58
NtRp2359
(dp2360
g61
(dp2361
g69
I4
ssg70
g2355
sg63
(lp2362
g56
(g65
g58
NtRp2363
(dp2364
g61
(dp2365
g69
I3
ssg70
Nsg63
(lp2366
g56
(g72
g58
NtRp2367
(dp2368
g61
(dp2369
sg70
g2363
sg63
(lp2370
g56
(g77
g58
NtRp2371
(dp2372
g61
(dp2373
g81
g82
ssg70
g2367
sg63
(lp2374
S'HTTP_ACCEPT'
p2375
asbag56
(g77
g58
NtRp2376
(dp2377
g61
(dp2378
g88
g89
ssg70
g2367
sg63
(lp2379
S':'
asbag56
(g77
g58
NtRp2380
(dp2381
g61
(dp2382
sg70
g2367
sg63
(lp2383
g56
(g57
g58
NtRp2384
(dp2385
g61
(dp2386
g69
I3
ssg70
g2380
sg63
(lp2387
g1002
asbasbasbag56
(g72
g58
NtRp2388
(dp2389
g61
(dp2390
sg70
g2363
sg63
(lp2391
g56
(g77
g58
NtRp2392
(dp2393
g61
(dp2394
g81
g82
ssg70
g2388
sg63
(lp2395
S'HTTP_ACCEPT_CHARSET'
p2396
asbag56
(g77
g58
NtRp2397
(dp2398
g61
(dp2399
g88
g89
ssg70
g2388
sg63
(lp2400
S':'
asbag56
(g77
g58
NtRp2401
(dp2402
g61
(dp2403
sg70
g2388
sg63
(lp2404
g56
(g57
g58
NtRp2405
(dp2406
g61
(dp2407
g69
I3
ssg70
g2401
sg63
(lp2408
g1024
asbasbasbag56
(g72
g58
NtRp2409
(dp2410
g61
(dp2411
sg70
g2363
sg63
(lp2412
g56
(g77
g58
NtRp2413
(dp2414
g61
(dp2415
g81
g82
ssg70
g2409
sg63
(lp2416
S'HTTP_ACCEPT_ENCODING'
p2417
asbag56
(g77
g58
NtRp2418
(dp2419
g61
(dp2420
g88
g89
ssg70
g2409
sg63
(lp2421
S':'
asbag56
(g77
g58
NtRp2422
(dp2423
g61
(dp2424
sg70
g2409
sg63
(lp2425
g56
(g57
g58
NtRp2426
(dp2427
g61
(dp2428
g69
I3
ssg70
g2422
sg63
(lp2429
g1046
asbasbasbag56
(g72
g58
NtRp2430
(dp2431
g61
(dp2432
sg70
g2363
sg63
(lp2433
g56
(g77
g58
NtRp2434
(dp2435
g61
(dp2436
g81
g82
ssg70
g2430
sg63
(lp2437
S'HTTP_ACCEPT_LANGUAGE'
p2438
asbag56
(g77
g58
NtRp2439
(dp2440
g61
(dp2441
g88
g89
ssg70
g2430
sg63
(lp2442
S':'
asbag56
(g77
g58
NtRp2443
(dp2444
g61
(dp2445
sg70
g2430
sg63
(lp2446
g56
(g57
g58
NtRp2447
(dp2448
g61
(dp2449
g69
I3
ssg70
g2443
sg63
(lp2450
g1068
asbasbasbag56
(g72
g58
NtRp2451
(dp2452
g61
(dp2453
sg70
g2363
sg63
(lp2454
g56
(g77
g58
NtRp2455
(dp2456
g61
(dp2457
g81
g82
ssg70
g2451
sg63
(lp2458
S'HTTP_CONNECTION'
p2459
asbag56
(g77
g58
NtRp2460
(dp2461
g61
(dp2462
g88
g89
ssg70
g2451
sg63
(lp2463
S':'
asbag56
(g77
g58
NtRp2464
(dp2465
g61
(dp2466
sg70
g2451
sg63
(lp2467
g56
(g57
g58
NtRp2468
(dp2469
g61
(dp2470
g69
I3
ssg70
g2464
sg63
(lp2471
g1090
asbasbasbag56
(g72
g58
NtRp2472
(dp2473
g61
(dp2474
sg70
g2363
sg63
(lp2475
g56
(g77
g58
NtRp2476
(dp2477
g61
(dp2478
g81
g82
ssg70
g2472
sg63
(lp2479
S'HTTP_COOKIE'
p2480
asbag56
(g77
g58
NtRp2481
(dp2482
g61
(dp2483
g88
g89
ssg70
g2472
sg63
(lp2484
S':'
asbag56
(g77
g58
NtRp2485
(dp2486
g61
(dp2487
sg70
g2472
sg63
(lp2488
g56
(g57
g58
NtRp2489
(dp2490
g61
(dp2491
g69
I3
ssg70
g2485
sg63
(lp2492
g1112
asbasbasbag56
(g72
g58
NtRp2493
(dp2494
g61
(dp2495
sg70
g2363
sg63
(lp2496
g56
(g77
g58
NtRp2497
(dp2498
g61
(dp2499
g81
g82
ssg70
g2493
sg63
(lp2500
S'HTTP_HOST'
p2501
asbag56
(g77
g58
NtRp2502
(dp2503
g61
(dp2504
g88
g89
ssg70
g2493
sg63
(lp2505
S':'
asbag56
(g77
g58
NtRp2506
(dp2507
g61
(dp2508
sg70
g2493
sg63
(lp2509
g56
(g57
g58
NtRp2510
(dp2511
g61
(dp2512
g69
I3
ssg70
g2506
sg63
(lp2513
g1134
asbasbasbag56
(g72
g58
NtRp2514
(dp2515
g61
(dp2516
sg70
g2363
sg63
(lp2517
g56
(g77
g58
NtRp2518
(dp2519
g61
(dp2520
g81
g82
ssg70
g2514
sg63
(lp2521
S'HTTP_USER_AGENT'
p2522
asbag56
(g77
g58
NtRp2523
(dp2524
g61
(dp2525
g88
g89
ssg70
g2514
sg63
(lp2526
S':'
asbag56
(g77
g58
NtRp2527
(dp2528
g61
(dp2529
sg70
g2514
sg63
(lp2530
g56
(g57
g58
NtRp2531
(dp2532
g61
(dp2533
g69
I3
ssg70
g2527
sg63
(lp2534
g1156
asbasbasbag56
(g72
g58
NtRp2535
(dp2536
g61
(dp2537
sg70
g2363
sg63
(lp2538
g56
(g77
g58
NtRp2539
(dp2540
g61
(dp2541
g81
g82
ssg70
g2535
sg63
(lp2542
S'PATH_INFO'
p2543
asbag56
(g77
g58
NtRp2544
(dp2545
g61
(dp2546
g88
g89
ssg70
g2535
sg63
(lp2547
S':'
asbag56
(g77
g58
NtRp2548
(dp2549
g61
(dp2550
sg70
g2535
sg63
(lp2551
g56
(g57
g58
NtRp2552
(dp2553
g61
(dp2554
g69
I3
ssg70
g2548
sg63
(lp2555
g1199
asbasbasbag56
(g72
g58
NtRp2556
(dp2557
g61
(dp2558
sg70
g2363
sg63
(lp2559
g56
(g77
g58
NtRp2560
(dp2561
g61
(dp2562
g81
g82
ssg70
g2556
sg63
(lp2563
S'QUERY_STRING'
p2564
asbag56
(g77
g58
NtRp2565
(dp2566
g61
(dp2567
g88
g89
ssg70
g2556
sg63
(lp2568
S':'
asbag56
(g77
g58
NtRp2569
(dp2570
g61
(dp2571
sg70
g2556
sg63
(lp2572
g56
(g57
g58
NtRp2573
(dp2574
g61
(dp2575
g69
I3
ssg70
g2569
sg63
(lp2576
S''
asbasbasbag56
(g72
g58
NtRp2577
(dp2578
g61
(dp2579
sg70
g2363
sg63
(lp2580
g56
(g77
g58
NtRp2581
(dp2582
g61
(dp2583
g81
g82
ssg70
g2577
sg63
(lp2584
S'REMOTE_ADDR'
p2585
asbag56
(g77
g58
NtRp2586
(dp2587
g61
(dp2588
g88
g89
ssg70
g2577
sg63
(lp2589
S':'
asbag56
(g77
g58
NtRp2590
(dp2591
g61
(dp2592
sg70
g2577
sg63
(lp2593
g56
(g57
g58
NtRp2594
(dp2595
g61
(dp2596
g69
I3
ssg70
g2590
sg63
(lp2597
g189
asbasbasbag56
(g72
g58
NtRp2598
(dp2599
g61
(dp2600
sg70
g2363
sg63
(lp2601
g56
(g77
g58
NtRp2602
(dp2603
g61
(dp2604
g81
g82
ssg70
g2598
sg63
(lp2605
S'REMOTE_PORT'
p2606
asbag56
(g77
g58
NtRp2607
(dp2608
g61
(dp2609
g88
g89
ssg70
g2598
sg63
(lp2610
S':'
asbag56
(g77
g58
NtRp2611
(dp2612
g61
(dp2613
sg70
g2598
sg63
(lp2614
g56
(g57
g58
NtRp2615
(dp2616
g61
(dp2617
g69
I3
ssg70
g2611
sg63
(lp2618
g1263
asbasbasbag56
(g72
g58
NtRp2619
(dp2620
g61
(dp2621
sg70
g2363
sg63
(lp2622
g56
(g77
g58
NtRp2623
(dp2624
g61
(dp2625
g81
g82
ssg70
g2619
sg63
(lp2626
S'REQUEST_METHOD'
p2627
asbag56
(g77
g58
NtRp2628
(dp2629
g61
(dp2630
g88
g89
ssg70
g2619
sg63
(lp2631
S':'
asbag56
(g77
g58
NtRp2632
(dp2633
g61
(dp2634
sg70
g2619
sg63
(lp2635
g56
(g57
g58
NtRp2636
(dp2637
g61
(dp2638
g69
I3
ssg70
g2632
sg63
(lp2639
g1285
asbasbasbag56
(g72
g58
NtRp2640
(dp2641
g61
(dp2642
sg70
g2363
sg63
(lp2643
g56
(g77
g58
NtRp2644
(dp2645
g61
(dp2646
g81
g82
ssg70
g2640
sg63
(lp2647
S'SCRIPT_NAME'
p2648
asbag56
(g77
g58
NtRp2649
(dp2650
g61
(dp2651
g88
g89
ssg70
g2640
sg63
(lp2652
S':'
asbag56
(g77
g58
NtRp2653
(dp2654
g61
(dp2655
sg70
g2640
sg63
(lp2656
g56
(g57
g58
NtRp2657
(dp2658
g61
(dp2659
g69
I3
ssg70
g2653
sg63
(lp2660
S''
asbasbasbag56
(g72
g58
NtRp2661
(dp2662
g61
(dp2663
sg70
g2363
sg63
(lp2664
g56
(g77
g58
NtRp2665
(dp2666
g61
(dp2667
g81
g82
ssg70
g2661
sg63
(lp2668
S'SERVER_NAME'
p2669
asbag56
(g77
g58
NtRp2670
(dp2671
g61
(dp2672
g88
g89
ssg70
g2661
sg63
(lp2673
S':'
asbag56
(g77
g58
NtRp2674
(dp2675
g61
(dp2676
sg70
g2661
sg63
(lp2677
g56
(g57
g58
NtRp2678
(dp2679
g61
(dp2680
g69
I3
ssg70
g2674
sg63
(lp2681
g1328
asbasbasbag56
(g72
g58
NtRp2682
(dp2683
g61
(dp2684
sg70
g2363
sg63
(lp2685
g56
(g77
g58
NtRp2686
(dp2687
g61
(dp2688
g81
g82
ssg70
g2682
sg63
(lp2689
S'SERVER_PORT'
p2690
asbag56
(g77
g58
NtRp2691
(dp2692
g61
(dp2693
g88
g89
ssg70
g2682
sg63
(lp2694
S':'
asbag56
(g77
g58
NtRp2695
(dp2696
g61
(dp2697
sg70
g2682
sg63
(lp2698
g56
(g57
g58
NtRp2699
(dp2700
g61
(dp2701
g69
I3
ssg70
g2695
sg63
(lp2702
g1350
asbasbasbag56
(g72
g58
NtRp2703
(dp2704
g61
(dp2705
sg70
g2363
sg63
(lp2706
g56
(g77
g58
NtRp2707
(dp2708
g61
(dp2709
g81
g82
ssg70
g2703
sg63
(lp2710
S'SERVER_PROTOCOL'
p2711
asbag56
(g77
g58
NtRp2712
(dp2713
g61
(dp2714
g88
g89
ssg70
g2703
sg63
(lp2715
S':'
asbag56
(g77
g58
NtRp2716
(dp2717
g61
(dp2718
sg70
g2703
sg63
(lp2719
g56
(g57
g58
NtRp2720
(dp2721
g61
(dp2722
g69
I3
ssg70
g2716
sg63
(lp2723
g1372
asbasbasbag56
(g72
g58
NtRp2724
(dp2725
g61
(dp2726
sg70
g2363
sg63
(lp2727
g56
(g77
g58
NtRp2728
(dp2729
g61
(dp2730
g81
g82
ssg70
g2724
sg63
(lp2731
S'SERVER_SOFTWARE'
p2732
asbag56
(g77
g58
NtRp2733
(dp2734
g61
(dp2735
g88
g89
ssg70
g2724
sg63
(lp2736
S':'
asbag56
(g77
g58
NtRp2737
(dp2738
g61
(dp2739
sg70
g2724
sg63
(lp2740
g56
(g57
g58
NtRp2741
(dp2742
g61
(dp2743
g69
I3
ssg70
g2737
sg63
(lp2744
g1394
asbasbasbag56
(g72
g58
NtRp2745
(dp2746
g61
(dp2747
sg70
g2363
sg63
(lp2748
g56
(g77
g58
NtRp2749
(dp2750
g61
(dp2751
g81
g82
ssg70
g2745
sg63
(lp2752
S'wsgi.errors'
p2753
asbag56
(g77
g58
NtRp2754
(dp2755
g61
(dp2756
g88
g89
ssg70
g2745
sg63
(lp2757
S':'
asbag56
(g77
g58
NtRp2758
(dp2759
g61
(dp2760
sg70
g2745
sg63
(lp2761
g56
(g57
g58
NtRp2762
(dp2763
g61
(dp2764
g69
I3
ssg70
g2758
sg63
(lp2765
S"<open file '<stderr>', mode 'w' at 0x7fb885d02270>"
p2766
asbasbasbag56
(g72
g58
NtRp2767
(dp2768
g61
(dp2769
sg70
g2363
sg63
(lp2770
g56
(g77
g58
NtRp2771
(dp2772
g61
(dp2773
g81
g82
ssg70
g2767
sg63
(lp2774
S'wsgi.file_wrapper'
p2775
asbag56
(g77
g58
NtRp2776
(dp2777
g61
(dp2778
g88
g89
ssg70
g2767
sg63
(lp2779
S':'
asbag56
(g77
g58
NtRp2780
(dp2781
g61
(dp2782
sg70
g2767
sg63
(lp2783
g56
(g57
g58
NtRp2784
(dp2785
g61
(dp2786
g69
I3
ssg70
g2780
sg63
(lp2787
S'<class wsgiref.util.FileWrapper at 0x14c2390>'
p2788
asbasbasbag56
(g72
g58
NtRp2789
(dp2790
g61
(dp2791
sg70
g2363
sg63
(lp2792
g56
(g77
g58
NtRp2793
(dp2794
g61
(dp2795
g81
g82
ssg70
g2789
sg63
(lp2796
S'wsgi.input'
p2797
asbag56
(g77
g58
NtRp2798
(dp2799
g61
(dp2800
g88
g89
ssg70
g2789
sg63
(lp2801
S':'
asbag56
(g77
g58
NtRp2802
(dp2803
g61
(dp2804
sg70
g2789
sg63
(lp2805
g56
(g57
g58
NtRp2806
(dp2807
g61
(dp2808
g69
I3
ssg70
g2802
sg63
(lp2809
S'<cStringIO.StringO object at 0x35ccc38>'
p2810
asbasbasbag56
(g72
g58
NtRp2811
(dp2812
g61
(dp2813
sg70
g2363
sg63
(lp2814
g56
(g77
g58
NtRp2815
(dp2816
g61
(dp2817
g81
g82
ssg70
g2811
sg63
(lp2818
S'wsgi.multiprocess'
p2819
asbag56
(g77
g58
NtRp2820
(dp2821
g61
(dp2822
g88
g89
ssg70
g2811
sg63
(lp2823
S':'
asbag56
(g77
g58
NtRp2824
(dp2825
g61
(dp2826
sg70
g2811
sg63
(lp2827
g56
(g57
g58
NtRp2828
(dp2829
g61
(dp2830
g69
I3
ssg70
g2824
sg63
(lp2831
g99
asbasbasbag56
(g72
g58
NtRp2832
(dp2833
g61
(dp2834
sg70
g2363
sg63
(lp2835
g56
(g77
g58
NtRp2836
(dp2837
g61
(dp2838
g81
g82
ssg70
g2832
sg63
(lp2839
S'wsgi.multithread'
p2840
asbag56
(g77
g58
NtRp2841
(dp2842
g61
(dp2843
g88
g89
ssg70
g2832
sg63
(lp2844
S':'
asbag56
(g77
g58
NtRp2845
(dp2846
g61
(dp2847
sg70
g2832
sg63
(lp2848
g56
(g57
g58
NtRp2849
(dp2850
g61
(dp2851
g69
I3
ssg70
g2845
sg63
(lp2852
g1634
asbasbasbag56
(g72
g58
NtRp2853
(dp2854
g61
(dp2855
sg70
g2363
sg63
(lp2856
g56
(g77
g58
NtRp2857
(dp2858
g61
(dp2859
g81
g82
ssg70
g2853
sg63
(lp2860
S'wsgi.run_once'
p2861
asbag56
(g77
g58
NtRp2862
(dp2863
g61
(dp2864
g88
g89
ssg70
g2853
sg63
(lp2865
S':'
asbag56
(g77
g58
NtRp2866
(dp2867
g61
(dp2868
sg70
g2853
sg63
(lp2869
g56
(g57
g58
NtRp2870
(dp2871
g61
(dp2872
g69
I3
ssg70
g2866
sg63
(lp2873
g99
asbasbasbag56
(g72
g58
NtRp2874
(dp2875
g61
(dp2876
sg70
g2363
sg63
(lp2877
g56
(g77
g58
NtRp2878
(dp2879
g61
(dp2880
g81
g82
ssg70
g2874
sg63
(lp2881
S'wsgi.url_scheme'
p2882
asbag56
(g77
g58
NtRp2883
(dp2884
g61
(dp2885
g88
g89
ssg70
g2874
sg63
(lp2886
S':'
asbag56
(g77
g58
NtRp2887
(dp2888
g61
(dp2889
sg70
g2874
sg63
(lp2890
g56
(g57
g58
NtRp2891
(dp2892
g61
(dp2893
g69
I3
ssg70
g2887
sg63
(lp2894
g1677
asbasbasbag56
(g72
g58
NtRp2895
(dp2896
g61
(dp2897
sg70
g2363
sg63
(lp2898
g56
(g77
g58
NtRp2899
(dp2900
g61
(dp2901
g81
g82
ssg70
g2895
sg63
(lp2902
S'wsgi.version'
p2903
asbag56
(g77
g58
NtRp2904
(dp2905
g61
(dp2906
g88
g89
ssg70
g2895
sg63
(lp2907
S':'
asbag56
(g77
g58
NtRp2908
(dp2909
g61
(dp2910
sg70
g2895
sg63
(lp2911
g56
(g57
g58
NtRp2912
(dp2913
g61
(dp2914
g69
I3
ssg70
g2908
sg63
(lp2915
S'1'
asbasbasbasbasbasbasbasbasbasbasbasbasbsS'frames'
p2916
(lp2917
(dp2918
S'file'
p2919
S'/opt/cassandra-dev/PROJECTS/Cassandra-Monitor/src/CassandraMonitor/mycassandramanager/myinterface/gluon/restricted.py'
p2920
sS'dump'
p2921
(dp2922
S'environment'
p2923
S"{'A': <class 'gluon.html.A'>, 'Auth': <class 'gluon.tools.Auth'>, 'B': <class 'gluon.html.B'>, 'BEAUTIFY': <class 'gluon.html.BEAUTIFY'>, 'BODY': <class 'gluon.html.BODY'>, 'BR': <class 'gluon.html.BR'>, 'BUTTON': <class 'gluon.html.BUTTON'>, 'CAT': <class 'gluon.html.CAT'>, 'CENTER': <class 'gluon.html.CENTER'>, 'CLEANUP': <class 'gluon.validators.CLEANUP'>, ...}"
p2924
sS'ccode'
p2925
S'<code object <module> at 0x3355eb0, file "/opt/c...ications/cass1/controllers/cass_mgr.py", line 19>'
p2926
ssS'lnum'
p2927
I194
sS'lines'
p2928
(dp2929
I192
S'        else:'
p2930
sI193
S'            ccode = compile2(code,layer)'
p2931
sI194
S'        exec ccode in environment'
p2932
sI195
S'    except HTTP:'
p2933
sI196
S'        raise'
p2934
sI197
S'    except Exception, error:'
p2935
sI198
S'        # XXX Show exception in Wing IDE if running in debugger'
p2936
sI189
S'    try:'
p2937
sI190
S'        if type(code) == types.CodeType:'
p2938
sI191
S'            ccode = code'
p2939
ssS'call'
p2940
S"(code='#!/usr/bin/env python\\n# -*- coding: utf-8 -*-\\n#\\n...response._vars=response._caller(clusteroverview)\\n', environment={'A': <class 'gluon.html.A'>, 'Auth': <class 'gluon.tools.Auth'>, 'B': <class 'gluon.html.B'>, 'BEAUTIFY': <class 'gluon.html.BEAUTIFY'>, 'BODY': <class 'gluon.html.BODY'>, 'BR': <class 'gluon.html.BR'>, 'BUTTON': <class 'gluon.html.BUTTON'>, 'CAT': <class 'gluon.html.CAT'>, 'CENTER': <class 'gluon.html.CENTER'>, 'CLEANUP': <class 'gluon.validators.CLEANUP'>, ...}, layer='/opt/cassandra-dev/PROJECTS/Cassandra-Monitor/sr...erface/applications/cass1/controllers/cass_mgr.py')"
p2941
sS'func'
p2942
S'restricted'
p2943
sa(dp2944
g2919
S'/opt/cassandra-dev/PROJECTS/Cassandra-Monitor/src/CassandraMonitor/mycassandramanager/myinterface/applications/cass1/controllers/cass_mgr.py'
p2945
sg2921
(dp2946
sg2927
I65
sg2928
(dp2947
I54
S''
sI55
S'    return object(G)'
p2948
sI56
S''
sI57
S"if __name__ == '__main__':"
p2949
sI58
S'    data = d.MyData()'
p2950
sI59
S'    myjmx = data.mydict()'
p2951
sI60
S'    d = dict(myjmx)'
p2952
sI61
S'    print d'
p2953
sI62
S''
sI63
S''
ssg2940
S'()'
p2954
sg2942
S'<module>'
p2955
sa(dp2956
g2919
S'/opt/cassandra-dev/PROJECTS/Cassandra-Monitor/src/CassandraMonitor/mycassandramanager/myinterface/gluon/globals.py'
p2957
sg2921
(dp2958
S'self'
p2959
S'undefined'
p2960
sS'f'
S'<function clusteroverview>'
p2961
ssg2927
I149
sg2928
(dp2962
I144
S'        self.meta = Storage()      # used by web2py_ajax.html'
p2963
sI145
S'        self.menu = []             # used by the default view layout'
p2964
sI146
S'        self.files = []            # used by web2py_ajax.html'
p2965
sI147
S'        self.generic_patterns = [] # patterns to allow generic views'
p2966
sI148
S'        self._vars = None'
p2967
sI149
S'        self._caller = lambda f: f()'
p2968
sI150
S'        self._view_environment = None'
p2969
sI151
S'        self._custom_commit = None'
p2970
sI152
S'        self._custom_rollback = None'
p2971
sI153
S''
ssg2940
S'(f=<function clusteroverview>)'
p2972
sg2942
S'<lambda>'
p2973
sa(dp2974
g2919
S'/opt/cassandra-dev/PROJECTS/Cassandra-Monitor/src/CassandraMonitor/mycassandramanager/myinterface/applications/cass1/controllers/cass_mgr.py'
p2975
sg2921
(dp2976
S'builtinobject'
p2977
S"<type 'object'>"
p2978
sS'G'
S'<networkx.classes.graph.Graph object>'
p2979
ssg2927
I55
sg2928
(dp2980
I50
S'    e=(2,3)'
p2981
sI51
S'    G.add_edge(*e)'
p2982
sI52
S'    nx.draw(G)'
p2983
sI53
S'    plt.show()'
p2984
sI54
S''
sI55
S'    return object(G)'
p2985
sI56
S''
sI57
S"if __name__ == '__main__':"
p2986
sI58
S'    data = d.MyData()'
p2987
sI59
S'    myjmx = data.mydict()'
p2988
ssg2940
S'()'
p2989
sg2942
S'clusteroverview'
p2990
sasS'pyver'
p2991
S'Python 2.7.2: /opt/cassandra-dev/PROJECTS/Cassandra-Monitor/python-virtualenv/bin/python'
p2992
sS'session'
p2993
g56
(g57
g58
NtRp2994
(dp2995
g61
(dp2996
sg63
(lp2997
g56
(g65
g58
NtRp2998
(dp2999
g61
(dp3000
g69
I5
ssg70
Nsg63
(lp3001
g56
(g72
g58
NtRp3002
(dp3003
g61
(dp3004
sg70
g2998
sg63
(lp3005
g56
(g77
g58
NtRp3006
(dp3007
g61
(dp3008
g81
g82
ssg70
g3002
sg63
(lp3009
S'counter'
p3010
asbag56
(g77
g58
NtRp3011
(dp3012
g61
(dp3013
g88
g89
ssg70
g3002
sg63
(lp3014
S':'
asbag56
(g77
g58
NtRp3015
(dp3016
g61
(dp3017
sg70
g3002
sg63
(lp3018
g56
(g57
g58
NtRp3019
(dp3020
g61
(dp3021
g69
I5
ssg70
g3015
sg63
(lp3022
S'18'
p3023
asbasbasbasbasbsS'etype'
p3024
S"<type 'exceptions.TypeError'>"
p3025
sS'date'
p3026
S'Thu Dec  8 14:50:08 2011'
p3027
sS'response'
p3028
g56
(g57
g58
NtRp3029
(dp3030
g61
(dp3031
sg63
(lp3032
g56
(g65
g58
NtRp3033
(dp3034
g61
(dp3035
g69
I5
ssg70
Nsg63
(lp3036
g56
(g72
g58
NtRp3037
(dp3038
g61
(dp3039
sg70
g3033
sg63
(lp3040
g56
(g77
g58
NtRp3041
(dp3042
g61
(dp3043
g81
g82
ssg70
g3037
sg63
(lp3044
g154
asbag56
(g77
g58
NtRp3045
(dp3046
g61
(dp3047
g88
g89
ssg70
g3037
sg63
(lp3048
S':'
asbag56
(g77
g58
NtRp3049
(dp3050
g61
(dp3051
sg70
g3037
sg63
(lp3052
g56
(g57
g58
NtRp3053
(dp3054
g61
(dp3055
g69
I5
ssg70
g3049
sg63
(lp3056
S'<cStringIO.StringO object at 0x182e9d0>'
p3057
asbasbasbag56
(g72
g58
NtRp3058
(dp3059
g61
(dp3060
sg70
g3033
sg63
(lp3061
g56
(g77
g58
NtRp3062
(dp3063
g61
(dp3064
g81
g82
ssg70
g3058
sg63
(lp3065
g220
asbag56
(g77
g58
NtRp3066
(dp3067
g61
(dp3068
g88
g89
ssg70
g3058
sg63
(lp3069
S':'
asbag56
(g77
g58
NtRp3070
(dp3071
g61
(dp3072
sg70
g3058
sg63
(lp3073
g56
(g57
g58
NtRp3074
(dp3075
g61
(dp3076
g69
I5
ssg70
g3070
sg63
(lp3077
g56
(g65
g58
NtRp3078
(dp3079
g61
(dp3080
g69
I4
ssg70
Nsg63
(lp3081
g56
(g72
g58
NtRp3082
(dp3083
g61
(dp3084
sg70
g3078
sg63
(lp3085
g56
(g77
g58
NtRp3086
(dp3087
g61
(dp3088
g81
g82
ssg70
g3082
sg63
(lp3089
S'session_id_cass1'
p3090
asbag56
(g77
g58
NtRp3091
(dp3092
g61
(dp3093
g88
g89
ssg70
g3082
sg63
(lp3094
S':'
asbag56
(g77
g58
NtRp3095
(dp3096
g61
(dp3097
sg70
g3082
sg63
(lp3098
g56
(g57
g58
NtRp3099
(dp3100
g61
(dp3101
g69
I4
ssg70
g3095
sg63
(lp3102
g56
(g65
g58
NtRp3103
(dp3104
g61
(dp3105
g69
I3
ssg70
Nsg63
(lp3106
g56
(g72
g58
NtRp3107
(dp3108
g61
(dp3109
sg70
g3103
sg63
(lp3110
g56
(g77
g58
NtRp3111
(dp3112
g61
(dp3113
g81
g82
ssg70
g3107
sg63
(lp3114
g270
asbag56
(g77
g58
NtRp3115
(dp3116
g61
(dp3117
g88
g89
ssg70
g3107
sg63
(lp3118
S':'
asbag56
(g77
g58
NtRp3119
(dp3120
g61
(dp3121
sg70
g3107
sg63
(lp3122
g56
(g57
g58
NtRp3123
(dp3124
g61
(dp3125
g69
I3
ssg70
g3119
sg63
(lp3126
S''
asbasbasbag56
(g72
g58
NtRp3127
(dp3128
g61
(dp3129
sg70
g3103
sg63
(lp3130
g56
(g77
g58
NtRp3131
(dp3132
g61
(dp3133
g81
g82
ssg70
g3127
sg63
(lp3134
g291
asbag56
(g77
g58
NtRp3135
(dp3136
g61
(dp3137
g88
g89
ssg70
g3127
sg63
(lp3138
S':'
asbag56
(g77
g58
NtRp3139
(dp3140
g61
(dp3141
sg70
g3127
sg63
(lp3142
g56
(g57
g58
NtRp3143
(dp3144
g61
(dp3145
g69
I3
ssg70
g3139
sg63
(lp3146
S''
asbasbasbag56
(g72
g58
NtRp3147
(dp3148
g61
(dp3149
sg70
g3103
sg63
(lp3150
g56
(g77
g58
NtRp3151
(dp3152
g61
(dp3153
g81
g82
ssg70
g3147
sg63
(lp3154
g312
asbag56
(g77
g58
NtRp3155
(dp3156
g61
(dp3157
g88
g89
ssg70
g3147
sg63
(lp3158
S':'
asbag56
(g77
g58
NtRp3159
(dp3160
g61
(dp3161
sg70
g3147
sg63
(lp3162
g56
(g57
g58
NtRp3163
(dp3164
g61
(dp3165
g69
I3
ssg70
g3159
sg63
(lp3166
S''
asbasbasbag56
(g72
g58
NtRp3167
(dp3168
g61
(dp3169
sg70
g3103
sg63
(lp3170
g56
(g77
g58
NtRp3171
(dp3172
g61
(dp3173
g81
g82
ssg70
g3167
sg63
(lp3174
g333
asbag56
(g77
g58
NtRp3175
(dp3176
g61
(dp3177
g88
g89
ssg70
g3167
sg63
(lp3178
S':'
asbag56
(g77
g58
NtRp3179
(dp3180
g61
(dp3181
sg70
g3167
sg63
(lp3182
g56
(g57
g58
NtRp3183
(dp3184
g61
(dp3185
g69
I3
ssg70
g3179
sg63
(lp3186
S''
asbasbasbag56
(g72
g58
NtRp3187
(dp3188
g61
(dp3189
sg70
g3103
sg63
(lp3190
g56
(g77
g58
NtRp3191
(dp3192
g61
(dp3193
g81
g82
ssg70
g3187
sg63
(lp3194
g354
asbag56
(g77
g58
NtRp3195
(dp3196
g61
(dp3197
g88
g89
ssg70
g3187
sg63
(lp3198
S':'
asbag56
(g77
g58
NtRp3199
(dp3200
g61
(dp3201
sg70
g3187
sg63
(lp3202
g56
(g57
g58
NtRp3203
(dp3204
g61
(dp3205
g69
I3
ssg70
g3199
sg63
(lp3206
S''
asbasbasbag56
(g72
g58
NtRp3207
(dp3208
g61
(dp3209
sg70
g3103
sg63
(lp3210
g56
(g77
g58
NtRp3211
(dp3212
g61
(dp3213
g81
g82
ssg70
g3207
sg63
(lp3214
g375
asbag56
(g77
g58
NtRp3215
(dp3216
g61
(dp3217
g88
g89
ssg70
g3207
sg63
(lp3218
S':'
asbag56
(g77
g58
NtRp3219
(dp3220
g61
(dp3221
sg70
g3207
sg63
(lp3222
g56
(g57
g58
NtRp3223
(dp3224
g61
(dp3225
g69
I3
ssg70
g3219
sg63
(lp3226
S'/'
asbasbasbag56
(g72
g58
NtRp3227
(dp3228
g61
(dp3229
sg70
g3103
sg63
(lp3230
g56
(g77
g58
NtRp3231
(dp3232
g61
(dp3233
g81
g82
ssg70
g3227
sg63
(lp3234
g396
asbag56
(g77
g58
NtRp3235
(dp3236
g61
(dp3237
g88
g89
ssg70
g3227
sg63
(lp3238
S':'
asbag56
(g77
g58
NtRp3239
(dp3240
g61
(dp3241
sg70
g3227
sg63
(lp3242
g56
(g57
g58
NtRp3243
(dp3244
g61
(dp3245
g69
I3
ssg70
g3239
sg63
(lp3246
S''
asbasbasbag56
(g72
g58
NtRp3247
(dp3248
g61
(dp3249
sg70
g3103
sg63
(lp3250
g56
(g77
g58
NtRp3251
(dp3252
g61
(dp3253
g81
g82
ssg70
g3247
sg63
(lp3254
g417
asbag56
(g77
g58
NtRp3255
(dp3256
g61
(dp3257
g88
g89
ssg70
g3247
sg63
(lp3258
S':'
asbag56
(g77
g58
NtRp3259
(dp3260
g61
(dp3261
sg70
g3247
sg63
(lp3262
g56
(g57
g58
NtRp3263
(dp3264
g61
(dp3265
g69
I3
ssg70
g3259
sg63
(lp3266
S''
asbasbasbasbasbasbasbasbasbasbasbag56
(g72
g58
NtRp3267
(dp3268
g61
(dp3269
sg70
g3033
sg63
(lp3270
g56
(g77
g58
NtRp3271
(dp3272
g61
(dp3273
g81
g82
ssg70
g3267
sg63
(lp3274
S'files'
p3275
asbag56
(g77
g58
NtRp3276
(dp3277
g61
(dp3278
g88
g89
ssg70
g3267
sg63
(lp3279
S':'
asbag56
(g77
g58
NtRp3280
(dp3281
g61
(dp3282
sg70
g3267
sg63
(lp3283
g56
(g57
g58
NtRp3284
(dp3285
g61
(dp3286
g69
I5
ssg70
g3280
sg63
(lp3287
g56
(g65
g58
NtRp3288
(dp3289
g61
(dp3290
g69
I4
ssg70
Nsg63
(lp3291
g56
(g72
g58
NtRp3292
(dp3293
g61
(dp3294
sg70
g3288
sg63
(lp3295
g56
(g77
g58
NtRp3296
(dp3297
g61
(dp3298
sg70
g3292
sg63
(lp3299
g56
(g57
g58
NtRp3300
(dp3301
g61
(dp3302
g69
I4
ssg70
g3296
sg63
(lp3303
S'/cass1/static/plugin_sortable/jquery.ui.core.js'
p3304
asbasbasbag56
(g72
g58
NtRp3305
(dp3306
g61
(dp3307
sg70
g3288
sg63
(lp3308
g56
(g77
g58
NtRp3309
(dp3310
g61
(dp3311
sg70
g3305
sg63
(lp3312
g56
(g57
g58
NtRp3313
(dp3314
g61
(dp3315
g69
I4
ssg70
g3309
sg63
(lp3316
S'/cass1/static/plugin_sortable/jquery.ui.sortable.js'
p3317
asbasbasbasbasbasbasbag56
(g72
g58
NtRp3318
(dp3319
g61
(dp3320
sg70
g3033
sg63
(lp3321
g56
(g77
g58
NtRp3322
(dp3323
g61
(dp3324
g81
g82
ssg70
g3318
sg63
(lp3325
S'flash'
p3326
asbag56
(g77
g58
NtRp3327
(dp3328
g61
(dp3329
g88
g89
ssg70
g3318
sg63
(lp3330
S':'
asbag56
(g77
g58
NtRp3331
(dp3332
g61
(dp3333
sg70
g3318
sg63
(lp3334
g56
(g57
g58
NtRp3335
(dp3336
g61
(dp3337
g69
I5
ssg70
g3331
sg63
(lp3338
S''
asbasbasbag56
(g72
g58
NtRp3339
(dp3340
g61
(dp3341
sg70
g3033
sg63
(lp3342
g56
(g77
g58
NtRp3343
(dp3344
g61
(dp3345
g81
g82
ssg70
g3339
sg63
(lp3346
S'generic_patterns'
p3347
asbag56
(g77
g58
NtRp3348
(dp3349
g61
(dp3350
g88
g89
ssg70
g3339
sg63
(lp3351
S':'
asbag56
(g77
g58
NtRp3352
(dp3353
g61
(dp3354
sg70
g3339
sg63
(lp3355
g56
(g57
g58
NtRp3356
(dp3357
g61
(dp3358
g69
I5
ssg70
g3352
sg63
(lp3359
g56
(g65
g58
NtRp3360
(dp3361
g61
(dp3362
g69
I4
ssg70
Nsg63
(lp3363
g56
(g72
g58
NtRp3364
(dp3365
g61
(dp3366
sg70
g3360
sg63
(lp3367
g56
(g77
g58
NtRp3368
(dp3369
g61
(dp3370
sg70
g3364
sg63
(lp3371
g56
(g57
g58
NtRp3372
(dp3373
g61
(dp3374
g69
I4
ssg70
g3368
sg63
(lp3375
S'*'
asbasbasbasbasbasbasbag56
(g72
g58
NtRp3376
(dp3377
g61
(dp3378
sg70
g3033
sg63
(lp3379
g56
(g77
g58
NtRp3380
(dp3381
g61
(dp3382
g81
g82
ssg70
g3376
sg63
(lp3383
S'headers'
p3384
asbag56
(g77
g58
NtRp3385
(dp3386
g61
(dp3387
g88
g89
ssg70
g3376
sg63
(lp3388
S':'
asbag56
(g77
g58
NtRp3389
(dp3390
g61
(dp3391
sg70
g3376
sg63
(lp3392
g56
(g57
g58
NtRp3393
(dp3394
g61
(dp3395
g69
I5
ssg70
g3389
sg63
(lp3396
g56
(g65
g58
NtRp3397
(dp3398
g61
(dp3399
g69
I4
ssg70
Nsg63
(lp3400
g56
(g72
g58
NtRp3401
(dp3402
g61
(dp3403
sg70
g3397
sg63
(lp3404
g56
(g77
g58
NtRp3405
(dp3406
g61
(dp3407
g81
g82
ssg70
g3401
sg63
(lp3408
S'Cache-Control'
p3409
asbag56
(g77
g58
NtRp3410
(dp3411
g61
(dp3412
g88
g89
ssg70
g3401
sg63
(lp3413
S':'
asbag56
(g77
g58
NtRp3414
(dp3415
g61
(dp3416
sg70
g3401
sg63
(lp3417
g56
(g57
g58
NtRp3418
(dp3419
g61
(dp3420
g69
I4
ssg70
g3414
sg63
(lp3421
S'no-store, no-cache, must-revalidate, post-check=0, pre-check=0'
p3422
asbasbasbag56
(g72
g58
NtRp3423
(dp3424
g61
(dp3425
sg70
g3397
sg63
(lp3426
g56
(g77
g58
NtRp3427
(dp3428
g61
(dp3429
g81
g82
ssg70
g3423
sg63
(lp3430
S'Content-Type'
p3431
asbag56
(g77
g58
NtRp3432
(dp3433
g61
(dp3434
g88
g89
ssg70
g3423
sg63
(lp3435
S':'
asbag56
(g77
g58
NtRp3436
(dp3437
g61
(dp3438
sg70
g3423
sg63
(lp3439
g56
(g57
g58
NtRp3440
(dp3441
g61
(dp3442
g69
I4
ssg70
g3436
sg63
(lp3443
S'text/html; charset=utf-8'
p3444
asbasbasbag56
(g72
g58
NtRp3445
(dp3446
g61
(dp3447
sg70
g3397
sg63
(lp3448
g56
(g77
g58
NtRp3449
(dp3450
g61
(dp3451
g81
g82
ssg70
g3445
sg63
(lp3452
S'Expires'
p3453
asbag56
(g77
g58
NtRp3454
(dp3455
g61
(dp3456
g88
g89
ssg70
g3445
sg63
(lp3457
S':'
asbag56
(g77
g58
NtRp3458
(dp3459
g61
(dp3460
sg70
g3445
sg63
(lp3461
g56
(g57
g58
NtRp3462
(dp3463
g61
(dp3464
g69
I4
ssg70
g3458
sg63
(lp3465
S'Thu, 08 Dec 2011 14:50:08 GMT'
p3466
asbasbasbag56
(g72
g58
NtRp3467
(dp3468
g61
(dp3469
sg70
g3397
sg63
(lp3470
g56
(g77
g58
NtRp3471
(dp3472
g61
(dp3473
g81
g82
ssg70
g3467
sg63
(lp3474
S'Pragma'
p3475
asbag56
(g77
g58
NtRp3476
(dp3477
g61
(dp3478
g88
g89
ssg70
g3467
sg63
(lp3479
S':'
asbag56
(g77
g58
NtRp3480
(dp3481
g61
(dp3482
sg70
g3467
sg63
(lp3483
g56
(g57
g58
NtRp3484
(dp3485
g61
(dp3486
g69
I4
ssg70
g3480
sg63
(lp3487
S'no-cache'
p3488
asbasbasbag56
(g72
g58
NtRp3489
(dp3490
g61
(dp3491
sg70
g3397
sg63
(lp3492
g56
(g77
g58
NtRp3493
(dp3494
g61
(dp3495
g81
g82
ssg70
g3489
sg63
(lp3496
S'X-Powered-By'
p3497
asbag56
(g77
g58
NtRp3498
(dp3499
g61
(dp3500
g88
g89
ssg70
g3489
sg63
(lp3501
S':'
asbag56
(g77
g58
NtRp3502
(dp3503
g61
(dp3504
sg70
g3489
sg63
(lp3505
g56
(g57
g58
NtRp3506
(dp3507
g61
(dp3508
g69
I4
ssg70
g3502
sg63
(lp3509
S'web2py'
p3510
asbasbasbasbasbasbasbag56
(g72
g58
NtRp3511
(dp3512
g61
(dp3513
sg70
g3033
sg63
(lp3514
g56
(g77
g58
NtRp3515
(dp3516
g61
(dp3517
g81
g82
ssg70
g3511
sg63
(lp3518
S'menu'
p3519
asbag56
(g77
g58
NtRp3520
(dp3521
g61
(dp3522
g88
g89
ssg70
g3511
sg63
(lp3523
S':'
asbag56
(g77
g58
NtRp3524
(dp3525
g61
(dp3526
sg70
g3511
sg63
(lp3527
g56
(g57
g58
NtRp3528
(dp3529
g61
(dp3530
g69
I5
ssg70
g3524
sg63
(lp3531
g56
(g65
g58
NtRp3532
(dp3533
g61
(dp3534
g69
I4
ssg70
Nsg63
(lp3535
g56
(g72
g58
NtRp3536
(dp3537
g61
(dp3538
sg70
g3532
sg63
(lp3539
g56
(g77
g58
NtRp3540
(dp3541
g61
(dp3542
sg70
g3536
sg63
(lp3543
g56
(g57
g58
NtRp3544
(dp3545
g61
(dp3546
g69
I4
ssg70
g3540
sg63
(lp3547
g56
(g65
g58
NtRp3548
(dp3549
g61
(dp3550
g69
I3
ssg70
Nsg63
(lp3551
g56
(g72
g58
NtRp3552
(dp3553
g61
(dp3554
sg70
g3548
sg63
(lp3555
g56
(g77
g58
NtRp3556
(dp3557
g61
(dp3558
sg70
g3552
sg63
(lp3559
g56
(g57
g58
NtRp3560
(dp3561
g61
(dp3562
g69
I3
ssg70
g3556
sg63
(lp3563
cgluon.languages
lazyT_unpickle
p3564
(S's\x08\x00\x00\x00Cass Mgr'
tRp3565
asbasbasbag56
(g72
g58
NtRp3566
(dp3567
g61
(dp3568
sg70
g3548
sg63
(lp3569
g56
(g77
g58
NtRp3570
(dp3571
g61
(dp3572
sg70
g3566
sg63
(lp3573
g56
(g57
g58
NtRp3574
(dp3575
g61
(dp3576
g69
I3
ssg70
g3570
sg63
(lp3577
g99
asbasbasbag56
(g72
g58
NtRp3578
(dp3579
g61
(dp3580
sg70
g3548
sg63
(lp3581
g56
(g77
g58
NtRp3582
(dp3583
g61
(dp3584
sg70
g3578
sg63
(lp3585
g56
(g57
g58
NtRp3586
(dp3587
g61
(dp3588
g69
I3
ssg70
g3582
sg63
(lp3589
S'/cass1/cass_mgr/index'
p3590
asbasbasbag56
(g72
g58
NtRp3591
(dp3592
g61
(dp3593
sg70
g3548
sg63
(lp3594
g56
(g77
g58
NtRp3595
(dp3596
g61
(dp3597
sg70
g3591
sg63
(lp3598
g56
(g57
g58
NtRp3599
(dp3600
g61
(dp3601
g69
I3
ssg70
g3595
sg63
(lp3602
g56
(g65
g58
NtRp3603
(dp3604
g61
(dp3605
g69
I2
ssg70
Nsg63
(lp3606
sbasbasbasbasbasbasbasbag56
(g72
g58
NtRp3607
(dp3608
g61
(dp3609
sg70
g3532
sg63
(lp3610
g56
(g77
g58
NtRp3611
(dp3612
g61
(dp3613
sg70
g3607
sg63
(lp3614
g56
(g57
g58
NtRp3615
(dp3616
g61
(dp3617
g69
I4
ssg70
g3611
sg63
(lp3618
g56
(g65
g58
NtRp3619
(dp3620
g61
(dp3621
g69
I3
ssg70
Nsg63
(lp3622
g56
(g72
g58
NtRp3623
(dp3624
g61
(dp3625
sg70
g3619
sg63
(lp3626
g56
(g77
g58
NtRp3627
(dp3628
g61
(dp3629
sg70
g3623
sg63
(lp3630
g56
(g57
g58
NtRp3631
(dp3632
g61
(dp3633
g69
I3
ssg70
g3627
sg63
(lp3634
g3564
(S's\t\x00\x00\x00Cass Perf'
tRp3635
asbasbasbag56
(g72
g58
NtRp3636
(dp3637
g61
(dp3638
sg70
g3619
sg63
(lp3639
g56
(g77
g58
NtRp3640
(dp3641
g61
(dp3642
sg70
g3636
sg63
(lp3643
g56
(g57
g58
NtRp3644
(dp3645
g61
(dp3646
g69
I3
ssg70
g3640
sg63
(lp3647
g99
asbasbasbag56
(g72
g58
NtRp3648
(dp3649
g61
(dp3650
sg70
g3619
sg63
(lp3651
g56
(g77
g58
NtRp3652
(dp3653
g61
(dp3654
sg70
g3648
sg63
(lp3655
g56
(g57
g58
NtRp3656
(dp3657
g61
(dp3658
g69
I3
ssg70
g3652
sg63
(lp3659
S'/cass1/cass_perf/index'
p3660
asbasbasbag56
(g72
g58
NtRp3661
(dp3662
g61
(dp3663
sg70
g3619
sg63
(lp3664
g56
(g77
g58
NtRp3665
(dp3666
g61
(dp3667
sg70
g3661
sg63
(lp3668
g56
(g57
g58
NtRp3669
(dp3670
g61
(dp3671
g69
I3
ssg70
g3665
sg63
(lp3672
g56
(g65
g58
NtRp3673
(dp3674
g61
(dp3675
g69
I2
ssg70
Nsg63
(lp3676
sbasbasbasbasbasbasbasbag56
(g72
g58
NtRp3677
(dp3678
g61
(dp3679
sg70
g3532
sg63
(lp3680
g56
(g77
g58
NtRp3681
(dp3682
g61
(dp3683
sg70
g3677
sg63
(lp3684
g56
(g57
g58
NtRp3685
(dp3686
g61
(dp3687
g69
I4
ssg70
g3681
sg63
(lp3688
g56
(g65
g58
NtRp3689
(dp3690
g61
(dp3691
g69
I3
ssg70
Nsg63
(lp3692
g56
(g72
g58
NtRp3693
(dp3694
g61
(dp3695
sg70
g3689
sg63
(lp3696
g56
(g77
g58
NtRp3697
(dp3698
g61
(dp3699
sg70
g3693
sg63
(lp3700
g56
(g57
g58
NtRp3701
(dp3702
g61
(dp3703
g69
I3
ssg70
g3697
sg63
(lp3704
g3564
(S's\t\x00\x00\x00Cass Stat'
tRp3705
asbasbasbag56
(g72
g58
NtRp3706
(dp3707
g61
(dp3708
sg70
g3689
sg63
(lp3709
g56
(g77
g58
NtRp3710
(dp3711
g61
(dp3712
sg70
g3706
sg63
(lp3713
g56
(g57
g58
NtRp3714
(dp3715
g61
(dp3716
g69
I3
ssg70
g3710
sg63
(lp3717
g99
asbasbasbag56
(g72
g58
NtRp3718
(dp3719
g61
(dp3720
sg70
g3689
sg63
(lp3721
g56
(g77
g58
NtRp3722
(dp3723
g61
(dp3724
sg70
g3718
sg63
(lp3725
g56
(g57
g58
NtRp3726
(dp3727
g61
(dp3728
g69
I3
ssg70
g3722
sg63
(lp3729
S'/cass1/cass_internals/index'
p3730
asbasbasbag56
(g72
g58
NtRp3731
(dp3732
g61
(dp3733
sg70
g3689
sg63
(lp3734
g56
(g77
g58
NtRp3735
(dp3736
g61
(dp3737
sg70
g3731
sg63
(lp3738
g56
(g57
g58
NtRp3739
(dp3740
g61
(dp3741
g69
I3
ssg70
g3735
sg63
(lp3742
g56
(g65
g58
NtRp3743
(dp3744
g61
(dp3745
g69
I2
ssg70
Nsg63
(lp3746
sbasbasbasbasbasbasbasbag56
(g72
g58
NtRp3747
(dp3748
g61
(dp3749
sg70
g3532
sg63
(lp3750
g56
(g77
g58
NtRp3751
(dp3752
g61
(dp3753
sg70
g3747
sg63
(lp3754
g56
(g57
g58
NtRp3755
(dp3756
g61
(dp3757
g69
I4
ssg70
g3751
sg63
(lp3758
g56
(g65
g58
NtRp3759
(dp3760
g61
(dp3761
g69
I3
ssg70
Nsg63
(lp3762
g56
(g72
g58
NtRp3763
(dp3764
g61
(dp3765
sg70
g3759
sg63
(lp3766
g56
(g77
g58
NtRp3767
(dp3768
g61
(dp3769
sg70
g3763
sg63
(lp3770
g56
(g57
g58
NtRp3771
(dp3772
g61
(dp3773
g69
I3
ssg70
g3767
sg63
(lp3774
g3564
(S's\t\x00\x00\x00MySQL Mgr'
tRp3775
asbasbasbag56
(g72
g58
NtRp3776
(dp3777
g61
(dp3778
sg70
g3759
sg63
(lp3779
g56
(g77
g58
NtRp3780
(dp3781
g61
(dp3782
sg70
g3776
sg63
(lp3783
g56
(g57
g58
NtRp3784
(dp3785
g61
(dp3786
g69
I3
ssg70
g3780
sg63
(lp3787
g99
asbasbasbag56
(g72
g58
NtRp3788
(dp3789
g61
(dp3790
sg70
g3759
sg63
(lp3791
g56
(g77
g58
NtRp3792
(dp3793
g61
(dp3794
sg70
g3788
sg63
(lp3795
g56
(g57
g58
NtRp3796
(dp3797
g61
(dp3798
g69
I3
ssg70
g3792
sg63
(lp3799
S'/cass1/mysql_mgr/index'
p3800
asbasbasbag56
(g72
g58
NtRp3801
(dp3802
g61
(dp3803
sg70
g3759
sg63
(lp3804
g56
(g77
g58
NtRp3805
(dp3806
g61
(dp3807
sg70
g3801
sg63
(lp3808
g56
(g57
g58
NtRp3809
(dp3810
g61
(dp3811
g69
I3
ssg70
g3805
sg63
(lp3812
g56
(g65
g58
NtRp3813
(dp3814
g61
(dp3815
g69
I2
ssg70
Nsg63
(lp3816
sbasbasbasbasbasbasbasbag56
(g72
g58
NtRp3817
(dp3818
g61
(dp3819
sg70
g3532
sg63
(lp3820
g56
(g77
g58
NtRp3821
(dp3822
g61
(dp3823
sg70
g3817
sg63
(lp3824
g56
(g57
g58
NtRp3825
(dp3826
g61
(dp3827
g69
I4
ssg70
g3821
sg63
(lp3828
g56
(g65
g58
NtRp3829
(dp3830
g61
(dp3831
g69
I3
ssg70
Nsg63
(lp3832
g56
(g72
g58
NtRp3833
(dp3834
g61
(dp3835
sg70
g3829
sg63
(lp3836
g56
(g77
g58
NtRp3837
(dp3838
g61
(dp3839
sg70
g3833
sg63
(lp3840
g56
(g57
g58
NtRp3841
(dp3842
g61
(dp3843
g69
I3
ssg70
g3837
sg63
(lp3844
g3564
(S's\t\x00\x00\x00MySQL Int'
tRp3845
asbasbasbag56
(g72
g58
NtRp3846
(dp3847
g61
(dp3848
sg70
g3829
sg63
(lp3849
g56
(g77
g58
NtRp3850
(dp3851
g61
(dp3852
sg70
g3846
sg63
(lp3853
g56
(g57
g58
NtRp3854
(dp3855
g61
(dp3856
g69
I3
ssg70
g3850
sg63
(lp3857
g99
asbasbasbag56
(g72
g58
NtRp3858
(dp3859
g61
(dp3860
sg70
g3829
sg63
(lp3861
g56
(g77
g58
NtRp3862
(dp3863
g61
(dp3864
sg70
g3858
sg63
(lp3865
g56
(g57
g58
NtRp3866
(dp3867
g61
(dp3868
g69
I3
ssg70
g3862
sg63
(lp3869
S'/cass1/mysql_perf/index'
p3870
asbasbasbag56
(g72
g58
NtRp3871
(dp3872
g61
(dp3873
sg70
g3829
sg63
(lp3874
g56
(g77
g58
NtRp3875
(dp3876
g61
(dp3877
sg70
g3871
sg63
(lp3878
g56
(g57
g58
NtRp3879
(dp3880
g61
(dp3881
g69
I3
ssg70
g3875
sg63
(lp3882
g56
(g65
g58
NtRp3883
(dp3884
g61
(dp3885
g69
I2
ssg70
Nsg63
(lp3886
sbasbasbasbasbasbasbasbag56
(g72
g58
NtRp3887
(dp3888
g61
(dp3889
sg70
g3532
sg63
(lp3890
g56
(g77
g58
NtRp3891
(dp3892
g61
(dp3893
sg70
g3887
sg63
(lp3894
g56
(g57
g58
NtRp3895
(dp3896
g61
(dp3897
g69
I4
ssg70
g3891
sg63
(lp3898
g56
(g65
g58
NtRp3899
(dp3900
g61
(dp3901
g69
I3
ssg70
Nsg63
(lp3902
g56
(g72
g58
NtRp3903
(dp3904
g61
(dp3905
sg70
g3899
sg63
(lp3906
g56
(g77
g58
NtRp3907
(dp3908
g61
(dp3909
sg70
g3903
sg63
(lp3910
g56
(g57
g58
NtRp3911
(dp3912
g61
(dp3913
g69
I3
ssg70
g3907
sg63
(lp3914
g3564
(S't\x06\x00\x00\x00Hadoop'
tRp3915
asbasbasbag56
(g72
g58
NtRp3916
(dp3917
g61
(dp3918
sg70
g3899
sg63
(lp3919
g56
(g77
g58
NtRp3920
(dp3921
g61
(dp3922
sg70
g3916
sg63
(lp3923
g56
(g57
g58
NtRp3924
(dp3925
g61
(dp3926
g69
I3
ssg70
g3920
sg63
(lp3927
g99
asbasbasbag56
(g72
g58
NtRp3928
(dp3929
g61
(dp3930
sg70
g3899
sg63
(lp3931
g56
(g77
g58
NtRp3932
(dp3933
g61
(dp3934
sg70
g3928
sg63
(lp3935
g56
(g57
g58
NtRp3936
(dp3937
g61
(dp3938
g69
I3
ssg70
g3932
sg63
(lp3939
S'/cass1/hadoop/index'
p3940
asbasbasbag56
(g72
g58
NtRp3941
(dp3942
g61
(dp3943
sg70
g3899
sg63
(lp3944
g56
(g77
g58
NtRp3945
(dp3946
g61
(dp3947
sg70
g3941
sg63
(lp3948
g56
(g57
g58
NtRp3949
(dp3950
g61
(dp3951
g69
I3
ssg70
g3945
sg63
(lp3952
g56
(g65
g58
NtRp3953
(dp3954
g61
(dp3955
g69
I2
ssg70
Nsg63
(lp3956
sbasbasbasbasbasbasbasbag56
(g72
g58
NtRp3957
(dp3958
g61
(dp3959
sg70
g3532
sg63
(lp3960
g56
(g77
g58
NtRp3961
(dp3962
g61
(dp3963
sg70
g3957
sg63
(lp3964
g56
(g57
g58
NtRp3965
(dp3966
g61
(dp3967
g69
I4
ssg70
g3961
sg63
(lp3968
g56
(g65
g58
NtRp3969
(dp3970
g61
(dp3971
g69
I3
ssg70
Nsg63
(lp3972
g56
(g72
g58
NtRp3973
(dp3974
g61
(dp3975
sg70
g3969
sg63
(lp3976
g56
(g77
g58
NtRp3977
(dp3978
g61
(dp3979
sg70
g3973
sg63
(lp3980
g56
(g57
g58
NtRp3981
(dp3982
g61
(dp3983
g69
I3
ssg70
g3977
sg63
(lp3984
g3564
(S't\x05\x00\x00\x00STORM'
tRp3985
asbasbasbag56
(g72
g58
NtRp3986
(dp3987
g61
(dp3988
sg70
g3969
sg63
(lp3989
g56
(g77
g58
NtRp3990
(dp3991
g61
(dp3992
sg70
g3986
sg63
(lp3993
g56
(g57
g58
NtRp3994
(dp3995
g61
(dp3996
g69
I3
ssg70
g3990
sg63
(lp3997
g99
asbasbasbag56
(g72
g58
NtRp3998
(dp3999
g61
(dp4000
sg70
g3969
sg63
(lp4001
g56
(g77
g58
NtRp4002
(dp4003
g61
(dp4004
sg70
g3998
sg63
(lp4005
g56
(g57
g58
NtRp4006
(dp4007
g61
(dp4008
g69
I3
ssg70
g4002
sg63
(lp4009
S'/cass1/storm/index'
p4010
asbasbasbag56
(g72
g58
NtRp4011
(dp4012
g61
(dp4013
sg70
g3969
sg63
(lp4014
g56
(g77
g58
NtRp4015
(dp4016
g61
(dp4017
sg70
g4011
sg63
(lp4018
g56
(g57
g58
NtRp4019
(dp4020
g61
(dp4021
g69
I3
ssg70
g4015
sg63
(lp4022
g56
(g65
g58
NtRp4023
(dp4024
g61
(dp4025
g69
I2
ssg70
Nsg63
(lp4026
sbasbasbasbasbasbasbasbasbasbasbasbag56
(g72
g58
NtRp4027
(dp4028
g61
(dp4029
sg70
g3033
sg63
(lp4030
g56
(g77
g58
NtRp4031
(dp4032
g61
(dp4033
g81
g82
ssg70
g4027
sg63
(lp4034
S'meta'
p4035
asbag56
(g77
g58
NtRp4036
(dp4037
g61
(dp4038
g88
g89
ssg70
g4027
sg63
(lp4039
S':'
asbag56
(g77
g58
NtRp4040
(dp4041
g61
(dp4042
sg70
g4027
sg63
(lp4043
g56
(g57
g58
NtRp4044
(dp4045
g61
(dp4046
g69
I5
ssg70
g4040
sg63
(lp4047
g56
(g65
g58
NtRp4048
(dp4049
g61
(dp4050
g69
I4
ssg70
Nsg63
(lp4051
g56
(g72
g58
NtRp4052
(dp4053
g61
(dp4054
sg70
g4048
sg63
(lp4055
g56
(g77
g58
NtRp4056
(dp4057
g61
(dp4058
g81
g82
ssg70
g4052
sg63
(lp4059
S'author'
p4060
asbag56
(g77
g58
NtRp4061
(dp4062
g61
(dp4063
g88
g89
ssg70
g4052
sg63
(lp4064
S':'
asbag56
(g77
g58
NtRp4065
(dp4066
g61
(dp4067
sg70
g4052
sg63
(lp4068
g56
(g57
g58
NtRp4069
(dp4070
g61
(dp4071
g69
I4
ssg70
g4065
sg63
(lp4072
S'chris <chris@cheynes.org>'
p4073
asbasbasbag56
(g72
g58
NtRp4074
(dp4075
g61
(dp4076
sg70
g4048
sg63
(lp4077
g56
(g77
g58
NtRp4078
(dp4079
g61
(dp4080
g81
g82
ssg70
g4074
sg63
(lp4081
S'description'
p4082
asbag56
(g77
g58
NtRp4083
(dp4084
g61
(dp4085
g88
g89
ssg70
g4074
sg63
(lp4086
S':'
asbag56
(g77
g58
NtRp4087
(dp4088
g61
(dp4089
sg70
g4074
sg63
(lp4090
g56
(g57
g58
NtRp4091
(dp4092
g61
(dp4093
g69
I4
ssg70
g4087
sg63
(lp4094
S'Test application 1'
p4095
asbasbasbag56
(g72
g58
NtRp4096
(dp4097
g61
(dp4098
sg70
g4048
sg63
(lp4099
g56
(g77
g58
NtRp4100
(dp4101
g61
(dp4102
g81
g82
ssg70
g4096
sg63
(lp4103
S'keywords'
p4104
asbag56
(g77
g58
NtRp4105
(dp4106
g61
(dp4107
g88
g89
ssg70
g4096
sg63
(lp4108
S':'
asbag56
(g77
g58
NtRp4109
(dp4110
g61
(dp4111
sg70
g4096
sg63
(lp4112
g56
(g57
g58
NtRp4113
(dp4114
g61
(dp4115
g69
I4
ssg70
g4109
sg63
(lp4116
S'cassandra,bigdata,nosql'
p4117
asbasbasbasbasbasbasbag56
(g72
g58
NtRp4118
(dp4119
g61
(dp4120
sg70
g3033
sg63
(lp4121
g56
(g77
g58
NtRp4122
(dp4123
g61
(dp4124
g81
g82
ssg70
g4118
sg63
(lp4125
S'postprocessing'
p4126
asbag56
(g77
g58
NtRp4127
(dp4128
g61
(dp4129
g88
g89
ssg70
g4118
sg63
(lp4130
S':'
asbag56
(g77
g58
NtRp4131
(dp4132
g61
(dp4133
sg70
g4118
sg63
(lp4134
g56
(g57
g58
NtRp4135
(dp4136
g61
(dp4137
g69
I5
ssg70
g4131
sg63
(lp4138
g56
(g65
g58
NtRp4139
(dp4140
g61
(dp4141
g69
I4
ssg70
Nsg63
(lp4142
sbasbasbasbag56
(g72
g58
NtRp4143
(dp4144
g61
(dp4145
sg70
g3033
sg63
(lp4146
g56
(g77
g58
NtRp4147
(dp4148
g61
(dp4149
g81
g82
ssg70
g4143
sg63
(lp4150
S'session_file'
p4151
asbag56
(g77
g58
NtRp4152
(dp4153
g61
(dp4154
g88
g89
ssg70
g4143
sg63
(lp4155
S':'
asbag56
(g77
g58
NtRp4156
(dp4157
g61
(dp4158
sg70
g4143
sg63
(lp4159
g56
(g57
g58
NtRp4160
(dp4161
g61
(dp4162
g69
I5
ssg70
g4156
sg63
(lp4163
S"<open file '/opt/cassandra-dev/PROJECTS/Cassandra-Monitor/src/CassandraMonitor/mycassandramanager/myinterface/applications/cass1/sessions/127.0.0.1-5bed0d91-125b-469b-bd52-fa11514160e4', mode 'rb+' at 0x2221390>"
p4164
asbasbasbag56
(g72
g58
NtRp4165
(dp4166
g61
(dp4167
sg70
g3033
sg63
(lp4168
g56
(g77
g58
NtRp4169
(dp4170
g61
(dp4171
g81
g82
ssg70
g4165
sg63
(lp4172
S'session_filename'
p4173
asbag56
(g77
g58
NtRp4174
(dp4175
g61
(dp4176
g88
g89
ssg70
g4165
sg63
(lp4177
S':'
asbag56
(g77
g58
NtRp4178
(dp4179
g61
(dp4180
sg70
g4165
sg63
(lp4181
g56
(g57
g58
NtRp4182
(dp4183
g61
(dp4184
g69
I5
ssg70
g4178
sg63
(lp4185
S'/opt/cassandra-dev/PROJECTS/Cassandra-Monitor/src/CassandraMonitor/mycassandramanager/myinterface/applications/cass1/sessions/127.0.0.1-5bed0d91-125b-469b-bd52-fa11514160e4'
p4186
asbasbasbag56
(g72
g58
NtRp4187
(dp4188
g61
(dp4189
sg70
g3033
sg63
(lp4190
g56
(g77
g58
NtRp4191
(dp4192
g61
(dp4193
g81
g82
ssg70
g4187
sg63
(lp4194
S'session_id'
p4195
asbag56
(g77
g58
NtRp4196
(dp4197
g61
(dp4198
g88
g89
ssg70
g4187
sg63
(lp4199
S':'
asbag56
(g77
g58
NtRp4200
(dp4201
g61
(dp4202
sg70
g4187
sg63
(lp4203
g56
(g57
g58
NtRp4204
(dp4205
g61
(dp4206
g69
I5
ssg70
g4200
sg63
(lp4207
S'127.0.0.1-5bed0d91-125b-469b-bd52-fa11514160e4'
p4208
asbasbasbag56
(g72
g58
NtRp4209
(dp4210
g61
(dp4211
sg70
g3033
sg63
(lp4212
g56
(g77
g58
NtRp4213
(dp4214
g61
(dp4215
g81
g82
ssg70
g4209
sg63
(lp4216
S'session_id_name'
p4217
asbag56
(g77
g58
NtRp4218
(dp4219
g61
(dp4220
g88
g89
ssg70
g4209
sg63
(lp4221
S':'
asbag56
(g77
g58
NtRp4222
(dp4223
g61
(dp4224
sg70
g4209
sg63
(lp4225
g56
(g57
g58
NtRp4226
(dp4227
g61
(dp4228
g69
I5
ssg70
g4222
sg63
(lp4229
g3090
asbasbasbag56
(g72
g58
NtRp4230
(dp4231
g61
(dp4232
sg70
g3033
sg63
(lp4233
g56
(g77
g58
NtRp4234
(dp4235
g61
(dp4236
g81
g82
ssg70
g4230
sg63
(lp4237
S'session_locked'
p4238
asbag56
(g77
g58
NtRp4239
(dp4240
g61
(dp4241
g88
g89
ssg70
g4230
sg63
(lp4242
S':'
asbag56
(g77
g58
NtRp4243
(dp4244
g61
(dp4245
sg70
g4230
sg63
(lp4246
g56
(g57
g58
NtRp4247
(dp4248
g61
(dp4249
g69
I5
ssg70
g4243
sg63
(lp4250
g1634
asbasbasbag56
(g72
g58
NtRp4251
(dp4252
g61
(dp4253
sg70
g3033
sg63
(lp4254
g56
(g77
g58
NtRp4255
(dp4256
g61
(dp4257
g81
g82
ssg70
g4251
sg63
(lp4258
S'session_new'
p4259
asbag56
(g77
g58
NtRp4260
(dp4261
g61
(dp4262
g88
g89
ssg70
g4251
sg63
(lp4263
S':'
asbag56
(g77
g58
NtRp4264
(dp4265
g61
(dp4266
sg70
g4251
sg63
(lp4267
g56
(g57
g58
NtRp4268
(dp4269
g61
(dp4270
g69
I5
ssg70
g4264
sg63
(lp4271
g99
asbasbasbag56
(g72
g58
NtRp4272
(dp4273
g61
(dp4274
sg70
g3033
sg63
(lp4275
g56
(g77
g58
NtRp4276
(dp4277
g61
(dp4278
g81
g82
ssg70
g4272
sg63
(lp4279
S'status'
p4280
asbag56
(g77
g58
NtRp4281
(dp4282
g61
(dp4283
g88
g89
ssg70
g4272
sg63
(lp4284
S':'
asbag56
(g77
g58
NtRp4285
(dp4286
g61
(dp4287
sg70
g4272
sg63
(lp4288
g56
(g57
g58
NtRp4289
(dp4290
g61
(dp4291
g69
I5
ssg70
g4285
sg63
(lp4292
S'200'
p4293
asbasbasbag56
(g72
g58
NtRp4294
(dp4295
g61
(dp4296
sg70
g3033
sg63
(lp4297
g56
(g77
g58
NtRp4298
(dp4299
g61
(dp4300
g81
g82
ssg70
g4294
sg63
(lp4301
S'subtitle'
p4302
asbag56
(g77
g58
NtRp4303
(dp4304
g61
(dp4305
g88
g89
ssg70
g4294
sg63
(lp4306
S':'
asbag56
(g77
g58
NtRp4307
(dp4308
g61
(dp4309
sg70
g4294
sg63
(lp4310
g56
(g57
g58
NtRp4311
(dp4312
g61
(dp4313
g69
I5
ssg70
g4307
sg63
(lp4314
S'Real-time Performance and Analytics'
p4315
asbasbasbag56
(g72
g58
NtRp4316
(dp4317
g61
(dp4318
sg70
g3033
sg63
(lp4319
g56
(g77
g58
NtRp4320
(dp4321
g61
(dp4322
g81
g82
ssg70
g4316
sg63
(lp4323
S'title'
p4324
asbag56
(g77
g58
NtRp4325
(dp4326
g61
(dp4327
g88
g89
ssg70
g4316
sg63
(lp4328
S':'
asbag56
(g77
g58
NtRp4329
(dp4330
g61
(dp4331
sg70
g4316
sg63
(lp4332
g56
(g57
g58
NtRp4333
(dp4334
g61
(dp4335
g69
I5
ssg70
g4329
sg63
(lp4336
S'Cassandra Manager 0.0.16a'
p4337
asbasbasbag56
(g72
g58
NtRp4338
(dp4339
g61
(dp4340
sg70
g3033
sg63
(lp4341
g56
(g77
g58
NtRp4342
(dp4343
g61
(dp4344
g81
g82
ssg70
g4338
sg63
(lp4345
g2278
asbag56
(g77
g58
NtRp4346
(dp4347
g61
(dp4348
g88
g89
ssg70
g4338
sg63
(lp4349
S':'
asbag56
(g77
g58
NtRp4350
(dp4351
g61
(dp4352
sg70
g4338
sg63
(lp4353
g56
(g57
g58
NtRp4354
(dp4355
g61
(dp4356
g69
I5
ssg70
g4350
sg63
(lp4357
g2291
asbasbasbag56
(g72
g58
NtRp4358
(dp4359
g61
(dp4360
sg70
g3033
sg63
(lp4361
g56
(g77
g58
NtRp4362
(dp4363
g61
(dp4364
g81
g82
ssg70
g4358
sg63
(lp4365
S'view'
p4366
asbag56
(g77
g58
NtRp4367
(dp4368
g61
(dp4369
g88
g89
ssg70
g4358
sg63
(lp4370
S':'
asbag56
(g77
g58
NtRp4371
(dp4372
g61
(dp4373
sg70
g4358
sg63
(lp4374
g56
(g57
g58
NtRp4375
(dp4376
g61
(dp4377
g69
I5
ssg70
g4371
sg63
(lp4378
S'cass_mgr/clusteroverview.html'
p4379
asbasbasbasbasbsS'locals'
p4380
(dp4381
S'H'
S'<networkx.classes.graph.Graph object>'
p4382
sS'e'
S'(2, 3)'
p4383
sS'G'
S'<networkx.classes.graph.Graph object>'
p4384
sssS'traceback'
p4385
S'Traceback (most recent call last):\n  File "/opt/cassandra-dev/PROJECTS/Cassandra-Monitor/src/CassandraMonitor/mycassandramanager/myinterface/gluon/restricted.py", line 194, in restricted\n    exec ccode in environment\n  File "/opt/cassandra-dev/PROJECTS/Cassandra-Monitor/src/CassandraMonitor/mycassandramanager/myinterface/applications/cass1/controllers/cass_mgr.py", line 65, in <module>\n  File "/opt/cassandra-dev/PROJECTS/Cassandra-Monitor/src/CassandraMonitor/mycassandramanager/myinterface/gluon/globals.py", line 149, in <lambda>\n    self._caller = lambda f: f()\n  File "/opt/cassandra-dev/PROJECTS/Cassandra-Monitor/src/CassandraMonitor/mycassandramanager/myinterface/applications/cass1/controllers/cass_mgr.py", line 55, in clusteroverview\n    return object(G)\nTypeError: object.__new__() takes no parameters\n'
p4386
s.