(dp1
S'output'
p2
S''
sS'layer'
p3
S'/opt/work/projects/web2py/applications/cass1/controllers/cass_mgr.py'
p4
sS'code'
p5
S'# coding: utf8\n# try something lik\nimport .. mydata\n\ndef index():\n   return dict(CASS_JMX)\n\nresponse._vars=response._caller(index)\n'
p6
sS'snapshot'
p7
(dp8
S'exception'
p9
(dp10
S'__getslice__'
p11
S"<method-wrapper '__getslice__' of exceptions.SyntaxError object>"
p12
sS'text'
p13
S"'import .. mydata\\n'"
p14
sS'__str__'
p15
S"<method-wrapper '__str__' of exceptions.SyntaxError object>"
p16
sS'__reduce__'
p17
S'<built-in method __reduce__ of exceptions.SyntaxError object>'
p18
sS'__dict__'
p19
S'{}'
p20
sS'__sizeof__'
p21
S'<built-in method __sizeof__ of exceptions.SyntaxError object>'
p22
sS'__init__'
p23
S"<method-wrapper '__init__' of exceptions.SyntaxError object>"
p24
sS'__setattr__'
p25
S"<method-wrapper '__setattr__' of exceptions.SyntaxError object>"
p26
sS'__reduce_ex__'
p27
S'<built-in method __reduce_ex__ of exceptions.SyntaxError object>'
p28
sS'__new__'
p29
S'<built-in method __new__ of type object>'
p30
sS'__format__'
p31
S'<built-in method __format__ of exceptions.SyntaxError object>'
p32
sS'__class__'
p33
S"<type 'exceptions.SyntaxError'>"
p34
sS'filename'
p35
S"'/opt/work/projects/web2py/applications/cass1/controllers/cass_mgr.py'"
p36
sS'lineno'
p37
S'3'
sS'msg'
p38
S"'invalid syntax'"
p39
sS'__doc__'
p40
S"'Invalid syntax.'"
p41
sS'__getitem__'
p42
S"<method-wrapper '__getitem__' of exceptions.SyntaxError object>"
p43
sS'__setstate__'
p44
S'<built-in method __setstate__ of exceptions.SyntaxError object>'
p45
sS'__getattribute__'
p46
S"<method-wrapper '__getattribute__' of exceptions.SyntaxError object>"
p47
sS'print_file_and_line'
p48
S'None'
p49
sS'args'
p50
S"('invalid syntax', ('/opt/work/projects/web2py/applications/cass1/controllers/cass_mgr.py', 3, 8, 'import .. mydata\\n'))"
p51
sS'__subclasshook__'
p52
S'<built-in method __subclasshook__ of type object>'
p53
sS'offset'
p54
S'8'
sS'__unicode__'
p55
S'<built-in method __unicode__ of exceptions.SyntaxError object>'
p56
sS'__delattr__'
p57
S"<method-wrapper '__delattr__' of exceptions.SyntaxError object>"
p58
sS'__repr__'
p59
S"<method-wrapper '__repr__' of exceptions.SyntaxError object>"
p60
sS'__hash__'
p61
S"<method-wrapper '__hash__' of exceptions.SyntaxError object>"
p62
ssS'evalue'
p63
S'invalid syntax (cass_mgr.py, line 3)'
p64
sS'request'
p65
ccopy_reg
_reconstructor
p66
(cgluon.html
BEAUTIFY
p67
c__builtin__
object
p68
NtRp69
(dp70
S'attributes'
p71
(dp72
sS'components'
p73
(lp74
g66
(cgluon.html
TABLE
p75
g68
NtRp76
(dp77
g71
(dp78
S'level'
p79
I5
ssS'parent'
p80
Nsg73
(lp81
g66
(cgluon.html
TR
p82
g68
NtRp83
(dp84
g71
(dp85
sg80
g76
sg73
(lp86
g66
(cgluon.html
TD
p87
g68
NtRp88
(dp89
g71
(dp90
S'_style'
p91
S'font-weight:bold;'
p92
ssg80
g83
sg73
(lp93
S'ajax'
p94
asbag66
(g87
g68
NtRp95
(dp96
g71
(dp97
S'_valign'
p98
S'top'
p99
ssg80
g83
sg73
(lp100
S':'
asbag66
(g87
g68
NtRp101
(dp102
g71
(dp103
sg80
g83
sg73
(lp104
g66
(g67
g68
NtRp105
(dp106
g71
(dp107
g79
I5
ssg80
g101
sg73
(lp108
S'False'
p109
asbasbasbag66
(g82
g68
NtRp110
(dp111
g71
(dp112
sg80
g76
sg73
(lp113
g66
(g87
g68
NtRp114
(dp115
g71
(dp116
g91
g92
ssg80
g110
sg73
(lp117
S'application'
p118
asbag66
(g87
g68
NtRp119
(dp120
g71
(dp121
g98
g99
ssg80
g110
sg73
(lp122
S':'
asbag66
(g87
g68
NtRp123
(dp124
g71
(dp125
sg80
g110
sg73
(lp126
g66
(g67
g68
NtRp127
(dp128
g71
(dp129
g79
I5
ssg80
g123
sg73
(lp130
S'cass1'
p131
asbasbasbag66
(g82
g68
NtRp132
(dp133
g71
(dp134
sg80
g76
sg73
(lp135
g66
(g87
g68
NtRp136
(dp137
g71
(dp138
g91
g92
ssg80
g132
sg73
(lp139
g50
asbag66
(g87
g68
NtRp140
(dp141
g71
(dp142
g98
g99
ssg80
g132
sg73
(lp143
S':'
asbag66
(g87
g68
NtRp144
(dp145
g71
(dp146
sg80
g132
sg73
(lp147
g66
(g67
g68
NtRp148
(dp149
g71
(dp150
g79
I5
ssg80
g144
sg73
(lp151
g66
(g75
g68
NtRp152
(dp153
g71
(dp154
g79
I4
ssg80
Nsg73
(lp155
sbasbasbasbag66
(g82
g68
NtRp156
(dp157
g71
(dp158
sg80
g76
sg73
(lp159
g66
(g87
g68
NtRp160
(dp161
g71
(dp162
g91
g92
ssg80
g156
sg73
(lp163
S'body'
p164
asbag66
(g87
g68
NtRp165
(dp166
g71
(dp167
g98
g99
ssg80
g156
sg73
(lp168
S':'
asbag66
(g87
g68
NtRp169
(dp170
g71
(dp171
sg80
g156
sg73
(lp172
g66
(g67
g68
NtRp173
(dp174
g71
(dp175
g79
I5
ssg80
g169
sg73
(lp176
S'<cStringIO.StringO object at 0x2f411b8>'
p177
asbasbasbag66
(g82
g68
NtRp178
(dp179
g71
(dp180
sg80
g76
sg73
(lp181
g66
(g87
g68
NtRp182
(dp183
g71
(dp184
g91
g92
ssg80
g178
sg73
(lp185
S'client'
p186
asbag66
(g87
g68
NtRp187
(dp188
g71
(dp189
g98
g99
ssg80
g178
sg73
(lp190
S':'
asbag66
(g87
g68
NtRp191
(dp192
g71
(dp193
sg80
g178
sg73
(lp194
g66
(g67
g68
NtRp195
(dp196
g71
(dp197
g79
I5
ssg80
g191
sg73
(lp198
S'127.0.0.1'
p199
asbasbasbag66
(g82
g68
NtRp200
(dp201
g71
(dp202
sg80
g76
sg73
(lp203
g66
(g87
g68
NtRp204
(dp205
g71
(dp206
g91
g92
ssg80
g200
sg73
(lp207
S'controller'
p208
asbag66
(g87
g68
NtRp209
(dp210
g71
(dp211
g98
g99
ssg80
g200
sg73
(lp212
S':'
asbag66
(g87
g68
NtRp213
(dp214
g71
(dp215
sg80
g200
sg73
(lp216
g66
(g67
g68
NtRp217
(dp218
g71
(dp219
g79
I5
ssg80
g213
sg73
(lp220
S'cass_mgr'
p221
asbasbasbag66
(g82
g68
NtRp222
(dp223
g71
(dp224
sg80
g76
sg73
(lp225
g66
(g87
g68
NtRp226
(dp227
g71
(dp228
g91
g92
ssg80
g222
sg73
(lp229
S'cookies'
p230
asbag66
(g87
g68
NtRp231
(dp232
g71
(dp233
g98
g99
ssg80
g222
sg73
(lp234
S':'
asbag66
(g87
g68
NtRp235
(dp236
g71
(dp237
sg80
g222
sg73
(lp238
g66
(g67
g68
NtRp239
(dp240
g71
(dp241
g79
I5
ssg80
g235
sg73
(lp242
g66
(g75
g68
NtRp243
(dp244
g71
(dp245
g79
I4
ssg80
Nsg73
(lp246
g66
(g82
g68
NtRp247
(dp248
g71
(dp249
sg80
g243
sg73
(lp250
g66
(g87
g68
NtRp251
(dp252
g71
(dp253
g91
g92
ssg80
g247
sg73
(lp254
S'session_id_admin'
p255
asbag66
(g87
g68
NtRp256
(dp257
g71
(dp258
g98
g99
ssg80
g247
sg73
(lp259
S':'
asbag66
(g87
g68
NtRp260
(dp261
g71
(dp262
sg80
g247
sg73
(lp263
g66
(g67
g68
NtRp264
(dp265
g71
(dp266
g79
I4
ssg80
g260
sg73
(lp267
g66
(g75
g68
NtRp268
(dp269
g71
(dp270
g79
I3
ssg80
Nsg73
(lp271
g66
(g82
g68
NtRp272
(dp273
g71
(dp274
sg80
g268
sg73
(lp275
g66
(g87
g68
NtRp276
(dp277
g71
(dp278
g91
g92
ssg80
g272
sg73
(lp279
S'comment'
p280
asbag66
(g87
g68
NtRp281
(dp282
g71
(dp283
g98
g99
ssg80
g272
sg73
(lp284
S':'
asbag66
(g87
g68
NtRp285
(dp286
g71
(dp287
sg80
g272
sg73
(lp288
g66
(g67
g68
NtRp289
(dp290
g71
(dp291
g79
I3
ssg80
g285
sg73
(lp292
S''
asbasbasbag66
(g82
g68
NtRp293
(dp294
g71
(dp295
sg80
g268
sg73
(lp296
g66
(g87
g68
NtRp297
(dp298
g71
(dp299
g91
g92
ssg80
g293
sg73
(lp300
S'domain'
p301
asbag66
(g87
g68
NtRp302
(dp303
g71
(dp304
g98
g99
ssg80
g293
sg73
(lp305
S':'
asbag66
(g87
g68
NtRp306
(dp307
g71
(dp308
sg80
g293
sg73
(lp309
g66
(g67
g68
NtRp310
(dp311
g71
(dp312
g79
I3
ssg80
g306
sg73
(lp313
S''
asbasbasbag66
(g82
g68
NtRp314
(dp315
g71
(dp316
sg80
g268
sg73
(lp317
g66
(g87
g68
NtRp318
(dp319
g71
(dp320
g91
g92
ssg80
g314
sg73
(lp321
S'expires'
p322
asbag66
(g87
g68
NtRp323
(dp324
g71
(dp325
g98
g99
ssg80
g314
sg73
(lp326
S':'
asbag66
(g87
g68
NtRp327
(dp328
g71
(dp329
sg80
g314
sg73
(lp330
g66
(g67
g68
NtRp331
(dp332
g71
(dp333
g79
I3
ssg80
g327
sg73
(lp334
S''
asbasbasbag66
(g82
g68
NtRp335
(dp336
g71
(dp337
sg80
g268
sg73
(lp338
g66
(g87
g68
NtRp339
(dp340
g71
(dp341
g91
g92
ssg80
g335
sg73
(lp342
S'httponly'
p343
asbag66
(g87
g68
NtRp344
(dp345
g71
(dp346
g98
g99
ssg80
g335
sg73
(lp347
S':'
asbag66
(g87
g68
NtRp348
(dp349
g71
(dp350
sg80
g335
sg73
(lp351
g66
(g67
g68
NtRp352
(dp353
g71
(dp354
g79
I3
ssg80
g348
sg73
(lp355
S''
asbasbasbag66
(g82
g68
NtRp356
(dp357
g71
(dp358
sg80
g268
sg73
(lp359
g66
(g87
g68
NtRp360
(dp361
g71
(dp362
g91
g92
ssg80
g356
sg73
(lp363
S'max-age'
p364
asbag66
(g87
g68
NtRp365
(dp366
g71
(dp367
g98
g99
ssg80
g356
sg73
(lp368
S':'
asbag66
(g87
g68
NtRp369
(dp370
g71
(dp371
sg80
g356
sg73
(lp372
g66
(g67
g68
NtRp373
(dp374
g71
(dp375
g79
I3
ssg80
g369
sg73
(lp376
S''
asbasbasbag66
(g82
g68
NtRp377
(dp378
g71
(dp379
sg80
g268
sg73
(lp380
g66
(g87
g68
NtRp381
(dp382
g71
(dp383
g91
g92
ssg80
g377
sg73
(lp384
S'path'
p385
asbag66
(g87
g68
NtRp386
(dp387
g71
(dp388
g98
g99
ssg80
g377
sg73
(lp389
S':'
asbag66
(g87
g68
NtRp390
(dp391
g71
(dp392
sg80
g377
sg73
(lp393
g66
(g67
g68
NtRp394
(dp395
g71
(dp396
g79
I3
ssg80
g390
sg73
(lp397
S''
asbasbasbag66
(g82
g68
NtRp398
(dp399
g71
(dp400
sg80
g268
sg73
(lp401
g66
(g87
g68
NtRp402
(dp403
g71
(dp404
g91
g92
ssg80
g398
sg73
(lp405
S'secure'
p406
asbag66
(g87
g68
NtRp407
(dp408
g71
(dp409
g98
g99
ssg80
g398
sg73
(lp410
S':'
asbag66
(g87
g68
NtRp411
(dp412
g71
(dp413
sg80
g398
sg73
(lp414
g66
(g67
g68
NtRp415
(dp416
g71
(dp417
g79
I3
ssg80
g411
sg73
(lp418
S''
asbasbasbag66
(g82
g68
NtRp419
(dp420
g71
(dp421
sg80
g268
sg73
(lp422
g66
(g87
g68
NtRp423
(dp424
g71
(dp425
g91
g92
ssg80
g419
sg73
(lp426
S'version'
p427
asbag66
(g87
g68
NtRp428
(dp429
g71
(dp430
g98
g99
ssg80
g419
sg73
(lp431
S':'
asbag66
(g87
g68
NtRp432
(dp433
g71
(dp434
sg80
g419
sg73
(lp435
g66
(g67
g68
NtRp436
(dp437
g71
(dp438
g79
I3
ssg80
g432
sg73
(lp439
S''
asbasbasbasbasbasbasbag66
(g82
g68
NtRp440
(dp441
g71
(dp442
sg80
g243
sg73
(lp443
g66
(g87
g68
NtRp444
(dp445
g71
(dp446
g91
g92
ssg80
g440
sg73
(lp447
S'session_id_cass1'
p448
asbag66
(g87
g68
NtRp449
(dp450
g71
(dp451
g98
g99
ssg80
g440
sg73
(lp452
S':'
asbag66
(g87
g68
NtRp453
(dp454
g71
(dp455
sg80
g440
sg73
(lp456
g66
(g67
g68
NtRp457
(dp458
g71
(dp459
g79
I4
ssg80
g453
sg73
(lp460
g66
(g75
g68
NtRp461
(dp462
g71
(dp463
g79
I3
ssg80
Nsg73
(lp464
g66
(g82
g68
NtRp465
(dp466
g71
(dp467
sg80
g461
sg73
(lp468
g66
(g87
g68
NtRp469
(dp470
g71
(dp471
g91
g92
ssg80
g465
sg73
(lp472
g280
asbag66
(g87
g68
NtRp473
(dp474
g71
(dp475
g98
g99
ssg80
g465
sg73
(lp476
S':'
asbag66
(g87
g68
NtRp477
(dp478
g71
(dp479
sg80
g465
sg73
(lp480
g66
(g67
g68
NtRp481
(dp482
g71
(dp483
g79
I3
ssg80
g477
sg73
(lp484
S''
asbasbasbag66
(g82
g68
NtRp485
(dp486
g71
(dp487
sg80
g461
sg73
(lp488
g66
(g87
g68
NtRp489
(dp490
g71
(dp491
g91
g92
ssg80
g485
sg73
(lp492
g301
asbag66
(g87
g68
NtRp493
(dp494
g71
(dp495
g98
g99
ssg80
g485
sg73
(lp496
S':'
asbag66
(g87
g68
NtRp497
(dp498
g71
(dp499
sg80
g485
sg73
(lp500
g66
(g67
g68
NtRp501
(dp502
g71
(dp503
g79
I3
ssg80
g497
sg73
(lp504
S''
asbasbasbag66
(g82
g68
NtRp505
(dp506
g71
(dp507
sg80
g461
sg73
(lp508
g66
(g87
g68
NtRp509
(dp510
g71
(dp511
g91
g92
ssg80
g505
sg73
(lp512
g322
asbag66
(g87
g68
NtRp513
(dp514
g71
(dp515
g98
g99
ssg80
g505
sg73
(lp516
S':'
asbag66
(g87
g68
NtRp517
(dp518
g71
(dp519
sg80
g505
sg73
(lp520
g66
(g67
g68
NtRp521
(dp522
g71
(dp523
g79
I3
ssg80
g517
sg73
(lp524
S''
asbasbasbag66
(g82
g68
NtRp525
(dp526
g71
(dp527
sg80
g461
sg73
(lp528
g66
(g87
g68
NtRp529
(dp530
g71
(dp531
g91
g92
ssg80
g525
sg73
(lp532
g343
asbag66
(g87
g68
NtRp533
(dp534
g71
(dp535
g98
g99
ssg80
g525
sg73
(lp536
S':'
asbag66
(g87
g68
NtRp537
(dp538
g71
(dp539
sg80
g525
sg73
(lp540
g66
(g67
g68
NtRp541
(dp542
g71
(dp543
g79
I3
ssg80
g537
sg73
(lp544
S''
asbasbasbag66
(g82
g68
NtRp545
(dp546
g71
(dp547
sg80
g461
sg73
(lp548
g66
(g87
g68
NtRp549
(dp550
g71
(dp551
g91
g92
ssg80
g545
sg73
(lp552
g364
asbag66
(g87
g68
NtRp553
(dp554
g71
(dp555
g98
g99
ssg80
g545
sg73
(lp556
S':'
asbag66
(g87
g68
NtRp557
(dp558
g71
(dp559
sg80
g545
sg73
(lp560
g66
(g67
g68
NtRp561
(dp562
g71
(dp563
g79
I3
ssg80
g557
sg73
(lp564
S''
asbasbasbag66
(g82
g68
NtRp565
(dp566
g71
(dp567
sg80
g461
sg73
(lp568
g66
(g87
g68
NtRp569
(dp570
g71
(dp571
g91
g92
ssg80
g565
sg73
(lp572
g385
asbag66
(g87
g68
NtRp573
(dp574
g71
(dp575
g98
g99
ssg80
g565
sg73
(lp576
S':'
asbag66
(g87
g68
NtRp577
(dp578
g71
(dp579
sg80
g565
sg73
(lp580
g66
(g67
g68
NtRp581
(dp582
g71
(dp583
g79
I3
ssg80
g577
sg73
(lp584
S''
asbasbasbag66
(g82
g68
NtRp585
(dp586
g71
(dp587
sg80
g461
sg73
(lp588
g66
(g87
g68
NtRp589
(dp590
g71
(dp591
g91
g92
ssg80
g585
sg73
(lp592
g406
asbag66
(g87
g68
NtRp593
(dp594
g71
(dp595
g98
g99
ssg80
g585
sg73
(lp596
S':'
asbag66
(g87
g68
NtRp597
(dp598
g71
(dp599
sg80
g585
sg73
(lp600
g66
(g67
g68
NtRp601
(dp602
g71
(dp603
g79
I3
ssg80
g597
sg73
(lp604
S''
asbasbasbag66
(g82
g68
NtRp605
(dp606
g71
(dp607
sg80
g461
sg73
(lp608
g66
(g87
g68
NtRp609
(dp610
g71
(dp611
g91
g92
ssg80
g605
sg73
(lp612
g427
asbag66
(g87
g68
NtRp613
(dp614
g71
(dp615
g98
g99
ssg80
g605
sg73
(lp616
S':'
asbag66
(g87
g68
NtRp617
(dp618
g71
(dp619
sg80
g605
sg73
(lp620
g66
(g67
g68
NtRp621
(dp622
g71
(dp623
g79
I3
ssg80
g617
sg73
(lp624
S''
asbasbasbasbasbasbasbag66
(g82
g68
NtRp625
(dp626
g71
(dp627
sg80
g243
sg73
(lp628
g66
(g87
g68
NtRp629
(dp630
g71
(dp631
g91
g92
ssg80
g625
sg73
(lp632
S'session_id_welcome'
p633
asbag66
(g87
g68
NtRp634
(dp635
g71
(dp636
g98
g99
ssg80
g625
sg73
(lp637
S':'
asbag66
(g87
g68
NtRp638
(dp639
g71
(dp640
sg80
g625
sg73
(lp641
g66
(g67
g68
NtRp642
(dp643
g71
(dp644
g79
I4
ssg80
g638
sg73
(lp645
g66
(g75
g68
NtRp646
(dp647
g71
(dp648
g79
I3
ssg80
Nsg73
(lp649
g66
(g82
g68
NtRp650
(dp651
g71
(dp652
sg80
g646
sg73
(lp653
g66
(g87
g68
NtRp654
(dp655
g71
(dp656
g91
g92
ssg80
g650
sg73
(lp657
g280
asbag66
(g87
g68
NtRp658
(dp659
g71
(dp660
g98
g99
ssg80
g650
sg73
(lp661
S':'
asbag66
(g87
g68
NtRp662
(dp663
g71
(dp664
sg80
g650
sg73
(lp665
g66
(g67
g68
NtRp666
(dp667
g71
(dp668
g79
I3
ssg80
g662
sg73
(lp669
S''
asbasbasbag66
(g82
g68
NtRp670
(dp671
g71
(dp672
sg80
g646
sg73
(lp673
g66
(g87
g68
NtRp674
(dp675
g71
(dp676
g91
g92
ssg80
g670
sg73
(lp677
g301
asbag66
(g87
g68
NtRp678
(dp679
g71
(dp680
g98
g99
ssg80
g670
sg73
(lp681
S':'
asbag66
(g87
g68
NtRp682
(dp683
g71
(dp684
sg80
g670
sg73
(lp685
g66
(g67
g68
NtRp686
(dp687
g71
(dp688
g79
I3
ssg80
g682
sg73
(lp689
S''
asbasbasbag66
(g82
g68
NtRp690
(dp691
g71
(dp692
sg80
g646
sg73
(lp693
g66
(g87
g68
NtRp694
(dp695
g71
(dp696
g91
g92
ssg80
g690
sg73
(lp697
g322
asbag66
(g87
g68
NtRp698
(dp699
g71
(dp700
g98
g99
ssg80
g690
sg73
(lp701
S':'
asbag66
(g87
g68
NtRp702
(dp703
g71
(dp704
sg80
g690
sg73
(lp705
g66
(g67
g68
NtRp706
(dp707
g71
(dp708
g79
I3
ssg80
g702
sg73
(lp709
S''
asbasbasbag66
(g82
g68
NtRp710
(dp711
g71
(dp712
sg80
g646
sg73
(lp713
g66
(g87
g68
NtRp714
(dp715
g71
(dp716
g91
g92
ssg80
g710
sg73
(lp717
g343
asbag66
(g87
g68
NtRp718
(dp719
g71
(dp720
g98
g99
ssg80
g710
sg73
(lp721
S':'
asbag66
(g87
g68
NtRp722
(dp723
g71
(dp724
sg80
g710
sg73
(lp725
g66
(g67
g68
NtRp726
(dp727
g71
(dp728
g79
I3
ssg80
g722
sg73
(lp729
S''
asbasbasbag66
(g82
g68
NtRp730
(dp731
g71
(dp732
sg80
g646
sg73
(lp733
g66
(g87
g68
NtRp734
(dp735
g71
(dp736
g91
g92
ssg80
g730
sg73
(lp737
g364
asbag66
(g87
g68
NtRp738
(dp739
g71
(dp740
g98
g99
ssg80
g730
sg73
(lp741
S':'
asbag66
(g87
g68
NtRp742
(dp743
g71
(dp744
sg80
g730
sg73
(lp745
g66
(g67
g68
NtRp746
(dp747
g71
(dp748
g79
I3
ssg80
g742
sg73
(lp749
S''
asbasbasbag66
(g82
g68
NtRp750
(dp751
g71
(dp752
sg80
g646
sg73
(lp753
g66
(g87
g68
NtRp754
(dp755
g71
(dp756
g91
g92
ssg80
g750
sg73
(lp757
g385
asbag66
(g87
g68
NtRp758
(dp759
g71
(dp760
g98
g99
ssg80
g750
sg73
(lp761
S':'
asbag66
(g87
g68
NtRp762
(dp763
g71
(dp764
sg80
g750
sg73
(lp765
g66
(g67
g68
NtRp766
(dp767
g71
(dp768
g79
I3
ssg80
g762
sg73
(lp769
S''
asbasbasbag66
(g82
g68
NtRp770
(dp771
g71
(dp772
sg80
g646
sg73
(lp773
g66
(g87
g68
NtRp774
(dp775
g71
(dp776
g91
g92
ssg80
g770
sg73
(lp777
g406
asbag66
(g87
g68
NtRp778
(dp779
g71
(dp780
g98
g99
ssg80
g770
sg73
(lp781
S':'
asbag66
(g87
g68
NtRp782
(dp783
g71
(dp784
sg80
g770
sg73
(lp785
g66
(g67
g68
NtRp786
(dp787
g71
(dp788
g79
I3
ssg80
g782
sg73
(lp789
S''
asbasbasbag66
(g82
g68
NtRp790
(dp791
g71
(dp792
sg80
g646
sg73
(lp793
g66
(g87
g68
NtRp794
(dp795
g71
(dp796
g91
g92
ssg80
g790
sg73
(lp797
g427
asbag66
(g87
g68
NtRp798
(dp799
g71
(dp800
g98
g99
ssg80
g790
sg73
(lp801
S':'
asbag66
(g87
g68
NtRp802
(dp803
g71
(dp804
sg80
g790
sg73
(lp805
g66
(g67
g68
NtRp806
(dp807
g71
(dp808
g79
I3
ssg80
g802
sg73
(lp809
S''
asbasbasbasbasbasbasbasbasbasbasbag66
(g82
g68
NtRp810
(dp811
g71
(dp812
sg80
g76
sg73
(lp813
g66
(g87
g68
NtRp814
(dp815
g71
(dp816
g91
g92
ssg80
g810
sg73
(lp817
S'env'
p818
asbag66
(g87
g68
NtRp819
(dp820
g71
(dp821
g98
g99
ssg80
g810
sg73
(lp822
S':'
asbag66
(g87
g68
NtRp823
(dp824
g71
(dp825
sg80
g810
sg73
(lp826
g66
(g67
g68
NtRp827
(dp828
g71
(dp829
g79
I5
ssg80
g823
sg73
(lp830
g66
(g75
g68
NtRp831
(dp832
g71
(dp833
g79
I4
ssg80
Nsg73
(lp834
g66
(g82
g68
NtRp835
(dp836
g71
(dp837
sg80
g831
sg73
(lp838
g66
(g87
g68
NtRp839
(dp840
g71
(dp841
g91
g92
ssg80
g835
sg73
(lp842
S'app_folders'
p843
asbag66
(g87
g68
NtRp844
(dp845
g71
(dp846
g98
g99
ssg80
g835
sg73
(lp847
S':'
asbag66
(g87
g68
NtRp848
(dp849
g71
(dp850
sg80
g835
sg73
(lp851
g66
(g67
g68
NtRp852
(dp853
g71
(dp854
g79
I4
ssg80
g848
sg73
(lp855
S"set(['/opt/work/projects/web2py/applications/admin/', '/opt/work/projects/web2py/applications/cass1/', '/opt/work/projects/web2py/applications/welcome/'])"
p856
asbasbasbag66
(g82
g68
NtRp857
(dp858
g71
(dp859
sg80
g831
sg73
(lp860
g66
(g87
g68
NtRp861
(dp862
g71
(dp863
g91
g92
ssg80
g857
sg73
(lp864
S'applications_parent'
p865
asbag66
(g87
g68
NtRp866
(dp867
g71
(dp868
g98
g99
ssg80
g857
sg73
(lp869
S':'
asbag66
(g87
g68
NtRp870
(dp871
g71
(dp872
sg80
g857
sg73
(lp873
g66
(g67
g68
NtRp874
(dp875
g71
(dp876
g79
I4
ssg80
g870
sg73
(lp877
S'/opt/work/projects/web2py'
p878
asbasbasbag66
(g82
g68
NtRp879
(dp880
g71
(dp881
sg80
g831
sg73
(lp882
g66
(g87
g68
NtRp883
(dp884
g71
(dp885
g91
g92
ssg80
g879
sg73
(lp886
S'cmd_args'
p887
asbag66
(g87
g68
NtRp888
(dp889
g71
(dp890
g98
g99
ssg80
g879
sg73
(lp891
S':'
asbag66
(g87
g68
NtRp892
(dp893
g71
(dp894
sg80
g879
sg73
(lp895
g66
(g67
g68
NtRp896
(dp897
g71
(dp898
g79
I4
ssg80
g892
sg73
(lp899
g66
(g75
g68
NtRp900
(dp901
g71
(dp902
g79
I3
ssg80
Nsg73
(lp903
sbasbasbasbag66
(g82
g68
NtRp904
(dp905
g71
(dp906
sg80
g831
sg73
(lp907
g66
(g87
g68
NtRp908
(dp909
g71
(dp910
g91
g92
ssg80
g904
sg73
(lp911
S'cmd_options'
p912
asbag66
(g87
g68
NtRp913
(dp914
g71
(dp915
g98
g99
ssg80
g904
sg73
(lp916
S':'
asbag66
(g87
g68
NtRp917
(dp918
g71
(dp919
sg80
g904
sg73
(lp920
g66
(g67
g68
NtRp921
(dp922
g71
(dp923
g79
I4
ssg80
g917
sg73
(lp924
S"<Values at 0x2cfb8c0: {'verbose': False, 'ip': '127.0.0.1', 'shutdown_timeout': 5, 'taskbar': False, 'nocron': False, 'pid_filename': 'httpserver.pid', 'maxthreads': None, 'softcron': False, 'server_name': 'games105linux.doomstuff.local', 'bpython': False, 'nogui': False, 'port': 8000, 'extcron': False, 'debuglevel': 30, 'test': None, 'folder': '/opt/work/projects/web2py', 'config': '', 'import_models': False, 'winservice': '', 'shell': None, 'run': '', 'log_filename': 'httpserver.log', 'args': [''], 'ssl_ca_certificate': None, 'scheduler': None, 'profiler_filename': None, 'ssl_private_key': '', 'password': 'testing', 'request_queue_size': 5, 'ssl_certificate': '', 'cronjob': False, 'plain': False, 'quiet': False, 'interfaces': None, 'minthreads': None, 'timeout': 10, 'numthreads': None, 'nobanner': False}>"
p925
asbasbasbag66
(g82
g68
NtRp926
(dp927
g71
(dp928
sg80
g831
sg73
(lp929
g66
(g87
g68
NtRp930
(dp931
g71
(dp932
g91
g92
ssg80
g926
sg73
(lp933
S'db_sessions'
p934
asbag66
(g87
g68
NtRp935
(dp936
g71
(dp937
g98
g99
ssg80
g926
sg73
(lp938
S':'
asbag66
(g87
g68
NtRp939
(dp940
g71
(dp941
sg80
g926
sg73
(lp942
g66
(g67
g68
NtRp943
(dp944
g71
(dp945
g79
I4
ssg80
g939
sg73
(lp946
S'set([])'
p947
asbasbasbag66
(g82
g68
NtRp948
(dp949
g71
(dp950
sg80
g831
sg73
(lp951
g66
(g87
g68
NtRp952
(dp953
g71
(dp954
g91
g92
ssg80
g948
sg73
(lp955
S'debugging'
p956
asbag66
(g87
g68
NtRp957
(dp958
g71
(dp959
g98
g99
ssg80
g948
sg73
(lp960
S':'
asbag66
(g87
g68
NtRp961
(dp962
g71
(dp963
sg80
g948
sg73
(lp964
g66
(g67
g68
NtRp965
(dp966
g71
(dp967
g79
I4
ssg80
g961
sg73
(lp968
g109
asbasbasbag66
(g82
g68
NtRp969
(dp970
g71
(dp971
sg80
g831
sg73
(lp972
g66
(g87
g68
NtRp973
(dp974
g71
(dp975
g91
g92
ssg80
g969
sg73
(lp976
S'gluon_parent'
p977
asbag66
(g87
g68
NtRp978
(dp979
g71
(dp980
g98
g99
ssg80
g969
sg73
(lp981
S':'
asbag66
(g87
g68
NtRp982
(dp983
g71
(dp984
sg80
g969
sg73
(lp985
g66
(g67
g68
NtRp986
(dp987
g71
(dp988
g79
I4
ssg80
g982
sg73
(lp989
S'/opt/work/projects/web2py'
p990
asbasbasbag66
(g82
g68
NtRp991
(dp992
g71
(dp993
sg80
g831
sg73
(lp994
g66
(g87
g68
NtRp995
(dp996
g71
(dp997
g91
g92
ssg80
g991
sg73
(lp998
S'http_accept'
p999
asbag66
(g87
g68
NtRp1000
(dp1001
g71
(dp1002
g98
g99
ssg80
g991
sg73
(lp1003
S':'
asbag66
(g87
g68
NtRp1004
(dp1005
g71
(dp1006
sg80
g991
sg73
(lp1007
g66
(g67
g68
NtRp1008
(dp1009
g71
(dp1010
g79
I4
ssg80
g1004
sg73
(lp1011
S'text/html,application/xhtml+xml,application/xml;q=0.9,*/*;q=0.8'
p1012
asbasbasbag66
(g82
g68
NtRp1013
(dp1014
g71
(dp1015
sg80
g831
sg73
(lp1016
g66
(g87
g68
NtRp1017
(dp1018
g71
(dp1019
g91
g92
ssg80
g1013
sg73
(lp1020
S'http_accept_charset'
p1021
asbag66
(g87
g68
NtRp1022
(dp1023
g71
(dp1024
g98
g99
ssg80
g1013
sg73
(lp1025
S':'
asbag66
(g87
g68
NtRp1026
(dp1027
g71
(dp1028
sg80
g1013
sg73
(lp1029
g66
(g67
g68
NtRp1030
(dp1031
g71
(dp1032
g79
I4
ssg80
g1026
sg73
(lp1033
S'ISO-8859-1,utf-8;q=0.7,*;q=0.3'
p1034
asbasbasbag66
(g82
g68
NtRp1035
(dp1036
g71
(dp1037
sg80
g831
sg73
(lp1038
g66
(g87
g68
NtRp1039
(dp1040
g71
(dp1041
g91
g92
ssg80
g1035
sg73
(lp1042
S'http_accept_encoding'
p1043
asbag66
(g87
g68
NtRp1044
(dp1045
g71
(dp1046
g98
g99
ssg80
g1035
sg73
(lp1047
S':'
asbag66
(g87
g68
NtRp1048
(dp1049
g71
(dp1050
sg80
g1035
sg73
(lp1051
g66
(g67
g68
NtRp1052
(dp1053
g71
(dp1054
g79
I4
ssg80
g1048
sg73
(lp1055
S'gzip,deflate,sdch'
p1056
asbasbasbag66
(g82
g68
NtRp1057
(dp1058
g71
(dp1059
sg80
g831
sg73
(lp1060
g66
(g87
g68
NtRp1061
(dp1062
g71
(dp1063
g91
g92
ssg80
g1057
sg73
(lp1064
S'http_accept_language'
p1065
asbag66
(g87
g68
NtRp1066
(dp1067
g71
(dp1068
g98
g99
ssg80
g1057
sg73
(lp1069
S':'
asbag66
(g87
g68
NtRp1070
(dp1071
g71
(dp1072
sg80
g1057
sg73
(lp1073
g66
(g67
g68
NtRp1074
(dp1075
g71
(dp1076
g79
I4
ssg80
g1070
sg73
(lp1077
S'en-GB,en-US;q=0.8,en;q=0.6'
p1078
asbasbasbag66
(g82
g68
NtRp1079
(dp1080
g71
(dp1081
sg80
g831
sg73
(lp1082
g66
(g87
g68
NtRp1083
(dp1084
g71
(dp1085
g91
g92
ssg80
g1079
sg73
(lp1086
S'http_connection'
p1087
asbag66
(g87
g68
NtRp1088
(dp1089
g71
(dp1090
g98
g99
ssg80
g1079
sg73
(lp1091
S':'
asbag66
(g87
g68
NtRp1092
(dp1093
g71
(dp1094
sg80
g1079
sg73
(lp1095
g66
(g67
g68
NtRp1096
(dp1097
g71
(dp1098
g79
I4
ssg80
g1092
sg73
(lp1099
S'keep-alive'
p1100
asbasbasbag66
(g82
g68
NtRp1101
(dp1102
g71
(dp1103
sg80
g831
sg73
(lp1104
g66
(g87
g68
NtRp1105
(dp1106
g71
(dp1107
g91
g92
ssg80
g1101
sg73
(lp1108
S'http_cookie'
p1109
asbag66
(g87
g68
NtRp1110
(dp1111
g71
(dp1112
g98
g99
ssg80
g1101
sg73
(lp1113
S':'
asbag66
(g87
g68
NtRp1114
(dp1115
g71
(dp1116
sg80
g1101
sg73
(lp1117
g66
(g67
g68
NtRp1118
(dp1119
g71
(dp1120
g79
I4
ssg80
g1114
sg73
(lp1121
S'session_id_welcome=127.0.0.1-453bce1e-2007-4a40-bfe5-370926afe117; session_id_admin=127.0.0.1-7545defa-de9d-4c37-be02-8357c65a1c8e; session_id_cass1=127.0.0.1-6fe6a3f9-2307-46a2-954a-6299fc7a60ca'
p1122
asbasbasbag66
(g82
g68
NtRp1123
(dp1124
g71
(dp1125
sg80
g831
sg73
(lp1126
g66
(g87
g68
NtRp1127
(dp1128
g71
(dp1129
g91
g92
ssg80
g1123
sg73
(lp1130
S'http_host'
p1131
asbag66
(g87
g68
NtRp1132
(dp1133
g71
(dp1134
g98
g99
ssg80
g1123
sg73
(lp1135
S':'
asbag66
(g87
g68
NtRp1136
(dp1137
g71
(dp1138
sg80
g1123
sg73
(lp1139
g66
(g67
g68
NtRp1140
(dp1141
g71
(dp1142
g79
I4
ssg80
g1136
sg73
(lp1143
S'127.0.0.1:8000'
p1144
asbasbasbag66
(g82
g68
NtRp1145
(dp1146
g71
(dp1147
sg80
g831
sg73
(lp1148
g66
(g87
g68
NtRp1149
(dp1150
g71
(dp1151
g91
g92
ssg80
g1145
sg73
(lp1152
S'http_referer'
p1153
asbag66
(g87
g68
NtRp1154
(dp1155
g71
(dp1156
g98
g99
ssg80
g1145
sg73
(lp1157
S':'
asbag66
(g87
g68
NtRp1158
(dp1159
g71
(dp1160
sg80
g1145
sg73
(lp1161
g66
(g67
g68
NtRp1162
(dp1163
g71
(dp1164
g79
I4
ssg80
g1158
sg73
(lp1165
S'http://127.0.0.1:8000/cass1/'
p1166
asbasbasbag66
(g82
g68
NtRp1167
(dp1168
g71
(dp1169
sg80
g831
sg73
(lp1170
g66
(g87
g68
NtRp1171
(dp1172
g71
(dp1173
g91
g92
ssg80
g1167
sg73
(lp1174
S'http_user_agent'
p1175
asbag66
(g87
g68
NtRp1176
(dp1177
g71
(dp1178
g98
g99
ssg80
g1167
sg73
(lp1179
S':'
asbag66
(g87
g68
NtRp1180
(dp1181
g71
(dp1182
sg80
g1167
sg73
(lp1183
g66
(g67
g68
NtRp1184
(dp1185
g71
(dp1186
g79
I4
ssg80
g1180
sg73
(lp1187
S'Mozilla/5.0 (X11; Linux x86_64) AppleWebKit/535.1 (KHTML, like Gecko) Chrome/14.0.835.186 Safari/535.1'
p1188
asbasbasbag66
(g82
g68
NtRp1189
(dp1190
g71
(dp1191
sg80
g831
sg73
(lp1192
g66
(g87
g68
NtRp1193
(dp1194
g71
(dp1195
g91
g92
ssg80
g1189
sg73
(lp1196
S'is_jython'
p1197
asbag66
(g87
g68
NtRp1198
(dp1199
g71
(dp1200
g98
g99
ssg80
g1189
sg73
(lp1201
S':'
asbag66
(g87
g68
NtRp1202
(dp1203
g71
(dp1204
sg80
g1189
sg73
(lp1205
g66
(g67
g68
NtRp1206
(dp1207
g71
(dp1208
g79
I4
ssg80
g1202
sg73
(lp1209
g109
asbasbasbag66
(g82
g68
NtRp1210
(dp1211
g71
(dp1212
sg80
g831
sg73
(lp1213
g66
(g87
g68
NtRp1214
(dp1215
g71
(dp1216
g91
g92
ssg80
g1210
sg73
(lp1217
S'path_info'
p1218
asbag66
(g87
g68
NtRp1219
(dp1220
g71
(dp1221
g98
g99
ssg80
g1210
sg73
(lp1222
S':'
asbag66
(g87
g68
NtRp1223
(dp1224
g71
(dp1225
sg80
g1210
sg73
(lp1226
g66
(g67
g68
NtRp1227
(dp1228
g71
(dp1229
g79
I4
ssg80
g1223
sg73
(lp1230
S'/cass1/cass_mgr/index'
p1231
asbasbasbag66
(g82
g68
NtRp1232
(dp1233
g71
(dp1234
sg80
g831
sg73
(lp1235
g66
(g87
g68
NtRp1236
(dp1237
g71
(dp1238
g91
g92
ssg80
g1232
sg73
(lp1239
S'query_string'
p1240
asbag66
(g87
g68
NtRp1241
(dp1242
g71
(dp1243
g98
g99
ssg80
g1232
sg73
(lp1244
S':'
asbag66
(g87
g68
NtRp1245
(dp1246
g71
(dp1247
sg80
g1232
sg73
(lp1248
g66
(g67
g68
NtRp1249
(dp1250
g71
(dp1251
g79
I4
ssg80
g1245
sg73
(lp1252
S''
asbasbasbag66
(g82
g68
NtRp1253
(dp1254
g71
(dp1255
sg80
g831
sg73
(lp1256
g66
(g87
g68
NtRp1257
(dp1258
g71
(dp1259
g91
g92
ssg80
g1253
sg73
(lp1260
S'remote_addr'
p1261
asbag66
(g87
g68
NtRp1262
(dp1263
g71
(dp1264
g98
g99
ssg80
g1253
sg73
(lp1265
S':'
asbag66
(g87
g68
NtRp1266
(dp1267
g71
(dp1268
sg80
g1253
sg73
(lp1269
g66
(g67
g68
NtRp1270
(dp1271
g71
(dp1272
g79
I4
ssg80
g1266
sg73
(lp1273
g199
asbasbasbag66
(g82
g68
NtRp1274
(dp1275
g71
(dp1276
sg80
g831
sg73
(lp1277
g66
(g87
g68
NtRp1278
(dp1279
g71
(dp1280
g91
g92
ssg80
g1274
sg73
(lp1281
S'remote_port'
p1282
asbag66
(g87
g68
NtRp1283
(dp1284
g71
(dp1285
g98
g99
ssg80
g1274
sg73
(lp1286
S':'
asbag66
(g87
g68
NtRp1287
(dp1288
g71
(dp1289
sg80
g1274
sg73
(lp1290
g66
(g67
g68
NtRp1291
(dp1292
g71
(dp1293
g79
I4
ssg80
g1287
sg73
(lp1294
S'58832'
p1295
asbasbasbag66
(g82
g68
NtRp1296
(dp1297
g71
(dp1298
sg80
g831
sg73
(lp1299
g66
(g87
g68
NtRp1300
(dp1301
g71
(dp1302
g91
g92
ssg80
g1296
sg73
(lp1303
S'request_method'
p1304
asbag66
(g87
g68
NtRp1305
(dp1306
g71
(dp1307
g98
g99
ssg80
g1296
sg73
(lp1308
S':'
asbag66
(g87
g68
NtRp1309
(dp1310
g71
(dp1311
sg80
g1296
sg73
(lp1312
g66
(g67
g68
NtRp1313
(dp1314
g71
(dp1315
g79
I4
ssg80
g1309
sg73
(lp1316
S'GET'
p1317
asbasbasbag66
(g82
g68
NtRp1318
(dp1319
g71
(dp1320
sg80
g831
sg73
(lp1321
g66
(g87
g68
NtRp1322
(dp1323
g71
(dp1324
g91
g92
ssg80
g1318
sg73
(lp1325
S'script_name'
p1326
asbag66
(g87
g68
NtRp1327
(dp1328
g71
(dp1329
g98
g99
ssg80
g1318
sg73
(lp1330
S':'
asbag66
(g87
g68
NtRp1331
(dp1332
g71
(dp1333
sg80
g1318
sg73
(lp1334
g66
(g67
g68
NtRp1335
(dp1336
g71
(dp1337
g79
I4
ssg80
g1331
sg73
(lp1338
S''
asbasbasbag66
(g82
g68
NtRp1339
(dp1340
g71
(dp1341
sg80
g831
sg73
(lp1342
g66
(g87
g68
NtRp1343
(dp1344
g71
(dp1345
g91
g92
ssg80
g1339
sg73
(lp1346
S'server_name'
p1347
asbag66
(g87
g68
NtRp1348
(dp1349
g71
(dp1350
g98
g99
ssg80
g1339
sg73
(lp1351
S':'
asbag66
(g87
g68
NtRp1352
(dp1353
g71
(dp1354
sg80
g1339
sg73
(lp1355
g66
(g67
g68
NtRp1356
(dp1357
g71
(dp1358
g79
I4
ssg80
g1352
sg73
(lp1359
S'games105linux.doomstuff.local'
p1360
asbasbasbag66
(g82
g68
NtRp1361
(dp1362
g71
(dp1363
sg80
g831
sg73
(lp1364
g66
(g87
g68
NtRp1365
(dp1366
g71
(dp1367
g91
g92
ssg80
g1361
sg73
(lp1368
S'server_port'
p1369
asbag66
(g87
g68
NtRp1370
(dp1371
g71
(dp1372
g98
g99
ssg80
g1361
sg73
(lp1373
S':'
asbag66
(g87
g68
NtRp1374
(dp1375
g71
(dp1376
sg80
g1361
sg73
(lp1377
g66
(g67
g68
NtRp1378
(dp1379
g71
(dp1380
g79
I4
ssg80
g1374
sg73
(lp1381
S'8000'
p1382
asbasbasbag66
(g82
g68
NtRp1383
(dp1384
g71
(dp1385
sg80
g831
sg73
(lp1386
g66
(g87
g68
NtRp1387
(dp1388
g71
(dp1389
g91
g92
ssg80
g1383
sg73
(lp1390
S'server_protocol'
p1391
asbag66
(g87
g68
NtRp1392
(dp1393
g71
(dp1394
g98
g99
ssg80
g1383
sg73
(lp1395
S':'
asbag66
(g87
g68
NtRp1396
(dp1397
g71
(dp1398
sg80
g1383
sg73
(lp1399
g66
(g67
g68
NtRp1400
(dp1401
g71
(dp1402
g79
I4
ssg80
g1396
sg73
(lp1403
S'HTTP/1.1'
p1404
asbasbasbag66
(g82
g68
NtRp1405
(dp1406
g71
(dp1407
sg80
g831
sg73
(lp1408
g66
(g87
g68
NtRp1409
(dp1410
g71
(dp1411
g91
g92
ssg80
g1405
sg73
(lp1412
S'server_software'
p1413
asbag66
(g87
g68
NtRp1414
(dp1415
g71
(dp1416
g98
g99
ssg80
g1405
sg73
(lp1417
S':'
asbag66
(g87
g68
NtRp1418
(dp1419
g71
(dp1420
sg80
g1405
sg73
(lp1421
g66
(g67
g68
NtRp1422
(dp1423
g71
(dp1424
g79
I4
ssg80
g1418
sg73
(lp1425
S'Rocket 1.2.4'
p1426
asbasbasbag66
(g82
g68
NtRp1427
(dp1428
g71
(dp1429
sg80
g831
sg73
(lp1430
g66
(g87
g68
NtRp1431
(dp1432
g71
(dp1433
g91
g92
ssg80
g1427
sg73
(lp1434
S'web2py_crontype'
p1435
asbag66
(g87
g68
NtRp1436
(dp1437
g71
(dp1438
g98
g99
ssg80
g1427
sg73
(lp1439
S':'
asbag66
(g87
g68
NtRp1440
(dp1441
g71
(dp1442
sg80
g1427
sg73
(lp1443
g66
(g67
g68
NtRp1444
(dp1445
g71
(dp1446
g79
I4
ssg80
g1440
sg73
(lp1447
S'hard'
p1448
asbasbasbag66
(g82
g68
NtRp1449
(dp1450
g71
(dp1451
sg80
g831
sg73
(lp1452
g66
(g87
g68
NtRp1453
(dp1454
g71
(dp1455
g91
g92
ssg80
g1449
sg73
(lp1456
S'web2py_path'
p1457
asbag66
(g87
g68
NtRp1458
(dp1459
g71
(dp1460
g98
g99
ssg80
g1449
sg73
(lp1461
S':'
asbag66
(g87
g68
NtRp1462
(dp1463
g71
(dp1464
sg80
g1449
sg73
(lp1465
g66
(g67
g68
NtRp1466
(dp1467
g71
(dp1468
g79
I4
ssg80
g1462
sg73
(lp1469
g878
asbasbasbag66
(g82
g68
NtRp1470
(dp1471
g71
(dp1472
sg80
g831
sg73
(lp1473
g66
(g87
g68
NtRp1474
(dp1475
g71
(dp1476
g91
g92
ssg80
g1470
sg73
(lp1477
S'web2py_version'
p1478
asbag66
(g87
g68
NtRp1479
(dp1480
g71
(dp1481
g98
g99
ssg80
g1470
sg73
(lp1482
S':'
asbag66
(g87
g68
NtRp1483
(dp1484
g71
(dp1485
sg80
g1470
sg73
(lp1486
g66
(g67
g68
NtRp1487
(dp1488
g71
(dp1489
g79
I4
ssg80
g1483
sg73
(lp1490
g66
(g75
g68
NtRp1491
(dp1492
g71
(dp1493
g79
I3
ssg80
Nsg73
(lp1494
g66
(g82
g68
NtRp1495
(dp1496
g71
(dp1497
sg80
g1491
sg73
(lp1498
g66
(g87
g68
NtRp1499
(dp1500
g71
(dp1501
sg80
g1495
sg73
(lp1502
g66
(g67
g68
NtRp1503
(dp1504
g71
(dp1505
g79
I3
ssg80
g1499
sg73
(lp1506
S'1'
asbasbasbag66
(g82
g68
NtRp1507
(dp1508
g71
(dp1509
sg80
g1491
sg73
(lp1510
g66
(g87
g68
NtRp1511
(dp1512
g71
(dp1513
sg80
g1507
sg73
(lp1514
g66
(g67
g68
NtRp1515
(dp1516
g71
(dp1517
g79
I3
ssg80
g1511
sg73
(lp1518
S'99'
p1519
asbasbasbag66
(g82
g68
NtRp1520
(dp1521
g71
(dp1522
sg80
g1491
sg73
(lp1523
g66
(g87
g68
NtRp1524
(dp1525
g71
(dp1526
sg80
g1520
sg73
(lp1527
g66
(g67
g68
NtRp1528
(dp1529
g71
(dp1530
g79
I3
ssg80
g1524
sg73
(lp1531
S'2'
asbasbasbag66
(g82
g68
NtRp1532
(dp1533
g71
(dp1534
sg80
g1491
sg73
(lp1535
g66
(g87
g68
NtRp1536
(dp1537
g71
(dp1538
sg80
g1532
sg73
(lp1539
g66
(g67
g68
NtRp1540
(dp1541
g71
(dp1542
g79
I3
ssg80
g1536
sg73
(lp1543
S'datetime.datetime(2011, 9, 26, 6, 55, 33)'
p1544
asbasbasbag66
(g82
g68
NtRp1545
(dp1546
g71
(dp1547
sg80
g1491
sg73
(lp1548
g66
(g87
g68
NtRp1549
(dp1550
g71
(dp1551
sg80
g1545
sg73
(lp1552
g66
(g67
g68
NtRp1553
(dp1554
g71
(dp1555
g79
I3
ssg80
g1549
sg73
(lp1556
S'stable'
p1557
asbasbasbasbasbasbasbag66
(g82
g68
NtRp1558
(dp1559
g71
(dp1560
sg80
g831
sg73
(lp1561
g66
(g87
g68
NtRp1562
(dp1563
g71
(dp1564
g91
g92
ssg80
g1558
sg73
(lp1565
S'wsgi_errors'
p1566
asbag66
(g87
g68
NtRp1567
(dp1568
g71
(dp1569
g98
g99
ssg80
g1558
sg73
(lp1570
S':'
asbag66
(g87
g68
NtRp1571
(dp1572
g71
(dp1573
sg80
g1558
sg73
(lp1574
g66
(g67
g68
NtRp1575
(dp1576
g71
(dp1577
g79
I4
ssg80
g1571
sg73
(lp1578
S"<open file '<stderr>', mode 'w' at 0x7f5e90977270>"
p1579
asbasbasbag66
(g82
g68
NtRp1580
(dp1581
g71
(dp1582
sg80
g831
sg73
(lp1583
g66
(g87
g68
NtRp1584
(dp1585
g71
(dp1586
g91
g92
ssg80
g1580
sg73
(lp1587
S'wsgi_file_wrapper'
p1588
asbag66
(g87
g68
NtRp1589
(dp1590
g71
(dp1591
g98
g99
ssg80
g1580
sg73
(lp1592
S':'
asbag66
(g87
g68
NtRp1593
(dp1594
g71
(dp1595
sg80
g1580
sg73
(lp1596
g66
(g67
g68
NtRp1597
(dp1598
g71
(dp1599
g79
I4
ssg80
g1593
sg73
(lp1600
S'<class wsgiref.util.FileWrapper at 0x2844600>'
p1601
asbasbasbag66
(g82
g68
NtRp1602
(dp1603
g71
(dp1604
sg80
g831
sg73
(lp1605
g66
(g87
g68
NtRp1606
(dp1607
g71
(dp1608
g91
g92
ssg80
g1602
sg73
(lp1609
S'wsgi_input'
p1610
asbag66
(g87
g68
NtRp1611
(dp1612
g71
(dp1613
g98
g99
ssg80
g1602
sg73
(lp1614
S':'
asbag66
(g87
g68
NtRp1615
(dp1616
g71
(dp1617
sg80
g1602
sg73
(lp1618
g66
(g67
g68
NtRp1619
(dp1620
g71
(dp1621
g79
I4
ssg80
g1615
sg73
(lp1622
S'<socket._fileobject object at 0x3283e50>'
p1623
asbasbasbag66
(g82
g68
NtRp1624
(dp1625
g71
(dp1626
sg80
g831
sg73
(lp1627
g66
(g87
g68
NtRp1628
(dp1629
g71
(dp1630
g91
g92
ssg80
g1624
sg73
(lp1631
S'wsgi_multiprocess'
p1632
asbag66
(g87
g68
NtRp1633
(dp1634
g71
(dp1635
g98
g99
ssg80
g1624
sg73
(lp1636
S':'
asbag66
(g87
g68
NtRp1637
(dp1638
g71
(dp1639
sg80
g1624
sg73
(lp1640
g66
(g67
g68
NtRp1641
(dp1642
g71
(dp1643
g79
I4
ssg80
g1637
sg73
(lp1644
g109
asbasbasbag66
(g82
g68
NtRp1645
(dp1646
g71
(dp1647
sg80
g831
sg73
(lp1648
g66
(g87
g68
NtRp1649
(dp1650
g71
(dp1651
g91
g92
ssg80
g1645
sg73
(lp1652
S'wsgi_multithread'
p1653
asbag66
(g87
g68
NtRp1654
(dp1655
g71
(dp1656
g98
g99
ssg80
g1645
sg73
(lp1657
S':'
asbag66
(g87
g68
NtRp1658
(dp1659
g71
(dp1660
sg80
g1645
sg73
(lp1661
g66
(g67
g68
NtRp1662
(dp1663
g71
(dp1664
g79
I4
ssg80
g1658
sg73
(lp1665
S'True'
p1666
asbasbasbag66
(g82
g68
NtRp1667
(dp1668
g71
(dp1669
sg80
g831
sg73
(lp1670
g66
(g87
g68
NtRp1671
(dp1672
g71
(dp1673
g91
g92
ssg80
g1667
sg73
(lp1674
S'wsgi_run_once'
p1675
asbag66
(g87
g68
NtRp1676
(dp1677
g71
(dp1678
g98
g99
ssg80
g1667
sg73
(lp1679
S':'
asbag66
(g87
g68
NtRp1680
(dp1681
g71
(dp1682
sg80
g1667
sg73
(lp1683
g66
(g67
g68
NtRp1684
(dp1685
g71
(dp1686
g79
I4
ssg80
g1680
sg73
(lp1687
g109
asbasbasbag66
(g82
g68
NtRp1688
(dp1689
g71
(dp1690
sg80
g831
sg73
(lp1691
g66
(g87
g68
NtRp1692
(dp1693
g71
(dp1694
g91
g92
ssg80
g1688
sg73
(lp1695
S'wsgi_url_scheme'
p1696
asbag66
(g87
g68
NtRp1697
(dp1698
g71
(dp1699
g98
g99
ssg80
g1688
sg73
(lp1700
S':'
asbag66
(g87
g68
NtRp1701
(dp1702
g71
(dp1703
sg80
g1688
sg73
(lp1704
g66
(g67
g68
NtRp1705
(dp1706
g71
(dp1707
g79
I4
ssg80
g1701
sg73
(lp1708
S'http'
p1709
asbasbasbag66
(g82
g68
NtRp1710
(dp1711
g71
(dp1712
sg80
g831
sg73
(lp1713
g66
(g87
g68
NtRp1714
(dp1715
g71
(dp1716
g91
g92
ssg80
g1710
sg73
(lp1717
S'wsgi_version'
p1718
asbag66
(g87
g68
NtRp1719
(dp1720
g71
(dp1721
g98
g99
ssg80
g1710
sg73
(lp1722
S':'
asbag66
(g87
g68
NtRp1723
(dp1724
g71
(dp1725
sg80
g1710
sg73
(lp1726
g66
(g67
g68
NtRp1727
(dp1728
g71
(dp1729
g79
I4
ssg80
g1723
sg73
(lp1730
g66
(g75
g68
NtRp1731
(dp1732
g71
(dp1733
g79
I3
ssg80
Nsg73
(lp1734
g66
(g82
g68
NtRp1735
(dp1736
g71
(dp1737
sg80
g1731
sg73
(lp1738
g66
(g87
g68
NtRp1739
(dp1740
g71
(dp1741
sg80
g1735
sg73
(lp1742
g66
(g67
g68
NtRp1743
(dp1744
g71
(dp1745
g79
I3
ssg80
g1739
sg73
(lp1746
S'1'
asbasbasbag66
(g82
g68
NtRp1747
(dp1748
g71
(dp1749
sg80
g1731
sg73
(lp1750
g66
(g87
g68
NtRp1751
(dp1752
g71
(dp1753
sg80
g1747
sg73
(lp1754
g66
(g67
g68
NtRp1755
(dp1756
g71
(dp1757
g79
I3
ssg80
g1751
sg73
(lp1758
S'0'
asbasbasbasbasbasbasbasbasbasbasbag66
(g82
g68
NtRp1759
(dp1760
g71
(dp1761
sg80
g76
sg73
(lp1762
g66
(g87
g68
NtRp1763
(dp1764
g71
(dp1765
g91
g92
ssg80
g1759
sg73
(lp1766
S'extension'
p1767
asbag66
(g87
g68
NtRp1768
(dp1769
g71
(dp1770
g98
g99
ssg80
g1759
sg73
(lp1771
S':'
asbag66
(g87
g68
NtRp1772
(dp1773
g71
(dp1774
sg80
g1759
sg73
(lp1775
g66
(g67
g68
NtRp1776
(dp1777
g71
(dp1778
g79
I5
ssg80
g1772
sg73
(lp1779
S'html'
p1780
asbasbasbag66
(g82
g68
NtRp1781
(dp1782
g71
(dp1783
sg80
g76
sg73
(lp1784
g66
(g87
g68
NtRp1785
(dp1786
g71
(dp1787
g91
g92
ssg80
g1781
sg73
(lp1788
S'folder'
p1789
asbag66
(g87
g68
NtRp1790
(dp1791
g71
(dp1792
g98
g99
ssg80
g1781
sg73
(lp1793
S':'
asbag66
(g87
g68
NtRp1794
(dp1795
g71
(dp1796
sg80
g1781
sg73
(lp1797
g66
(g67
g68
NtRp1798
(dp1799
g71
(dp1800
g79
I5
ssg80
g1794
sg73
(lp1801
S'/opt/work/projects/web2py/applications/cass1/'
p1802
asbasbasbag66
(g82
g68
NtRp1803
(dp1804
g71
(dp1805
sg80
g76
sg73
(lp1806
g66
(g87
g68
NtRp1807
(dp1808
g71
(dp1809
g91
g92
ssg80
g1803
sg73
(lp1810
S'function'
p1811
asbag66
(g87
g68
NtRp1812
(dp1813
g71
(dp1814
g98
g99
ssg80
g1803
sg73
(lp1815
S':'
asbag66
(g87
g68
NtRp1816
(dp1817
g71
(dp1818
sg80
g1803
sg73
(lp1819
g66
(g67
g68
NtRp1820
(dp1821
g71
(dp1822
g79
I5
ssg80
g1816
sg73
(lp1823
S'index'
p1824
asbasbasbag66
(g82
g68
NtRp1825
(dp1826
g71
(dp1827
sg80
g76
sg73
(lp1828
g66
(g87
g68
NtRp1829
(dp1830
g71
(dp1831
g91
g92
ssg80
g1825
sg73
(lp1832
S'get_vars'
p1833
asbag66
(g87
g68
NtRp1834
(dp1835
g71
(dp1836
g98
g99
ssg80
g1825
sg73
(lp1837
S':'
asbag66
(g87
g68
NtRp1838
(dp1839
g71
(dp1840
sg80
g1825
sg73
(lp1841
g66
(g67
g68
NtRp1842
(dp1843
g71
(dp1844
g79
I5
ssg80
g1838
sg73
(lp1845
g66
(g75
g68
NtRp1846
(dp1847
g71
(dp1848
g79
I4
ssg80
Nsg73
(lp1849
sbasbasbasbag66
(g82
g68
NtRp1850
(dp1851
g71
(dp1852
sg80
g76
sg73
(lp1853
g66
(g87
g68
NtRp1854
(dp1855
g71
(dp1856
g91
g92
ssg80
g1850
sg73
(lp1857
S'global_settings'
p1858
asbag66
(g87
g68
NtRp1859
(dp1860
g71
(dp1861
g98
g99
ssg80
g1850
sg73
(lp1862
S':'
asbag66
(g87
g68
NtRp1863
(dp1864
g71
(dp1865
sg80
g1850
sg73
(lp1866
g66
(g67
g68
NtRp1867
(dp1868
g71
(dp1869
g79
I5
ssg80
g1863
sg73
(lp1870
g66
(g75
g68
NtRp1871
(dp1872
g71
(dp1873
g79
I4
ssg80
Nsg73
(lp1874
g66
(g82
g68
NtRp1875
(dp1876
g71
(dp1877
sg80
g1871
sg73
(lp1878
g66
(g87
g68
NtRp1879
(dp1880
g71
(dp1881
g91
g92
ssg80
g1875
sg73
(lp1882
g843
asbag66
(g87
g68
NtRp1883
(dp1884
g71
(dp1885
g98
g99
ssg80
g1875
sg73
(lp1886
S':'
asbag66
(g87
g68
NtRp1887
(dp1888
g71
(dp1889
sg80
g1875
sg73
(lp1890
g66
(g67
g68
NtRp1891
(dp1892
g71
(dp1893
g79
I4
ssg80
g1887
sg73
(lp1894
S"set(['/opt/work/projects/web2py/applications/admin/', '/opt/work/projects/web2py/applications/cass1/', '/opt/work/projects/web2py/applications/welcome/'])"
p1895
asbasbasbag66
(g82
g68
NtRp1896
(dp1897
g71
(dp1898
sg80
g1871
sg73
(lp1899
g66
(g87
g68
NtRp1900
(dp1901
g71
(dp1902
g91
g92
ssg80
g1896
sg73
(lp1903
g865
asbag66
(g87
g68
NtRp1904
(dp1905
g71
(dp1906
g98
g99
ssg80
g1896
sg73
(lp1907
S':'
asbag66
(g87
g68
NtRp1908
(dp1909
g71
(dp1910
sg80
g1896
sg73
(lp1911
g66
(g67
g68
NtRp1912
(dp1913
g71
(dp1914
g79
I4
ssg80
g1908
sg73
(lp1915
g878
asbasbasbag66
(g82
g68
NtRp1916
(dp1917
g71
(dp1918
sg80
g1871
sg73
(lp1919
g66
(g87
g68
NtRp1920
(dp1921
g71
(dp1922
g91
g92
ssg80
g1916
sg73
(lp1923
g887
asbag66
(g87
g68
NtRp1924
(dp1925
g71
(dp1926
g98
g99
ssg80
g1916
sg73
(lp1927
S':'
asbag66
(g87
g68
NtRp1928
(dp1929
g71
(dp1930
sg80
g1916
sg73
(lp1931
g66
(g67
g68
NtRp1932
(dp1933
g71
(dp1934
g79
I4
ssg80
g1928
sg73
(lp1935
g66
(g75
g68
NtRp1936
(dp1937
g71
(dp1938
g79
I3
ssg80
Nsg73
(lp1939
sbasbasbasbag66
(g82
g68
NtRp1940
(dp1941
g71
(dp1942
sg80
g1871
sg73
(lp1943
g66
(g87
g68
NtRp1944
(dp1945
g71
(dp1946
g91
g92
ssg80
g1940
sg73
(lp1947
g912
asbag66
(g87
g68
NtRp1948
(dp1949
g71
(dp1950
g98
g99
ssg80
g1940
sg73
(lp1951
S':'
asbag66
(g87
g68
NtRp1952
(dp1953
g71
(dp1954
sg80
g1940
sg73
(lp1955
g66
(g67
g68
NtRp1956
(dp1957
g71
(dp1958
g79
I4
ssg80
g1952
sg73
(lp1959
S"<Values at 0x2cfb8c0: {'verbose': False, 'ip': '127.0.0.1', 'shutdown_timeout': 5, 'taskbar': False, 'nocron': False, 'pid_filename': 'httpserver.pid', 'maxthreads': None, 'softcron': False, 'server_name': 'games105linux.doomstuff.local', 'bpython': False, 'nogui': False, 'port': 8000, 'extcron': False, 'debuglevel': 30, 'test': None, 'folder': '/opt/work/projects/web2py', 'config': '', 'import_models': False, 'winservice': '', 'shell': None, 'run': '', 'log_filename': 'httpserver.log', 'args': [''], 'ssl_ca_certificate': None, 'scheduler': None, 'profiler_filename': None, 'ssl_private_key': '', 'password': 'testing', 'request_queue_size': 5, 'ssl_certificate': '', 'cronjob': False, 'plain': False, 'quiet': False, 'interfaces': None, 'minthreads': None, 'timeout': 10, 'numthreads': None, 'nobanner': False}>"
p1960
asbasbasbag66
(g82
g68
NtRp1961
(dp1962
g71
(dp1963
sg80
g1871
sg73
(lp1964
g66
(g87
g68
NtRp1965
(dp1966
g71
(dp1967
g91
g92
ssg80
g1961
sg73
(lp1968
g934
asbag66
(g87
g68
NtRp1969
(dp1970
g71
(dp1971
g98
g99
ssg80
g1961
sg73
(lp1972
S':'
asbag66
(g87
g68
NtRp1973
(dp1974
g71
(dp1975
sg80
g1961
sg73
(lp1976
g66
(g67
g68
NtRp1977
(dp1978
g71
(dp1979
g79
I4
ssg80
g1973
sg73
(lp1980
S'set([])'
p1981
asbasbasbag66
(g82
g68
NtRp1982
(dp1983
g71
(dp1984
sg80
g1871
sg73
(lp1985
g66
(g87
g68
NtRp1986
(dp1987
g71
(dp1988
g91
g92
ssg80
g1982
sg73
(lp1989
g956
asbag66
(g87
g68
NtRp1990
(dp1991
g71
(dp1992
g98
g99
ssg80
g1982
sg73
(lp1993
S':'
asbag66
(g87
g68
NtRp1994
(dp1995
g71
(dp1996
sg80
g1982
sg73
(lp1997
g66
(g67
g68
NtRp1998
(dp1999
g71
(dp2000
g79
I4
ssg80
g1994
sg73
(lp2001
g109
asbasbasbag66
(g82
g68
NtRp2002
(dp2003
g71
(dp2004
sg80
g1871
sg73
(lp2005
g66
(g87
g68
NtRp2006
(dp2007
g71
(dp2008
g91
g92
ssg80
g2002
sg73
(lp2009
g977
asbag66
(g87
g68
NtRp2010
(dp2011
g71
(dp2012
g98
g99
ssg80
g2002
sg73
(lp2013
S':'
asbag66
(g87
g68
NtRp2014
(dp2015
g71
(dp2016
sg80
g2002
sg73
(lp2017
g66
(g67
g68
NtRp2018
(dp2019
g71
(dp2020
g79
I4
ssg80
g2014
sg73
(lp2021
g990
asbasbasbag66
(g82
g68
NtRp2022
(dp2023
g71
(dp2024
sg80
g1871
sg73
(lp2025
g66
(g87
g68
NtRp2026
(dp2027
g71
(dp2028
g91
g92
ssg80
g2022
sg73
(lp2029
g1197
asbag66
(g87
g68
NtRp2030
(dp2031
g71
(dp2032
g98
g99
ssg80
g2022
sg73
(lp2033
S':'
asbag66
(g87
g68
NtRp2034
(dp2035
g71
(dp2036
sg80
g2022
sg73
(lp2037
g66
(g67
g68
NtRp2038
(dp2039
g71
(dp2040
g79
I4
ssg80
g2034
sg73
(lp2041
g109
asbasbasbag66
(g82
g68
NtRp2042
(dp2043
g71
(dp2044
sg80
g1871
sg73
(lp2045
g66
(g87
g68
NtRp2046
(dp2047
g71
(dp2048
g91
g92
ssg80
g2042
sg73
(lp2049
g1435
asbag66
(g87
g68
NtRp2050
(dp2051
g71
(dp2052
g98
g99
ssg80
g2042
sg73
(lp2053
S':'
asbag66
(g87
g68
NtRp2054
(dp2055
g71
(dp2056
sg80
g2042
sg73
(lp2057
g66
(g67
g68
NtRp2058
(dp2059
g71
(dp2060
g79
I4
ssg80
g2054
sg73
(lp2061
g1448
asbasbasbag66
(g82
g68
NtRp2062
(dp2063
g71
(dp2064
sg80
g1871
sg73
(lp2065
g66
(g87
g68
NtRp2066
(dp2067
g71
(dp2068
g91
g92
ssg80
g2062
sg73
(lp2069
g1478
asbag66
(g87
g68
NtRp2070
(dp2071
g71
(dp2072
g98
g99
ssg80
g2062
sg73
(lp2073
S':'
asbag66
(g87
g68
NtRp2074
(dp2075
g71
(dp2076
sg80
g2062
sg73
(lp2077
g66
(g67
g68
NtRp2078
(dp2079
g71
(dp2080
g79
I4
ssg80
g2074
sg73
(lp2081
g66
(g75
g68
NtRp2082
(dp2083
g71
(dp2084
g79
I3
ssg80
Nsg73
(lp2085
g66
(g82
g68
NtRp2086
(dp2087
g71
(dp2088
sg80
g2082
sg73
(lp2089
g66
(g87
g68
NtRp2090
(dp2091
g71
(dp2092
sg80
g2086
sg73
(lp2093
g66
(g67
g68
NtRp2094
(dp2095
g71
(dp2096
g79
I3
ssg80
g2090
sg73
(lp2097
S'1'
asbasbasbag66
(g82
g68
NtRp2098
(dp2099
g71
(dp2100
sg80
g2082
sg73
(lp2101
g66
(g87
g68
NtRp2102
(dp2103
g71
(dp2104
sg80
g2098
sg73
(lp2105
g66
(g67
g68
NtRp2106
(dp2107
g71
(dp2108
g79
I3
ssg80
g2102
sg73
(lp2109
S'99'
p2110
asbasbasbag66
(g82
g68
NtRp2111
(dp2112
g71
(dp2113
sg80
g2082
sg73
(lp2114
g66
(g87
g68
NtRp2115
(dp2116
g71
(dp2117
sg80
g2111
sg73
(lp2118
g66
(g67
g68
NtRp2119
(dp2120
g71
(dp2121
g79
I3
ssg80
g2115
sg73
(lp2122
S'2'
asbasbasbag66
(g82
g68
NtRp2123
(dp2124
g71
(dp2125
sg80
g2082
sg73
(lp2126
g66
(g87
g68
NtRp2127
(dp2128
g71
(dp2129
sg80
g2123
sg73
(lp2130
g66
(g67
g68
NtRp2131
(dp2132
g71
(dp2133
g79
I3
ssg80
g2127
sg73
(lp2134
S'datetime.datetime(2011, 9, 26, 6, 55, 33)'
p2135
asbasbasbag66
(g82
g68
NtRp2136
(dp2137
g71
(dp2138
sg80
g2082
sg73
(lp2139
g66
(g87
g68
NtRp2140
(dp2141
g71
(dp2142
sg80
g2136
sg73
(lp2143
g66
(g67
g68
NtRp2144
(dp2145
g71
(dp2146
g79
I3
ssg80
g2140
sg73
(lp2147
g1557
asbasbasbasbasbasbasbasbasbasbasbag66
(g82
g68
NtRp2148
(dp2149
g71
(dp2150
sg80
g76
sg73
(lp2151
g66
(g87
g68
NtRp2152
(dp2153
g71
(dp2154
g91
g92
ssg80
g2148
sg73
(lp2155
S'is_https'
p2156
asbag66
(g87
g68
NtRp2157
(dp2158
g71
(dp2159
g98
g99
ssg80
g2148
sg73
(lp2160
S':'
asbag66
(g87
g68
NtRp2161
(dp2162
g71
(dp2163
sg80
g2148
sg73
(lp2164
g66
(g67
g68
NtRp2165
(dp2166
g71
(dp2167
g79
I5
ssg80
g2161
sg73
(lp2168
g109
asbasbasbag66
(g82
g68
NtRp2169
(dp2170
g71
(dp2171
sg80
g76
sg73
(lp2172
g66
(g87
g68
NtRp2173
(dp2174
g71
(dp2175
g91
g92
ssg80
g2169
sg73
(lp2176
S'is_local'
p2177
asbag66
(g87
g68
NtRp2178
(dp2179
g71
(dp2180
g98
g99
ssg80
g2169
sg73
(lp2181
S':'
asbag66
(g87
g68
NtRp2182
(dp2183
g71
(dp2184
sg80
g2169
sg73
(lp2185
g66
(g67
g68
NtRp2186
(dp2187
g71
(dp2188
g79
I5
ssg80
g2182
sg73
(lp2189
g1666
asbasbasbag66
(g82
g68
NtRp2190
(dp2191
g71
(dp2192
sg80
g76
sg73
(lp2193
g66
(g87
g68
NtRp2194
(dp2195
g71
(dp2196
g91
g92
ssg80
g2190
sg73
(lp2197
S'is_restful'
p2198
asbag66
(g87
g68
NtRp2199
(dp2200
g71
(dp2201
g98
g99
ssg80
g2190
sg73
(lp2202
S':'
asbag66
(g87
g68
NtRp2203
(dp2204
g71
(dp2205
sg80
g2190
sg73
(lp2206
g66
(g67
g68
NtRp2207
(dp2208
g71
(dp2209
g79
I5
ssg80
g2203
sg73
(lp2210
g109
asbasbasbag66
(g82
g68
NtRp2211
(dp2212
g71
(dp2213
sg80
g76
sg73
(lp2214
g66
(g87
g68
NtRp2215
(dp2216
g71
(dp2217
g91
g92
ssg80
g2211
sg73
(lp2218
S'now'
p2219
asbag66
(g87
g68
NtRp2220
(dp2221
g71
(dp2222
g98
g99
ssg80
g2211
sg73
(lp2223
S':'
asbag66
(g87
g68
NtRp2224
(dp2225
g71
(dp2226
sg80
g2211
sg73
(lp2227
g66
(g67
g68
NtRp2228
(dp2229
g71
(dp2230
g79
I5
ssg80
g2224
sg73
(lp2231
S'datetime.datetime(2011, 11, 29, 19, 50, 18, 881504)'
p2232
asbasbasbag66
(g82
g68
NtRp2233
(dp2234
g71
(dp2235
sg80
g76
sg73
(lp2236
g66
(g87
g68
NtRp2237
(dp2238
g71
(dp2239
g91
g92
ssg80
g2233
sg73
(lp2240
S'post_vars'
p2241
asbag66
(g87
g68
NtRp2242
(dp2243
g71
(dp2244
g98
g99
ssg80
g2233
sg73
(lp2245
S':'
asbag66
(g87
g68
NtRp2246
(dp2247
g71
(dp2248
sg80
g2233
sg73
(lp2249
g66
(g67
g68
NtRp2250
(dp2251
g71
(dp2252
g79
I5
ssg80
g2246
sg73
(lp2253
g66
(g75
g68
NtRp2254
(dp2255
g71
(dp2256
g79
I4
ssg80
Nsg73
(lp2257
sbasbasbasbag66
(g82
g68
NtRp2258
(dp2259
g71
(dp2260
sg80
g76
sg73
(lp2261
g66
(g87
g68
NtRp2262
(dp2263
g71
(dp2264
g91
g92
ssg80
g2258
sg73
(lp2265
S'url'
p2266
asbag66
(g87
g68
NtRp2267
(dp2268
g71
(dp2269
g98
g99
ssg80
g2258
sg73
(lp2270
S':'
asbag66
(g87
g68
NtRp2271
(dp2272
g71
(dp2273
sg80
g2258
sg73
(lp2274
g66
(g67
g68
NtRp2275
(dp2276
g71
(dp2277
g79
I5
ssg80
g2271
sg73
(lp2278
S'/cass1/cass_mgr/index'
p2279
asbasbasbag66
(g82
g68
NtRp2280
(dp2281
g71
(dp2282
sg80
g76
sg73
(lp2283
g66
(g87
g68
NtRp2284
(dp2285
g71
(dp2286
g91
g92
ssg80
g2280
sg73
(lp2287
S'utcnow'
p2288
asbag66
(g87
g68
NtRp2289
(dp2290
g71
(dp2291
g98
g99
ssg80
g2280
sg73
(lp2292
S':'
asbag66
(g87
g68
NtRp2293
(dp2294
g71
(dp2295
sg80
g2280
sg73
(lp2296
g66
(g67
g68
NtRp2297
(dp2298
g71
(dp2299
g79
I5
ssg80
g2293
sg73
(lp2300
S'datetime.datetime(2011, 11, 29, 19, 50, 18, 881528)'
p2301
asbasbasbag66
(g82
g68
NtRp2302
(dp2303
g71
(dp2304
sg80
g76
sg73
(lp2305
g66
(g87
g68
NtRp2306
(dp2307
g71
(dp2308
g91
g92
ssg80
g2302
sg73
(lp2309
S'uuid'
p2310
asbag66
(g87
g68
NtRp2311
(dp2312
g71
(dp2313
g98
g99
ssg80
g2302
sg73
(lp2314
S':'
asbag66
(g87
g68
NtRp2315
(dp2316
g71
(dp2317
sg80
g2302
sg73
(lp2318
g66
(g67
g68
NtRp2319
(dp2320
g71
(dp2321
g79
I5
ssg80
g2315
sg73
(lp2322
S'cass1/127.0.0.1.2011-11-29.19-50-18.3fae6a76-b810-41ab-9c96-7ccc07bc67c0'
p2323
asbasbasbag66
(g82
g68
NtRp2324
(dp2325
g71
(dp2326
sg80
g76
sg73
(lp2327
g66
(g87
g68
NtRp2328
(dp2329
g71
(dp2330
g91
g92
ssg80
g2324
sg73
(lp2331
S'vars'
p2332
asbag66
(g87
g68
NtRp2333
(dp2334
g71
(dp2335
g98
g99
ssg80
g2324
sg73
(lp2336
S':'
asbag66
(g87
g68
NtRp2337
(dp2338
g71
(dp2339
sg80
g2324
sg73
(lp2340
g66
(g67
g68
NtRp2341
(dp2342
g71
(dp2343
g79
I5
ssg80
g2337
sg73
(lp2344
g66
(g75
g68
NtRp2345
(dp2346
g71
(dp2347
g79
I4
ssg80
Nsg73
(lp2348
sbasbasbasbag66
(g82
g68
NtRp2349
(dp2350
g71
(dp2351
sg80
g76
sg73
(lp2352
g66
(g87
g68
NtRp2353
(dp2354
g71
(dp2355
g91
g92
ssg80
g2349
sg73
(lp2356
S'wsgi'
p2357
asbag66
(g87
g68
NtRp2358
(dp2359
g71
(dp2360
g98
g99
ssg80
g2349
sg73
(lp2361
S':'
asbag66
(g87
g68
NtRp2362
(dp2363
g71
(dp2364
sg80
g2349
sg73
(lp2365
g66
(g67
g68
NtRp2366
(dp2367
g71
(dp2368
g79
I5
ssg80
g2362
sg73
(lp2369
g66
(g75
g68
NtRp2370
(dp2371
g71
(dp2372
g79
I4
ssg80
Nsg73
(lp2373
g66
(g82
g68
NtRp2374
(dp2375
g71
(dp2376
sg80
g2370
sg73
(lp2377
g66
(g87
g68
NtRp2378
(dp2379
g71
(dp2380
g91
g92
ssg80
g2374
sg73
(lp2381
S'environ'
p2382
asbag66
(g87
g68
NtRp2383
(dp2384
g71
(dp2385
g98
g99
ssg80
g2374
sg73
(lp2386
S':'
asbag66
(g87
g68
NtRp2387
(dp2388
g71
(dp2389
sg80
g2374
sg73
(lp2390
g66
(g67
g68
NtRp2391
(dp2392
g71
(dp2393
g79
I4
ssg80
g2387
sg73
(lp2394
g66
(g75
g68
NtRp2395
(dp2396
g71
(dp2397
g79
I3
ssg80
Nsg73
(lp2398
g66
(g82
g68
NtRp2399
(dp2400
g71
(dp2401
sg80
g2395
sg73
(lp2402
g66
(g87
g68
NtRp2403
(dp2404
g71
(dp2405
g91
g92
ssg80
g2399
sg73
(lp2406
S'HTTP_ACCEPT'
p2407
asbag66
(g87
g68
NtRp2408
(dp2409
g71
(dp2410
g98
g99
ssg80
g2399
sg73
(lp2411
S':'
asbag66
(g87
g68
NtRp2412
(dp2413
g71
(dp2414
sg80
g2399
sg73
(lp2415
g66
(g67
g68
NtRp2416
(dp2417
g71
(dp2418
g79
I3
ssg80
g2412
sg73
(lp2419
g1012
asbasbasbag66
(g82
g68
NtRp2420
(dp2421
g71
(dp2422
sg80
g2395
sg73
(lp2423
g66
(g87
g68
NtRp2424
(dp2425
g71
(dp2426
g91
g92
ssg80
g2420
sg73
(lp2427
S'HTTP_ACCEPT_CHARSET'
p2428
asbag66
(g87
g68
NtRp2429
(dp2430
g71
(dp2431
g98
g99
ssg80
g2420
sg73
(lp2432
S':'
asbag66
(g87
g68
NtRp2433
(dp2434
g71
(dp2435
sg80
g2420
sg73
(lp2436
g66
(g67
g68
NtRp2437
(dp2438
g71
(dp2439
g79
I3
ssg80
g2433
sg73
(lp2440
g1034
asbasbasbag66
(g82
g68
NtRp2441
(dp2442
g71
(dp2443
sg80
g2395
sg73
(lp2444
g66
(g87
g68
NtRp2445
(dp2446
g71
(dp2447
g91
g92
ssg80
g2441
sg73
(lp2448
S'HTTP_ACCEPT_ENCODING'
p2449
asbag66
(g87
g68
NtRp2450
(dp2451
g71
(dp2452
g98
g99
ssg80
g2441
sg73
(lp2453
S':'
asbag66
(g87
g68
NtRp2454
(dp2455
g71
(dp2456
sg80
g2441
sg73
(lp2457
g66
(g67
g68
NtRp2458
(dp2459
g71
(dp2460
g79
I3
ssg80
g2454
sg73
(lp2461
g1056
asbasbasbag66
(g82
g68
NtRp2462
(dp2463
g71
(dp2464
sg80
g2395
sg73
(lp2465
g66
(g87
g68
NtRp2466
(dp2467
g71
(dp2468
g91
g92
ssg80
g2462
sg73
(lp2469
S'HTTP_ACCEPT_LANGUAGE'
p2470
asbag66
(g87
g68
NtRp2471
(dp2472
g71
(dp2473
g98
g99
ssg80
g2462
sg73
(lp2474
S':'
asbag66
(g87
g68
NtRp2475
(dp2476
g71
(dp2477
sg80
g2462
sg73
(lp2478
g66
(g67
g68
NtRp2479
(dp2480
g71
(dp2481
g79
I3
ssg80
g2475
sg73
(lp2482
g1078
asbasbasbag66
(g82
g68
NtRp2483
(dp2484
g71
(dp2485
sg80
g2395
sg73
(lp2486
g66
(g87
g68
NtRp2487
(dp2488
g71
(dp2489
g91
g92
ssg80
g2483
sg73
(lp2490
S'HTTP_CONNECTION'
p2491
asbag66
(g87
g68
NtRp2492
(dp2493
g71
(dp2494
g98
g99
ssg80
g2483
sg73
(lp2495
S':'
asbag66
(g87
g68
NtRp2496
(dp2497
g71
(dp2498
sg80
g2483
sg73
(lp2499
g66
(g67
g68
NtRp2500
(dp2501
g71
(dp2502
g79
I3
ssg80
g2496
sg73
(lp2503
g1100
asbasbasbag66
(g82
g68
NtRp2504
(dp2505
g71
(dp2506
sg80
g2395
sg73
(lp2507
g66
(g87
g68
NtRp2508
(dp2509
g71
(dp2510
g91
g92
ssg80
g2504
sg73
(lp2511
S'HTTP_COOKIE'
p2512
asbag66
(g87
g68
NtRp2513
(dp2514
g71
(dp2515
g98
g99
ssg80
g2504
sg73
(lp2516
S':'
asbag66
(g87
g68
NtRp2517
(dp2518
g71
(dp2519
sg80
g2504
sg73
(lp2520
g66
(g67
g68
NtRp2521
(dp2522
g71
(dp2523
g79
I3
ssg80
g2517
sg73
(lp2524
g1122
asbasbasbag66
(g82
g68
NtRp2525
(dp2526
g71
(dp2527
sg80
g2395
sg73
(lp2528
g66
(g87
g68
NtRp2529
(dp2530
g71
(dp2531
g91
g92
ssg80
g2525
sg73
(lp2532
S'HTTP_HOST'
p2533
asbag66
(g87
g68
NtRp2534
(dp2535
g71
(dp2536
g98
g99
ssg80
g2525
sg73
(lp2537
S':'
asbag66
(g87
g68
NtRp2538
(dp2539
g71
(dp2540
sg80
g2525
sg73
(lp2541
g66
(g67
g68
NtRp2542
(dp2543
g71
(dp2544
g79
I3
ssg80
g2538
sg73
(lp2545
g1144
asbasbasbag66
(g82
g68
NtRp2546
(dp2547
g71
(dp2548
sg80
g2395
sg73
(lp2549
g66
(g87
g68
NtRp2550
(dp2551
g71
(dp2552
g91
g92
ssg80
g2546
sg73
(lp2553
S'HTTP_REFERER'
p2554
asbag66
(g87
g68
NtRp2555
(dp2556
g71
(dp2557
g98
g99
ssg80
g2546
sg73
(lp2558
S':'
asbag66
(g87
g68
NtRp2559
(dp2560
g71
(dp2561
sg80
g2546
sg73
(lp2562
g66
(g67
g68
NtRp2563
(dp2564
g71
(dp2565
g79
I3
ssg80
g2559
sg73
(lp2566
g1166
asbasbasbag66
(g82
g68
NtRp2567
(dp2568
g71
(dp2569
sg80
g2395
sg73
(lp2570
g66
(g87
g68
NtRp2571
(dp2572
g71
(dp2573
g91
g92
ssg80
g2567
sg73
(lp2574
S'HTTP_USER_AGENT'
p2575
asbag66
(g87
g68
NtRp2576
(dp2577
g71
(dp2578
g98
g99
ssg80
g2567
sg73
(lp2579
S':'
asbag66
(g87
g68
NtRp2580
(dp2581
g71
(dp2582
sg80
g2567
sg73
(lp2583
g66
(g67
g68
NtRp2584
(dp2585
g71
(dp2586
g79
I3
ssg80
g2580
sg73
(lp2587
g1188
asbasbasbag66
(g82
g68
NtRp2588
(dp2589
g71
(dp2590
sg80
g2395
sg73
(lp2591
g66
(g87
g68
NtRp2592
(dp2593
g71
(dp2594
g91
g92
ssg80
g2588
sg73
(lp2595
S'PATH_INFO'
p2596
asbag66
(g87
g68
NtRp2597
(dp2598
g71
(dp2599
g98
g99
ssg80
g2588
sg73
(lp2600
S':'
asbag66
(g87
g68
NtRp2601
(dp2602
g71
(dp2603
sg80
g2588
sg73
(lp2604
g66
(g67
g68
NtRp2605
(dp2606
g71
(dp2607
g79
I3
ssg80
g2601
sg73
(lp2608
g1231
asbasbasbag66
(g82
g68
NtRp2609
(dp2610
g71
(dp2611
sg80
g2395
sg73
(lp2612
g66
(g87
g68
NtRp2613
(dp2614
g71
(dp2615
g91
g92
ssg80
g2609
sg73
(lp2616
S'QUERY_STRING'
p2617
asbag66
(g87
g68
NtRp2618
(dp2619
g71
(dp2620
g98
g99
ssg80
g2609
sg73
(lp2621
S':'
asbag66
(g87
g68
NtRp2622
(dp2623
g71
(dp2624
sg80
g2609
sg73
(lp2625
g66
(g67
g68
NtRp2626
(dp2627
g71
(dp2628
g79
I3
ssg80
g2622
sg73
(lp2629
S''
asbasbasbag66
(g82
g68
NtRp2630
(dp2631
g71
(dp2632
sg80
g2395
sg73
(lp2633
g66
(g87
g68
NtRp2634
(dp2635
g71
(dp2636
g91
g92
ssg80
g2630
sg73
(lp2637
S'REMOTE_ADDR'
p2638
asbag66
(g87
g68
NtRp2639
(dp2640
g71
(dp2641
g98
g99
ssg80
g2630
sg73
(lp2642
S':'
asbag66
(g87
g68
NtRp2643
(dp2644
g71
(dp2645
sg80
g2630
sg73
(lp2646
g66
(g67
g68
NtRp2647
(dp2648
g71
(dp2649
g79
I3
ssg80
g2643
sg73
(lp2650
g199
asbasbasbag66
(g82
g68
NtRp2651
(dp2652
g71
(dp2653
sg80
g2395
sg73
(lp2654
g66
(g87
g68
NtRp2655
(dp2656
g71
(dp2657
g91
g92
ssg80
g2651
sg73
(lp2658
S'REMOTE_PORT'
p2659
asbag66
(g87
g68
NtRp2660
(dp2661
g71
(dp2662
g98
g99
ssg80
g2651
sg73
(lp2663
S':'
asbag66
(g87
g68
NtRp2664
(dp2665
g71
(dp2666
sg80
g2651
sg73
(lp2667
g66
(g67
g68
NtRp2668
(dp2669
g71
(dp2670
g79
I3
ssg80
g2664
sg73
(lp2671
g1295
asbasbasbag66
(g82
g68
NtRp2672
(dp2673
g71
(dp2674
sg80
g2395
sg73
(lp2675
g66
(g87
g68
NtRp2676
(dp2677
g71
(dp2678
g91
g92
ssg80
g2672
sg73
(lp2679
S'REQUEST_METHOD'
p2680
asbag66
(g87
g68
NtRp2681
(dp2682
g71
(dp2683
g98
g99
ssg80
g2672
sg73
(lp2684
S':'
asbag66
(g87
g68
NtRp2685
(dp2686
g71
(dp2687
sg80
g2672
sg73
(lp2688
g66
(g67
g68
NtRp2689
(dp2690
g71
(dp2691
g79
I3
ssg80
g2685
sg73
(lp2692
g1317
asbasbasbag66
(g82
g68
NtRp2693
(dp2694
g71
(dp2695
sg80
g2395
sg73
(lp2696
g66
(g87
g68
NtRp2697
(dp2698
g71
(dp2699
g91
g92
ssg80
g2693
sg73
(lp2700
S'SCRIPT_NAME'
p2701
asbag66
(g87
g68
NtRp2702
(dp2703
g71
(dp2704
g98
g99
ssg80
g2693
sg73
(lp2705
S':'
asbag66
(g87
g68
NtRp2706
(dp2707
g71
(dp2708
sg80
g2693
sg73
(lp2709
g66
(g67
g68
NtRp2710
(dp2711
g71
(dp2712
g79
I3
ssg80
g2706
sg73
(lp2713
S''
asbasbasbag66
(g82
g68
NtRp2714
(dp2715
g71
(dp2716
sg80
g2395
sg73
(lp2717
g66
(g87
g68
NtRp2718
(dp2719
g71
(dp2720
g91
g92
ssg80
g2714
sg73
(lp2721
S'SERVER_NAME'
p2722
asbag66
(g87
g68
NtRp2723
(dp2724
g71
(dp2725
g98
g99
ssg80
g2714
sg73
(lp2726
S':'
asbag66
(g87
g68
NtRp2727
(dp2728
g71
(dp2729
sg80
g2714
sg73
(lp2730
g66
(g67
g68
NtRp2731
(dp2732
g71
(dp2733
g79
I3
ssg80
g2727
sg73
(lp2734
g1360
asbasbasbag66
(g82
g68
NtRp2735
(dp2736
g71
(dp2737
sg80
g2395
sg73
(lp2738
g66
(g87
g68
NtRp2739
(dp2740
g71
(dp2741
g91
g92
ssg80
g2735
sg73
(lp2742
S'SERVER_PORT'
p2743
asbag66
(g87
g68
NtRp2744
(dp2745
g71
(dp2746
g98
g99
ssg80
g2735
sg73
(lp2747
S':'
asbag66
(g87
g68
NtRp2748
(dp2749
g71
(dp2750
sg80
g2735
sg73
(lp2751
g66
(g67
g68
NtRp2752
(dp2753
g71
(dp2754
g79
I3
ssg80
g2748
sg73
(lp2755
g1382
asbasbasbag66
(g82
g68
NtRp2756
(dp2757
g71
(dp2758
sg80
g2395
sg73
(lp2759
g66
(g87
g68
NtRp2760
(dp2761
g71
(dp2762
g91
g92
ssg80
g2756
sg73
(lp2763
S'SERVER_PROTOCOL'
p2764
asbag66
(g87
g68
NtRp2765
(dp2766
g71
(dp2767
g98
g99
ssg80
g2756
sg73
(lp2768
S':'
asbag66
(g87
g68
NtRp2769
(dp2770
g71
(dp2771
sg80
g2756
sg73
(lp2772
g66
(g67
g68
NtRp2773
(dp2774
g71
(dp2775
g79
I3
ssg80
g2769
sg73
(lp2776
g1404
asbasbasbag66
(g82
g68
NtRp2777
(dp2778
g71
(dp2779
sg80
g2395
sg73
(lp2780
g66
(g87
g68
NtRp2781
(dp2782
g71
(dp2783
g91
g92
ssg80
g2777
sg73
(lp2784
S'SERVER_SOFTWARE'
p2785
asbag66
(g87
g68
NtRp2786
(dp2787
g71
(dp2788
g98
g99
ssg80
g2777
sg73
(lp2789
S':'
asbag66
(g87
g68
NtRp2790
(dp2791
g71
(dp2792
sg80
g2777
sg73
(lp2793
g66
(g67
g68
NtRp2794
(dp2795
g71
(dp2796
g79
I3
ssg80
g2790
sg73
(lp2797
g1426
asbasbasbag66
(g82
g68
NtRp2798
(dp2799
g71
(dp2800
sg80
g2395
sg73
(lp2801
g66
(g87
g68
NtRp2802
(dp2803
g71
(dp2804
g91
g92
ssg80
g2798
sg73
(lp2805
S'wsgi.errors'
p2806
asbag66
(g87
g68
NtRp2807
(dp2808
g71
(dp2809
g98
g99
ssg80
g2798
sg73
(lp2810
S':'
asbag66
(g87
g68
NtRp2811
(dp2812
g71
(dp2813
sg80
g2798
sg73
(lp2814
g66
(g67
g68
NtRp2815
(dp2816
g71
(dp2817
g79
I3
ssg80
g2811
sg73
(lp2818
S"<open file '<stderr>', mode 'w' at 0x7f5e90977270>"
p2819
asbasbasbag66
(g82
g68
NtRp2820
(dp2821
g71
(dp2822
sg80
g2395
sg73
(lp2823
g66
(g87
g68
NtRp2824
(dp2825
g71
(dp2826
g91
g92
ssg80
g2820
sg73
(lp2827
S'wsgi.file_wrapper'
p2828
asbag66
(g87
g68
NtRp2829
(dp2830
g71
(dp2831
g98
g99
ssg80
g2820
sg73
(lp2832
S':'
asbag66
(g87
g68
NtRp2833
(dp2834
g71
(dp2835
sg80
g2820
sg73
(lp2836
g66
(g67
g68
NtRp2837
(dp2838
g71
(dp2839
g79
I3
ssg80
g2833
sg73
(lp2840
S'<class wsgiref.util.FileWrapper at 0x2844600>'
p2841
asbasbasbag66
(g82
g68
NtRp2842
(dp2843
g71
(dp2844
sg80
g2395
sg73
(lp2845
g66
(g87
g68
NtRp2846
(dp2847
g71
(dp2848
g91
g92
ssg80
g2842
sg73
(lp2849
S'wsgi.input'
p2850
asbag66
(g87
g68
NtRp2851
(dp2852
g71
(dp2853
g98
g99
ssg80
g2842
sg73
(lp2854
S':'
asbag66
(g87
g68
NtRp2855
(dp2856
g71
(dp2857
sg80
g2842
sg73
(lp2858
g66
(g67
g68
NtRp2859
(dp2860
g71
(dp2861
g79
I3
ssg80
g2855
sg73
(lp2862
S'<cStringIO.StringO object at 0x2f411b8>'
p2863
asbasbasbag66
(g82
g68
NtRp2864
(dp2865
g71
(dp2866
sg80
g2395
sg73
(lp2867
g66
(g87
g68
NtRp2868
(dp2869
g71
(dp2870
g91
g92
ssg80
g2864
sg73
(lp2871
S'wsgi.multiprocess'
p2872
asbag66
(g87
g68
NtRp2873
(dp2874
g71
(dp2875
g98
g99
ssg80
g2864
sg73
(lp2876
S':'
asbag66
(g87
g68
NtRp2877
(dp2878
g71
(dp2879
sg80
g2864
sg73
(lp2880
g66
(g67
g68
NtRp2881
(dp2882
g71
(dp2883
g79
I3
ssg80
g2877
sg73
(lp2884
g109
asbasbasbag66
(g82
g68
NtRp2885
(dp2886
g71
(dp2887
sg80
g2395
sg73
(lp2888
g66
(g87
g68
NtRp2889
(dp2890
g71
(dp2891
g91
g92
ssg80
g2885
sg73
(lp2892
S'wsgi.multithread'
p2893
asbag66
(g87
g68
NtRp2894
(dp2895
g71
(dp2896
g98
g99
ssg80
g2885
sg73
(lp2897
S':'
asbag66
(g87
g68
NtRp2898
(dp2899
g71
(dp2900
sg80
g2885
sg73
(lp2901
g66
(g67
g68
NtRp2902
(dp2903
g71
(dp2904
g79
I3
ssg80
g2898
sg73
(lp2905
g1666
asbasbasbag66
(g82
g68
NtRp2906
(dp2907
g71
(dp2908
sg80
g2395
sg73
(lp2909
g66
(g87
g68
NtRp2910
(dp2911
g71
(dp2912
g91
g92
ssg80
g2906
sg73
(lp2913
S'wsgi.run_once'
p2914
asbag66
(g87
g68
NtRp2915
(dp2916
g71
(dp2917
g98
g99
ssg80
g2906
sg73
(lp2918
S':'
asbag66
(g87
g68
NtRp2919
(dp2920
g71
(dp2921
sg80
g2906
sg73
(lp2922
g66
(g67
g68
NtRp2923
(dp2924
g71
(dp2925
g79
I3
ssg80
g2919
sg73
(lp2926
g109
asbasbasbag66
(g82
g68
NtRp2927
(dp2928
g71
(dp2929
sg80
g2395
sg73
(lp2930
g66
(g87
g68
NtRp2931
(dp2932
g71
(dp2933
g91
g92
ssg80
g2927
sg73
(lp2934
S'wsgi.url_scheme'
p2935
asbag66
(g87
g68
NtRp2936
(dp2937
g71
(dp2938
g98
g99
ssg80
g2927
sg73
(lp2939
S':'
asbag66
(g87
g68
NtRp2940
(dp2941
g71
(dp2942
sg80
g2927
sg73
(lp2943
g66
(g67
g68
NtRp2944
(dp2945
g71
(dp2946
g79
I3
ssg80
g2940
sg73
(lp2947
g1709
asbasbasbag66
(g82
g68
NtRp2948
(dp2949
g71
(dp2950
sg80
g2395
sg73
(lp2951
g66
(g87
g68
NtRp2952
(dp2953
g71
(dp2954
g91
g92
ssg80
g2948
sg73
(lp2955
S'wsgi.version'
p2956
asbag66
(g87
g68
NtRp2957
(dp2958
g71
(dp2959
g98
g99
ssg80
g2948
sg73
(lp2960
S':'
asbag66
(g87
g68
NtRp2961
(dp2962
g71
(dp2963
sg80
g2948
sg73
(lp2964
g66
(g67
g68
NtRp2965
(dp2966
g71
(dp2967
g79
I3
ssg80
g2961
sg73
(lp2968
S'1'
asbasbasbasbasbasbasbasbasbasbasbasbasbsS'frames'
p2969
(lp2970
(dp2971
S'file'
p2972
S'/opt/work/projects/web2py/gluon/restricted.py'
p2973
sS'dump'
p2974
(dp2975
S'code'
p2976
S"'# coding: utf8\\n# try something lik\\nimport .. myd...ASS_JMX)\\n\\nresponse._vars=response._caller(index)\\n'"
p2977
sS'layer'
p2978
S"'/opt/work/projects/web2py/applications/cass1/controllers/cass_mgr.py'"
p2979
sS'global compile2'
p2980
S'<function compile2>'
p2981
sS'ccode'
p2982
S'undefined'
p2983
ssS'lnum'
p2984
I193
sS'lines'
p2985
(dp2986
I192
S'        else:'
p2987
sI193
S'            ccode = compile2(code,layer)'
p2988
sI194
S'        exec ccode in environment'
p2989
sI195
S'    except HTTP:'
p2990
sI196
S'        raise'
p2991
sI197
S'    except Exception, error:'
p2992
sI188
S"    environment['__file__'] = layer"
p2993
sI189
S'    try:'
p2994
sI190
S'        if type(code) == types.CodeType:'
p2995
sI191
S'            ccode = code'
p2996
ssS'call'
p2997
S"(code='# coding: utf8\\n# try something lik\\nimport .. myd...ASS_JMX)\\n\\nresponse._vars=response._caller(index)\\n', environment={'A': <class 'gluon.html.A'>, 'Auth': <class 'gluon.tools.Auth'>, 'B': <class 'gluon.html.B'>, 'BEAUTIFY': <class 'gluon.html.BEAUTIFY'>, 'BODY': <class 'gluon.html.BODY'>, 'BR': <class 'gluon.html.BR'>, 'BUTTON': <class 'gluon.html.BUTTON'>, 'CAT': <class 'gluon.html.CAT'>, 'CENTER': <class 'gluon.html.CENTER'>, 'CLEANUP': <class 'gluon.validators.CLEANUP'>, ...}, layer='/opt/work/projects/web2py/applications/cass1/controllers/cass_mgr.py')"
p2998
sS'func'
p2999
S'restricted'
p3000
sa(dp3001
g2972
S'/opt/work/projects/web2py/gluon/restricted.py'
p3002
sg2974
(dp3003
S'builtincompile'
p3004
S'<built-in function compile>'
p3005
sS'code'
p3006
S"'# coding: utf8\\n# try something lik\\nimport .. myd...ASS_JMX)\\n\\nresponse._vars=response._caller(index)\\n'"
p3007
sS'code.rstrip'
p3008
S'<built-in method rstrip of str object>'
p3009
sS').replace'
p3010
g2983
sS'layer'
p3011
S"'/opt/work/projects/web2py/applications/cass1/controllers/cass_mgr.py'"
p3012
ssg2984
I179
sg2985
(dp3013
I174
S''
sI175
S'def compile2(code,layer):'
p3014
sI176
S'    """'
p3015
sI177
S"    The +'\\n' is necessary else compile fails when code ends in a comment."
p3016
sI178
S'    """'
p3017
sI179
S"    return compile(code.rstrip().replace('\\r\\n','\\n')+'\\n', layer, 'exec')"
p3018
sI180
S''
sI181
S"def restricted(code, environment=None, layer='Unknown'):"
p3019
sI182
S'    """'
p3020
sI183
S'    runs code in environment and returns the output. if an exception occurs'
p3021
ssg2997
S"(code='# coding: utf8\\n# try something lik\\nimport .. myd...ASS_JMX)\\n\\nresponse._vars=response._caller(index)\\n', layer='/opt/work/projects/web2py/applications/cass1/controllers/cass_mgr.py')"
p3022
sg2999
S'compile2'
p3023
sasS'pyver'
p3024
S'Python 2.7.1+: /usr/bin/python'
p3025
sS'session'
p3026
g66
(g67
g68
NtRp3027
(dp3028
g71
(dp3029
sg73
(lp3030
g66
(g75
g68
NtRp3031
(dp3032
g71
(dp3033
g79
I5
ssg80
Nsg73
(lp3034
sbasbsS'etype'
p3035
S"<type 'exceptions.SyntaxError'>"
p3036
sS'date'
p3037
S'Tue Nov 29 19:50:18 2011'
p3038
sS'response'
p3039
g66
(g67
g68
NtRp3040
(dp3041
g71
(dp3042
sg73
(lp3043
g66
(g75
g68
NtRp3044
(dp3045
g71
(dp3046
g79
I5
ssg80
Nsg73
(lp3047
g66
(g82
g68
NtRp3048
(dp3049
g71
(dp3050
sg80
g3044
sg73
(lp3051
g66
(g87
g68
NtRp3052
(dp3053
g71
(dp3054
g91
g92
ssg80
g3048
sg73
(lp3055
g164
asbag66
(g87
g68
NtRp3056
(dp3057
g71
(dp3058
g98
g99
ssg80
g3048
sg73
(lp3059
S':'
asbag66
(g87
g68
NtRp3060
(dp3061
g71
(dp3062
sg80
g3048
sg73
(lp3063
g66
(g67
g68
NtRp3064
(dp3065
g71
(dp3066
g79
I5
ssg80
g3060
sg73
(lp3067
S'<cStringIO.StringO object at 0x7f5e79745030>'
p3068
asbasbasbag66
(g82
g68
NtRp3069
(dp3070
g71
(dp3071
sg80
g3044
sg73
(lp3072
g66
(g87
g68
NtRp3073
(dp3074
g71
(dp3075
g91
g92
ssg80
g3069
sg73
(lp3076
g230
asbag66
(g87
g68
NtRp3077
(dp3078
g71
(dp3079
g98
g99
ssg80
g3069
sg73
(lp3080
S':'
asbag66
(g87
g68
NtRp3081
(dp3082
g71
(dp3083
sg80
g3069
sg73
(lp3084
g66
(g67
g68
NtRp3085
(dp3086
g71
(dp3087
g79
I5
ssg80
g3081
sg73
(lp3088
g66
(g75
g68
NtRp3089
(dp3090
g71
(dp3091
g79
I4
ssg80
Nsg73
(lp3092
g66
(g82
g68
NtRp3093
(dp3094
g71
(dp3095
sg80
g3089
sg73
(lp3096
g66
(g87
g68
NtRp3097
(dp3098
g71
(dp3099
g91
g92
ssg80
g3093
sg73
(lp3100
S'session_id_cass1'
p3101
asbag66
(g87
g68
NtRp3102
(dp3103
g71
(dp3104
g98
g99
ssg80
g3093
sg73
(lp3105
S':'
asbag66
(g87
g68
NtRp3106
(dp3107
g71
(dp3108
sg80
g3093
sg73
(lp3109
g66
(g67
g68
NtRp3110
(dp3111
g71
(dp3112
g79
I4
ssg80
g3106
sg73
(lp3113
g66
(g75
g68
NtRp3114
(dp3115
g71
(dp3116
g79
I3
ssg80
Nsg73
(lp3117
g66
(g82
g68
NtRp3118
(dp3119
g71
(dp3120
sg80
g3114
sg73
(lp3121
g66
(g87
g68
NtRp3122
(dp3123
g71
(dp3124
g91
g92
ssg80
g3118
sg73
(lp3125
g280
asbag66
(g87
g68
NtRp3126
(dp3127
g71
(dp3128
g98
g99
ssg80
g3118
sg73
(lp3129
S':'
asbag66
(g87
g68
NtRp3130
(dp3131
g71
(dp3132
sg80
g3118
sg73
(lp3133
g66
(g67
g68
NtRp3134
(dp3135
g71
(dp3136
g79
I3
ssg80
g3130
sg73
(lp3137
S''
asbasbasbag66
(g82
g68
NtRp3138
(dp3139
g71
(dp3140
sg80
g3114
sg73
(lp3141
g66
(g87
g68
NtRp3142
(dp3143
g71
(dp3144
g91
g92
ssg80
g3138
sg73
(lp3145
g301
asbag66
(g87
g68
NtRp3146
(dp3147
g71
(dp3148
g98
g99
ssg80
g3138
sg73
(lp3149
S':'
asbag66
(g87
g68
NtRp3150
(dp3151
g71
(dp3152
sg80
g3138
sg73
(lp3153
g66
(g67
g68
NtRp3154
(dp3155
g71
(dp3156
g79
I3
ssg80
g3150
sg73
(lp3157
S''
asbasbasbag66
(g82
g68
NtRp3158
(dp3159
g71
(dp3160
sg80
g3114
sg73
(lp3161
g66
(g87
g68
NtRp3162
(dp3163
g71
(dp3164
g91
g92
ssg80
g3158
sg73
(lp3165
g322
asbag66
(g87
g68
NtRp3166
(dp3167
g71
(dp3168
g98
g99
ssg80
g3158
sg73
(lp3169
S':'
asbag66
(g87
g68
NtRp3170
(dp3171
g71
(dp3172
sg80
g3158
sg73
(lp3173
g66
(g67
g68
NtRp3174
(dp3175
g71
(dp3176
g79
I3
ssg80
g3170
sg73
(lp3177
S''
asbasbasbag66
(g82
g68
NtRp3178
(dp3179
g71
(dp3180
sg80
g3114
sg73
(lp3181
g66
(g87
g68
NtRp3182
(dp3183
g71
(dp3184
g91
g92
ssg80
g3178
sg73
(lp3185
g343
asbag66
(g87
g68
NtRp3186
(dp3187
g71
(dp3188
g98
g99
ssg80
g3178
sg73
(lp3189
S':'
asbag66
(g87
g68
NtRp3190
(dp3191
g71
(dp3192
sg80
g3178
sg73
(lp3193
g66
(g67
g68
NtRp3194
(dp3195
g71
(dp3196
g79
I3
ssg80
g3190
sg73
(lp3197
S''
asbasbasbag66
(g82
g68
NtRp3198
(dp3199
g71
(dp3200
sg80
g3114
sg73
(lp3201
g66
(g87
g68
NtRp3202
(dp3203
g71
(dp3204
g91
g92
ssg80
g3198
sg73
(lp3205
g364
asbag66
(g87
g68
NtRp3206
(dp3207
g71
(dp3208
g98
g99
ssg80
g3198
sg73
(lp3209
S':'
asbag66
(g87
g68
NtRp3210
(dp3211
g71
(dp3212
sg80
g3198
sg73
(lp3213
g66
(g67
g68
NtRp3214
(dp3215
g71
(dp3216
g79
I3
ssg80
g3210
sg73
(lp3217
S''
asbasbasbag66
(g82
g68
NtRp3218
(dp3219
g71
(dp3220
sg80
g3114
sg73
(lp3221
g66
(g87
g68
NtRp3222
(dp3223
g71
(dp3224
g91
g92
ssg80
g3218
sg73
(lp3225
g385
asbag66
(g87
g68
NtRp3226
(dp3227
g71
(dp3228
g98
g99
ssg80
g3218
sg73
(lp3229
S':'
asbag66
(g87
g68
NtRp3230
(dp3231
g71
(dp3232
sg80
g3218
sg73
(lp3233
g66
(g67
g68
NtRp3234
(dp3235
g71
(dp3236
g79
I3
ssg80
g3230
sg73
(lp3237
S'/'
asbasbasbag66
(g82
g68
NtRp3238
(dp3239
g71
(dp3240
sg80
g3114
sg73
(lp3241
g66
(g87
g68
NtRp3242
(dp3243
g71
(dp3244
g91
g92
ssg80
g3238
sg73
(lp3245
g406
asbag66
(g87
g68
NtRp3246
(dp3247
g71
(dp3248
g98
g99
ssg80
g3238
sg73
(lp3249
S':'
asbag66
(g87
g68
NtRp3250
(dp3251
g71
(dp3252
sg80
g3238
sg73
(lp3253
g66
(g67
g68
NtRp3254
(dp3255
g71
(dp3256
g79
I3
ssg80
g3250
sg73
(lp3257
S''
asbasbasbag66
(g82
g68
NtRp3258
(dp3259
g71
(dp3260
sg80
g3114
sg73
(lp3261
g66
(g87
g68
NtRp3262
(dp3263
g71
(dp3264
g91
g92
ssg80
g3258
sg73
(lp3265
g427
asbag66
(g87
g68
NtRp3266
(dp3267
g71
(dp3268
g98
g99
ssg80
g3258
sg73
(lp3269
S':'
asbag66
(g87
g68
NtRp3270
(dp3271
g71
(dp3272
sg80
g3258
sg73
(lp3273
g66
(g67
g68
NtRp3274
(dp3275
g71
(dp3276
g79
I3
ssg80
g3270
sg73
(lp3277
S''
asbasbasbasbasbasbasbasbasbasbasbag66
(g82
g68
NtRp3278
(dp3279
g71
(dp3280
sg80
g3044
sg73
(lp3281
g66
(g87
g68
NtRp3282
(dp3283
g71
(dp3284
g91
g92
ssg80
g3278
sg73
(lp3285
S'files'
p3286
asbag66
(g87
g68
NtRp3287
(dp3288
g71
(dp3289
g98
g99
ssg80
g3278
sg73
(lp3290
S':'
asbag66
(g87
g68
NtRp3291
(dp3292
g71
(dp3293
sg80
g3278
sg73
(lp3294
g66
(g67
g68
NtRp3295
(dp3296
g71
(dp3297
g79
I5
ssg80
g3291
sg73
(lp3298
g66
(g75
g68
NtRp3299
(dp3300
g71
(dp3301
g79
I4
ssg80
Nsg73
(lp3302
g66
(g82
g68
NtRp3303
(dp3304
g71
(dp3305
sg80
g3299
sg73
(lp3306
g66
(g87
g68
NtRp3307
(dp3308
g71
(dp3309
sg80
g3303
sg73
(lp3310
g66
(g67
g68
NtRp3311
(dp3312
g71
(dp3313
g79
I4
ssg80
g3307
sg73
(lp3314
S'/cass1/static/plugin_sortable/jquery.ui.core.js'
p3315
asbasbasbag66
(g82
g68
NtRp3316
(dp3317
g71
(dp3318
sg80
g3299
sg73
(lp3319
g66
(g87
g68
NtRp3320
(dp3321
g71
(dp3322
sg80
g3316
sg73
(lp3323
g66
(g67
g68
NtRp3324
(dp3325
g71
(dp3326
g79
I4
ssg80
g3320
sg73
(lp3327
S'/cass1/static/plugin_sortable/jquery.ui.sortable.js'
p3328
asbasbasbasbasbasbasbag66
(g82
g68
NtRp3329
(dp3330
g71
(dp3331
sg80
g3044
sg73
(lp3332
g66
(g87
g68
NtRp3333
(dp3334
g71
(dp3335
g91
g92
ssg80
g3329
sg73
(lp3336
S'flash'
p3337
asbag66
(g87
g68
NtRp3338
(dp3339
g71
(dp3340
g98
g99
ssg80
g3329
sg73
(lp3341
S':'
asbag66
(g87
g68
NtRp3342
(dp3343
g71
(dp3344
sg80
g3329
sg73
(lp3345
g66
(g67
g68
NtRp3346
(dp3347
g71
(dp3348
g79
I5
ssg80
g3342
sg73
(lp3349
S''
asbasbasbag66
(g82
g68
NtRp3350
(dp3351
g71
(dp3352
sg80
g3044
sg73
(lp3353
g66
(g87
g68
NtRp3354
(dp3355
g71
(dp3356
g91
g92
ssg80
g3350
sg73
(lp3357
S'generic_patterns'
p3358
asbag66
(g87
g68
NtRp3359
(dp3360
g71
(dp3361
g98
g99
ssg80
g3350
sg73
(lp3362
S':'
asbag66
(g87
g68
NtRp3363
(dp3364
g71
(dp3365
sg80
g3350
sg73
(lp3366
g66
(g67
g68
NtRp3367
(dp3368
g71
(dp3369
g79
I5
ssg80
g3363
sg73
(lp3370
g66
(g75
g68
NtRp3371
(dp3372
g71
(dp3373
g79
I4
ssg80
Nsg73
(lp3374
g66
(g82
g68
NtRp3375
(dp3376
g71
(dp3377
sg80
g3371
sg73
(lp3378
g66
(g87
g68
NtRp3379
(dp3380
g71
(dp3381
sg80
g3375
sg73
(lp3382
g66
(g67
g68
NtRp3383
(dp3384
g71
(dp3385
g79
I4
ssg80
g3379
sg73
(lp3386
S'*'
asbasbasbasbasbasbasbag66
(g82
g68
NtRp3387
(dp3388
g71
(dp3389
sg80
g3044
sg73
(lp3390
g66
(g87
g68
NtRp3391
(dp3392
g71
(dp3393
g91
g92
ssg80
g3387
sg73
(lp3394
S'headers'
p3395
asbag66
(g87
g68
NtRp3396
(dp3397
g71
(dp3398
g98
g99
ssg80
g3387
sg73
(lp3399
S':'
asbag66
(g87
g68
NtRp3400
(dp3401
g71
(dp3402
sg80
g3387
sg73
(lp3403
g66
(g67
g68
NtRp3404
(dp3405
g71
(dp3406
g79
I5
ssg80
g3400
sg73
(lp3407
g66
(g75
g68
NtRp3408
(dp3409
g71
(dp3410
g79
I4
ssg80
Nsg73
(lp3411
g66
(g82
g68
NtRp3412
(dp3413
g71
(dp3414
sg80
g3408
sg73
(lp3415
g66
(g87
g68
NtRp3416
(dp3417
g71
(dp3418
g91
g92
ssg80
g3412
sg73
(lp3419
S'Cache-Control'
p3420
asbag66
(g87
g68
NtRp3421
(dp3422
g71
(dp3423
g98
g99
ssg80
g3412
sg73
(lp3424
S':'
asbag66
(g87
g68
NtRp3425
(dp3426
g71
(dp3427
sg80
g3412
sg73
(lp3428
g66
(g67
g68
NtRp3429
(dp3430
g71
(dp3431
g79
I4
ssg80
g3425
sg73
(lp3432
S'no-store, no-cache, must-revalidate, post-check=0, pre-check=0'
p3433
asbasbasbag66
(g82
g68
NtRp3434
(dp3435
g71
(dp3436
sg80
g3408
sg73
(lp3437
g66
(g87
g68
NtRp3438
(dp3439
g71
(dp3440
g91
g92
ssg80
g3434
sg73
(lp3441
S'Content-Type'
p3442
asbag66
(g87
g68
NtRp3443
(dp3444
g71
(dp3445
g98
g99
ssg80
g3434
sg73
(lp3446
S':'
asbag66
(g87
g68
NtRp3447
(dp3448
g71
(dp3449
sg80
g3434
sg73
(lp3450
g66
(g67
g68
NtRp3451
(dp3452
g71
(dp3453
g79
I4
ssg80
g3447
sg73
(lp3454
S'text/html; charset=utf-8'
p3455
asbasbasbag66
(g82
g68
NtRp3456
(dp3457
g71
(dp3458
sg80
g3408
sg73
(lp3459
g66
(g87
g68
NtRp3460
(dp3461
g71
(dp3462
g91
g92
ssg80
g3456
sg73
(lp3463
S'Expires'
p3464
asbag66
(g87
g68
NtRp3465
(dp3466
g71
(dp3467
g98
g99
ssg80
g3456
sg73
(lp3468
S':'
asbag66
(g87
g68
NtRp3469
(dp3470
g71
(dp3471
sg80
g3456
sg73
(lp3472
g66
(g67
g68
NtRp3473
(dp3474
g71
(dp3475
g79
I4
ssg80
g3469
sg73
(lp3476
S'Tue, 29 Nov 2011 19:50:18 GMT'
p3477
asbasbasbag66
(g82
g68
NtRp3478
(dp3479
g71
(dp3480
sg80
g3408
sg73
(lp3481
g66
(g87
g68
NtRp3482
(dp3483
g71
(dp3484
g91
g92
ssg80
g3478
sg73
(lp3485
S'Pragma'
p3486
asbag66
(g87
g68
NtRp3487
(dp3488
g71
(dp3489
g98
g99
ssg80
g3478
sg73
(lp3490
S':'
asbag66
(g87
g68
NtRp3491
(dp3492
g71
(dp3493
sg80
g3478
sg73
(lp3494
g66
(g67
g68
NtRp3495
(dp3496
g71
(dp3497
g79
I4
ssg80
g3491
sg73
(lp3498
S'no-cache'
p3499
asbasbasbag66
(g82
g68
NtRp3500
(dp3501
g71
(dp3502
sg80
g3408
sg73
(lp3503
g66
(g87
g68
NtRp3504
(dp3505
g71
(dp3506
g91
g92
ssg80
g3500
sg73
(lp3507
S'X-Powered-By'
p3508
asbag66
(g87
g68
NtRp3509
(dp3510
g71
(dp3511
g98
g99
ssg80
g3500
sg73
(lp3512
S':'
asbag66
(g87
g68
NtRp3513
(dp3514
g71
(dp3515
sg80
g3500
sg73
(lp3516
g66
(g67
g68
NtRp3517
(dp3518
g71
(dp3519
g79
I4
ssg80
g3513
sg73
(lp3520
S'web2py'
p3521
asbasbasbasbasbasbasbag66
(g82
g68
NtRp3522
(dp3523
g71
(dp3524
sg80
g3044
sg73
(lp3525
g66
(g87
g68
NtRp3526
(dp3527
g71
(dp3528
g91
g92
ssg80
g3522
sg73
(lp3529
S'menu'
p3530
asbag66
(g87
g68
NtRp3531
(dp3532
g71
(dp3533
g98
g99
ssg80
g3522
sg73
(lp3534
S':'
asbag66
(g87
g68
NtRp3535
(dp3536
g71
(dp3537
sg80
g3522
sg73
(lp3538
g66
(g67
g68
NtRp3539
(dp3540
g71
(dp3541
g79
I5
ssg80
g3535
sg73
(lp3542
g66
(g75
g68
NtRp3543
(dp3544
g71
(dp3545
g79
I4
ssg80
Nsg73
(lp3546
g66
(g82
g68
NtRp3547
(dp3548
g71
(dp3549
sg80
g3543
sg73
(lp3550
g66
(g87
g68
NtRp3551
(dp3552
g71
(dp3553
sg80
g3547
sg73
(lp3554
g66
(g67
g68
NtRp3555
(dp3556
g71
(dp3557
g79
I4
ssg80
g3551
sg73
(lp3558
g66
(g75
g68
NtRp3559
(dp3560
g71
(dp3561
g79
I3
ssg80
Nsg73
(lp3562
g66
(g82
g68
NtRp3563
(dp3564
g71
(dp3565
sg80
g3559
sg73
(lp3566
g66
(g87
g68
NtRp3567
(dp3568
g71
(dp3569
sg80
g3563
sg73
(lp3570
g66
(g67
g68
NtRp3571
(dp3572
g71
(dp3573
g79
I3
ssg80
g3567
sg73
(lp3574
cgluon.languages
lazyT_unpickle
p3575
(S's\x11\x00\x00\x00Cassandra Manager'
tRp3576
asbasbasbag66
(g82
g68
NtRp3577
(dp3578
g71
(dp3579
sg80
g3559
sg73
(lp3580
g66
(g87
g68
NtRp3581
(dp3582
g71
(dp3583
sg80
g3577
sg73
(lp3584
g66
(g67
g68
NtRp3585
(dp3586
g71
(dp3587
g79
I3
ssg80
g3581
sg73
(lp3588
g1666
asbasbasbag66
(g82
g68
NtRp3589
(dp3590
g71
(dp3591
sg80
g3559
sg73
(lp3592
g66
(g87
g68
NtRp3593
(dp3594
g71
(dp3595
sg80
g3589
sg73
(lp3596
g66
(g67
g68
NtRp3597
(dp3598
g71
(dp3599
g79
I3
ssg80
g3593
sg73
(lp3600
S'/cass1/cass_mgr/index'
p3601
asbasbasbag66
(g82
g68
NtRp3602
(dp3603
g71
(dp3604
sg80
g3559
sg73
(lp3605
g66
(g87
g68
NtRp3606
(dp3607
g71
(dp3608
sg80
g3602
sg73
(lp3609
g66
(g67
g68
NtRp3610
(dp3611
g71
(dp3612
g79
I3
ssg80
g3606
sg73
(lp3613
g66
(g75
g68
NtRp3614
(dp3615
g71
(dp3616
g79
I2
ssg80
Nsg73
(lp3617
sbasbasbasbasbasbasbasbag66
(g82
g68
NtRp3618
(dp3619
g71
(dp3620
sg80
g3543
sg73
(lp3621
g66
(g87
g68
NtRp3622
(dp3623
g71
(dp3624
sg80
g3618
sg73
(lp3625
g66
(g67
g68
NtRp3626
(dp3627
g71
(dp3628
g79
I4
ssg80
g3622
sg73
(lp3629
g66
(g75
g68
NtRp3630
(dp3631
g71
(dp3632
g79
I3
ssg80
Nsg73
(lp3633
g66
(g82
g68
NtRp3634
(dp3635
g71
(dp3636
sg80
g3630
sg73
(lp3637
g66
(g87
g68
NtRp3638
(dp3639
g71
(dp3640
sg80
g3634
sg73
(lp3641
g66
(g67
g68
NtRp3642
(dp3643
g71
(dp3644
g79
I3
ssg80
g3638
sg73
(lp3645
g3575
(S's\x15\x00\x00\x00Cassandra Performance'
tRp3646
asbasbasbag66
(g82
g68
NtRp3647
(dp3648
g71
(dp3649
sg80
g3630
sg73
(lp3650
g66
(g87
g68
NtRp3651
(dp3652
g71
(dp3653
sg80
g3647
sg73
(lp3654
g66
(g67
g68
NtRp3655
(dp3656
g71
(dp3657
g79
I3
ssg80
g3651
sg73
(lp3658
g109
asbasbasbag66
(g82
g68
NtRp3659
(dp3660
g71
(dp3661
sg80
g3630
sg73
(lp3662
g66
(g87
g68
NtRp3663
(dp3664
g71
(dp3665
sg80
g3659
sg73
(lp3666
g66
(g67
g68
NtRp3667
(dp3668
g71
(dp3669
g79
I3
ssg80
g3663
sg73
(lp3670
S'/cass1/default/index'
p3671
asbasbasbag66
(g82
g68
NtRp3672
(dp3673
g71
(dp3674
sg80
g3630
sg73
(lp3675
g66
(g87
g68
NtRp3676
(dp3677
g71
(dp3678
sg80
g3672
sg73
(lp3679
g66
(g67
g68
NtRp3680
(dp3681
g71
(dp3682
g79
I3
ssg80
g3676
sg73
(lp3683
g66
(g75
g68
NtRp3684
(dp3685
g71
(dp3686
g79
I2
ssg80
Nsg73
(lp3687
sbasbasbasbasbasbasbasbag66
(g82
g68
NtRp3688
(dp3689
g71
(dp3690
sg80
g3543
sg73
(lp3691
g66
(g87
g68
NtRp3692
(dp3693
g71
(dp3694
sg80
g3688
sg73
(lp3695
g66
(g67
g68
NtRp3696
(dp3697
g71
(dp3698
g79
I4
ssg80
g3692
sg73
(lp3699
g66
(g75
g68
NtRp3700
(dp3701
g71
(dp3702
g79
I3
ssg80
Nsg73
(lp3703
g66
(g82
g68
NtRp3704
(dp3705
g71
(dp3706
sg80
g3700
sg73
(lp3707
g66
(g87
g68
NtRp3708
(dp3709
g71
(dp3710
sg80
g3704
sg73
(lp3711
g66
(g67
g68
NtRp3712
(dp3713
g71
(dp3714
g79
I3
ssg80
g3708
sg73
(lp3715
g3575
(S's\x13\x00\x00\x00Cassandra Internals'
tRp3716
asbasbasbag66
(g82
g68
NtRp3717
(dp3718
g71
(dp3719
sg80
g3700
sg73
(lp3720
g66
(g87
g68
NtRp3721
(dp3722
g71
(dp3723
sg80
g3717
sg73
(lp3724
g66
(g67
g68
NtRp3725
(dp3726
g71
(dp3727
g79
I3
ssg80
g3721
sg73
(lp3728
g109
asbasbasbag66
(g82
g68
NtRp3729
(dp3730
g71
(dp3731
sg80
g3700
sg73
(lp3732
g66
(g87
g68
NtRp3733
(dp3734
g71
(dp3735
sg80
g3729
sg73
(lp3736
g66
(g67
g68
NtRp3737
(dp3738
g71
(dp3739
g79
I3
ssg80
g3733
sg73
(lp3740
S'/cass1/cass_internals/index'
p3741
asbasbasbag66
(g82
g68
NtRp3742
(dp3743
g71
(dp3744
sg80
g3700
sg73
(lp3745
g66
(g87
g68
NtRp3746
(dp3747
g71
(dp3748
sg80
g3742
sg73
(lp3749
g66
(g67
g68
NtRp3750
(dp3751
g71
(dp3752
g79
I3
ssg80
g3746
sg73
(lp3753
g66
(g75
g68
NtRp3754
(dp3755
g71
(dp3756
g79
I2
ssg80
Nsg73
(lp3757
sbasbasbasbasbasbasbasbag66
(g82
g68
NtRp3758
(dp3759
g71
(dp3760
sg80
g3543
sg73
(lp3761
g66
(g87
g68
NtRp3762
(dp3763
g71
(dp3764
sg80
g3758
sg73
(lp3765
g66
(g67
g68
NtRp3766
(dp3767
g71
(dp3768
g79
I4
ssg80
g3762
sg73
(lp3769
g66
(g75
g68
NtRp3770
(dp3771
g71
(dp3772
g79
I3
ssg80
Nsg73
(lp3773
g66
(g82
g68
NtRp3774
(dp3775
g71
(dp3776
sg80
g3770
sg73
(lp3777
g66
(g87
g68
NtRp3778
(dp3779
g71
(dp3780
sg80
g3774
sg73
(lp3781
g66
(g67
g68
NtRp3782
(dp3783
g71
(dp3784
g79
I3
ssg80
g3778
sg73
(lp3785
g3575
(S's\r\x00\x00\x00MySQL Manager'
tRp3786
asbasbasbag66
(g82
g68
NtRp3787
(dp3788
g71
(dp3789
sg80
g3770
sg73
(lp3790
g66
(g87
g68
NtRp3791
(dp3792
g71
(dp3793
sg80
g3787
sg73
(lp3794
g66
(g67
g68
NtRp3795
(dp3796
g71
(dp3797
g79
I3
ssg80
g3791
sg73
(lp3798
g109
asbasbasbag66
(g82
g68
NtRp3799
(dp3800
g71
(dp3801
sg80
g3770
sg73
(lp3802
g66
(g87
g68
NtRp3803
(dp3804
g71
(dp3805
sg80
g3799
sg73
(lp3806
g66
(g67
g68
NtRp3807
(dp3808
g71
(dp3809
g79
I3
ssg80
g3803
sg73
(lp3810
S'/cass1/internals/index'
p3811
asbasbasbag66
(g82
g68
NtRp3812
(dp3813
g71
(dp3814
sg80
g3770
sg73
(lp3815
g66
(g87
g68
NtRp3816
(dp3817
g71
(dp3818
sg80
g3812
sg73
(lp3819
g66
(g67
g68
NtRp3820
(dp3821
g71
(dp3822
g79
I3
ssg80
g3816
sg73
(lp3823
g66
(g75
g68
NtRp3824
(dp3825
g71
(dp3826
g79
I2
ssg80
Nsg73
(lp3827
sbasbasbasbasbasbasbasbag66
(g82
g68
NtRp3828
(dp3829
g71
(dp3830
sg80
g3543
sg73
(lp3831
g66
(g87
g68
NtRp3832
(dp3833
g71
(dp3834
sg80
g3828
sg73
(lp3835
g66
(g67
g68
NtRp3836
(dp3837
g71
(dp3838
g79
I4
ssg80
g3832
sg73
(lp3839
g66
(g75
g68
NtRp3840
(dp3841
g71
(dp3842
g79
I3
ssg80
Nsg73
(lp3843
g66
(g82
g68
NtRp3844
(dp3845
g71
(dp3846
sg80
g3840
sg73
(lp3847
g66
(g87
g68
NtRp3848
(dp3849
g71
(dp3850
sg80
g3844
sg73
(lp3851
g66
(g67
g68
NtRp3852
(dp3853
g71
(dp3854
g79
I3
ssg80
g3848
sg73
(lp3855
g3575
(S's\x11\x00\x00\x00MySQL Performance'
tRp3856
asbasbasbag66
(g82
g68
NtRp3857
(dp3858
g71
(dp3859
sg80
g3840
sg73
(lp3860
g66
(g87
g68
NtRp3861
(dp3862
g71
(dp3863
sg80
g3857
sg73
(lp3864
g66
(g67
g68
NtRp3865
(dp3866
g71
(dp3867
g79
I3
ssg80
g3861
sg73
(lp3868
g109
asbasbasbag66
(g82
g68
NtRp3869
(dp3870
g71
(dp3871
sg80
g3840
sg73
(lp3872
g66
(g87
g68
NtRp3873
(dp3874
g71
(dp3875
sg80
g3869
sg73
(lp3876
g66
(g67
g68
NtRp3877
(dp3878
g71
(dp3879
g79
I3
ssg80
g3873
sg73
(lp3880
S'/cass1/internals/index'
p3881
asbasbasbag66
(g82
g68
NtRp3882
(dp3883
g71
(dp3884
sg80
g3840
sg73
(lp3885
g66
(g87
g68
NtRp3886
(dp3887
g71
(dp3888
sg80
g3882
sg73
(lp3889
g66
(g67
g68
NtRp3890
(dp3891
g71
(dp3892
g79
I3
ssg80
g3886
sg73
(lp3893
g66
(g75
g68
NtRp3894
(dp3895
g71
(dp3896
g79
I2
ssg80
Nsg73
(lp3897
sbasbasbasbasbasbasbasbasbasbasbasbag66
(g82
g68
NtRp3898
(dp3899
g71
(dp3900
sg80
g3044
sg73
(lp3901
g66
(g87
g68
NtRp3902
(dp3903
g71
(dp3904
g91
g92
ssg80
g3898
sg73
(lp3905
S'meta'
p3906
asbag66
(g87
g68
NtRp3907
(dp3908
g71
(dp3909
g98
g99
ssg80
g3898
sg73
(lp3910
S':'
asbag66
(g87
g68
NtRp3911
(dp3912
g71
(dp3913
sg80
g3898
sg73
(lp3914
g66
(g67
g68
NtRp3915
(dp3916
g71
(dp3917
g79
I5
ssg80
g3911
sg73
(lp3918
g66
(g75
g68
NtRp3919
(dp3920
g71
(dp3921
g79
I4
ssg80
Nsg73
(lp3922
g66
(g82
g68
NtRp3923
(dp3924
g71
(dp3925
sg80
g3919
sg73
(lp3926
g66
(g87
g68
NtRp3927
(dp3928
g71
(dp3929
g91
g92
ssg80
g3923
sg73
(lp3930
S'author'
p3931
asbag66
(g87
g68
NtRp3932
(dp3933
g71
(dp3934
g98
g99
ssg80
g3923
sg73
(lp3935
S':'
asbag66
(g87
g68
NtRp3936
(dp3937
g71
(dp3938
sg80
g3923
sg73
(lp3939
g66
(g67
g68
NtRp3940
(dp3941
g71
(dp3942
g79
I4
ssg80
g3936
sg73
(lp3943
S'chris <chris@cheynes.org>'
p3944
asbasbasbag66
(g82
g68
NtRp3945
(dp3946
g71
(dp3947
sg80
g3919
sg73
(lp3948
g66
(g87
g68
NtRp3949
(dp3950
g71
(dp3951
g91
g92
ssg80
g3945
sg73
(lp3952
S'description'
p3953
asbag66
(g87
g68
NtRp3954
(dp3955
g71
(dp3956
g98
g99
ssg80
g3945
sg73
(lp3957
S':'
asbag66
(g87
g68
NtRp3958
(dp3959
g71
(dp3960
sg80
g3945
sg73
(lp3961
g66
(g67
g68
NtRp3962
(dp3963
g71
(dp3964
g79
I4
ssg80
g3958
sg73
(lp3965
S'Test application 1'
p3966
asbasbasbag66
(g82
g68
NtRp3967
(dp3968
g71
(dp3969
sg80
g3919
sg73
(lp3970
g66
(g87
g68
NtRp3971
(dp3972
g71
(dp3973
g91
g92
ssg80
g3967
sg73
(lp3974
S'keywords'
p3975
asbag66
(g87
g68
NtRp3976
(dp3977
g71
(dp3978
g98
g99
ssg80
g3967
sg73
(lp3979
S':'
asbag66
(g87
g68
NtRp3980
(dp3981
g71
(dp3982
sg80
g3967
sg73
(lp3983
g66
(g67
g68
NtRp3984
(dp3985
g71
(dp3986
g79
I4
ssg80
g3980
sg73
(lp3987
S'cassandra,bigdata,nosql'
p3988
asbasbasbasbasbasbasbag66
(g82
g68
NtRp3989
(dp3990
g71
(dp3991
sg80
g3044
sg73
(lp3992
g66
(g87
g68
NtRp3993
(dp3994
g71
(dp3995
g91
g92
ssg80
g3989
sg73
(lp3996
S'postprocessing'
p3997
asbag66
(g87
g68
NtRp3998
(dp3999
g71
(dp4000
g98
g99
ssg80
g3989
sg73
(lp4001
S':'
asbag66
(g87
g68
NtRp4002
(dp4003
g71
(dp4004
sg80
g3989
sg73
(lp4005
g66
(g67
g68
NtRp4006
(dp4007
g71
(dp4008
g79
I5
ssg80
g4002
sg73
(lp4009
g66
(g75
g68
NtRp4010
(dp4011
g71
(dp4012
g79
I4
ssg80
Nsg73
(lp4013
sbasbasbasbag66
(g82
g68
NtRp4014
(dp4015
g71
(dp4016
sg80
g3044
sg73
(lp4017
g66
(g87
g68
NtRp4018
(dp4019
g71
(dp4020
g91
g92
ssg80
g4014
sg73
(lp4021
S'session_file'
p4022
asbag66
(g87
g68
NtRp4023
(dp4024
g71
(dp4025
g98
g99
ssg80
g4014
sg73
(lp4026
S':'
asbag66
(g87
g68
NtRp4027
(dp4028
g71
(dp4029
sg80
g4014
sg73
(lp4030
g66
(g67
g68
NtRp4031
(dp4032
g71
(dp4033
g79
I5
ssg80
g4027
sg73
(lp4034
S"<open file '/opt/work/projects/web2py/applications/cass1/sessions/127.0.0.1-6fe6a3f9-2307-46a2-954a-6299fc7a60ca', mode 'rb+' at 0x3556030>"
p4035
asbasbasbag66
(g82
g68
NtRp4036
(dp4037
g71
(dp4038
sg80
g3044
sg73
(lp4039
g66
(g87
g68
NtRp4040
(dp4041
g71
(dp4042
g91
g92
ssg80
g4036
sg73
(lp4043
S'session_filename'
p4044
asbag66
(g87
g68
NtRp4045
(dp4046
g71
(dp4047
g98
g99
ssg80
g4036
sg73
(lp4048
S':'
asbag66
(g87
g68
NtRp4049
(dp4050
g71
(dp4051
sg80
g4036
sg73
(lp4052
g66
(g67
g68
NtRp4053
(dp4054
g71
(dp4055
g79
I5
ssg80
g4049
sg73
(lp4056
S'/opt/work/projects/web2py/applications/cass1/sessions/127.0.0.1-6fe6a3f9-2307-46a2-954a-6299fc7a60ca'
p4057
asbasbasbag66
(g82
g68
NtRp4058
(dp4059
g71
(dp4060
sg80
g3044
sg73
(lp4061
g66
(g87
g68
NtRp4062
(dp4063
g71
(dp4064
g91
g92
ssg80
g4058
sg73
(lp4065
S'session_id'
p4066
asbag66
(g87
g68
NtRp4067
(dp4068
g71
(dp4069
g98
g99
ssg80
g4058
sg73
(lp4070
S':'
asbag66
(g87
g68
NtRp4071
(dp4072
g71
(dp4073
sg80
g4058
sg73
(lp4074
g66
(g67
g68
NtRp4075
(dp4076
g71
(dp4077
g79
I5
ssg80
g4071
sg73
(lp4078
S'127.0.0.1-6fe6a3f9-2307-46a2-954a-6299fc7a60ca'
p4079
asbasbasbag66
(g82
g68
NtRp4080
(dp4081
g71
(dp4082
sg80
g3044
sg73
(lp4083
g66
(g87
g68
NtRp4084
(dp4085
g71
(dp4086
g91
g92
ssg80
g4080
sg73
(lp4087
S'session_id_name'
p4088
asbag66
(g87
g68
NtRp4089
(dp4090
g71
(dp4091
g98
g99
ssg80
g4080
sg73
(lp4092
S':'
asbag66
(g87
g68
NtRp4093
(dp4094
g71
(dp4095
sg80
g4080
sg73
(lp4096
g66
(g67
g68
NtRp4097
(dp4098
g71
(dp4099
g79
I5
ssg80
g4093
sg73
(lp4100
g3101
asbasbasbag66
(g82
g68
NtRp4101
(dp4102
g71
(dp4103
sg80
g3044
sg73
(lp4104
g66
(g87
g68
NtRp4105
(dp4106
g71
(dp4107
g91
g92
ssg80
g4101
sg73
(lp4108
S'session_locked'
p4109
asbag66
(g87
g68
NtRp4110
(dp4111
g71
(dp4112
g98
g99
ssg80
g4101
sg73
(lp4113
S':'
asbag66
(g87
g68
NtRp4114
(dp4115
g71
(dp4116
sg80
g4101
sg73
(lp4117
g66
(g67
g68
NtRp4118
(dp4119
g71
(dp4120
g79
I5
ssg80
g4114
sg73
(lp4121
g1666
asbasbasbag66
(g82
g68
NtRp4122
(dp4123
g71
(dp4124
sg80
g3044
sg73
(lp4125
g66
(g87
g68
NtRp4126
(dp4127
g71
(dp4128
g91
g92
ssg80
g4122
sg73
(lp4129
S'session_new'
p4130
asbag66
(g87
g68
NtRp4131
(dp4132
g71
(dp4133
g98
g99
ssg80
g4122
sg73
(lp4134
S':'
asbag66
(g87
g68
NtRp4135
(dp4136
g71
(dp4137
sg80
g4122
sg73
(lp4138
g66
(g67
g68
NtRp4139
(dp4140
g71
(dp4141
g79
I5
ssg80
g4135
sg73
(lp4142
g109
asbasbasbag66
(g82
g68
NtRp4143
(dp4144
g71
(dp4145
sg80
g3044
sg73
(lp4146
g66
(g87
g68
NtRp4147
(dp4148
g71
(dp4149
g91
g92
ssg80
g4143
sg73
(lp4150
S'status'
p4151
asbag66
(g87
g68
NtRp4152
(dp4153
g71
(dp4154
g98
g99
ssg80
g4143
sg73
(lp4155
S':'
asbag66
(g87
g68
NtRp4156
(dp4157
g71
(dp4158
sg80
g4143
sg73
(lp4159
g66
(g67
g68
NtRp4160
(dp4161
g71
(dp4162
g79
I5
ssg80
g4156
sg73
(lp4163
S'200'
p4164
asbasbasbag66
(g82
g68
NtRp4165
(dp4166
g71
(dp4167
sg80
g3044
sg73
(lp4168
g66
(g87
g68
NtRp4169
(dp4170
g71
(dp4171
g91
g92
ssg80
g4165
sg73
(lp4172
S'subtitle'
p4173
asbag66
(g87
g68
NtRp4174
(dp4175
g71
(dp4176
g98
g99
ssg80
g4165
sg73
(lp4177
S':'
asbag66
(g87
g68
NtRp4178
(dp4179
g71
(dp4180
sg80
g4165
sg73
(lp4181
g66
(g67
g68
NtRp4182
(dp4183
g71
(dp4184
g79
I5
ssg80
g4178
sg73
(lp4185
S'HEARST Magazines UK'
p4186
asbasbasbag66
(g82
g68
NtRp4187
(dp4188
g71
(dp4189
sg80
g3044
sg73
(lp4190
g66
(g87
g68
NtRp4191
(dp4192
g71
(dp4193
g91
g92
ssg80
g4187
sg73
(lp4194
S'title'
p4195
asbag66
(g87
g68
NtRp4196
(dp4197
g71
(dp4198
g98
g99
ssg80
g4187
sg73
(lp4199
S':'
asbag66
(g87
g68
NtRp4200
(dp4201
g71
(dp4202
sg80
g4187
sg73
(lp4203
g66
(g67
g68
NtRp4204
(dp4205
g71
(dp4206
g79
I5
ssg80
g4200
sg73
(lp4207
S'Cassandra Manager 0.01'
p4208
asbasbasbag66
(g82
g68
NtRp4209
(dp4210
g71
(dp4211
sg80
g3044
sg73
(lp4212
g66
(g87
g68
NtRp4213
(dp4214
g71
(dp4215
g91
g92
ssg80
g4209
sg73
(lp4216
g2310
asbag66
(g87
g68
NtRp4217
(dp4218
g71
(dp4219
g98
g99
ssg80
g4209
sg73
(lp4220
S':'
asbag66
(g87
g68
NtRp4221
(dp4222
g71
(dp4223
sg80
g4209
sg73
(lp4224
g66
(g67
g68
NtRp4225
(dp4226
g71
(dp4227
g79
I5
ssg80
g4221
sg73
(lp4228
g2323
asbasbasbag66
(g82
g68
NtRp4229
(dp4230
g71
(dp4231
sg80
g3044
sg73
(lp4232
g66
(g87
g68
NtRp4233
(dp4234
g71
(dp4235
g91
g92
ssg80
g4229
sg73
(lp4236
S'view'
p4237
asbag66
(g87
g68
NtRp4238
(dp4239
g71
(dp4240
g98
g99
ssg80
g4229
sg73
(lp4241
S':'
asbag66
(g87
g68
NtRp4242
(dp4243
g71
(dp4244
sg80
g4229
sg73
(lp4245
g66
(g67
g68
NtRp4246
(dp4247
g71
(dp4248
g79
I5
ssg80
g4242
sg73
(lp4249
S'cass_mgr/index.html'
p4250
asbasbasbasbasbsS'locals'
p4251
(dp4252
g3
S"'/opt/work/projects/web2py/applications/cass1/controllers/cass_mgr.py'"
p4253
sg5
S"'# coding: utf8\\n# try something lik\\nimport .. myd...ASS_JMX)\\n\\nresponse._vars=response._caller(index)\\n'"
p4254
sssS'traceback'
p4255
S'Traceback (most recent call last):\n  File "/opt/work/projects/web2py/gluon/restricted.py", line 193, in restricted\n    ccode = compile2(code,layer)\n  File "/opt/work/projects/web2py/gluon/restricted.py", line 179, in compile2\n    return compile(code.rstrip().replace(\'\\r\\n\',\'\\n\')+\'\\n\', layer, \'exec\')\n  File "/opt/work/projects/web2py/applications/cass1/controllers/cass_mgr.py", line 3\n    import .. mydata\n           ^\nSyntaxError: invalid syntax\n'
p4256
s.