(dp1
S'output'
p2
S''
sS'layer'
p3
S'/opt/work/projects/web2py/applications/cass1/controllers/cass_mgr.py'
p4
sS'code'
p5
S'# coding: utf8\n# try something lik\nimport .. mydata\n\ndef index():\n   return dict(CASS_JMX)\n\nresponse._vars=response._caller(index)\n'
p6
sS'snapshot'
p7
(dp8
S'exception'
p9
(dp10
S'__getslice__'
p11
S"<method-wrapper '__getslice__' of exceptions.SyntaxError object>"
p12
sS'text'
p13
S"'import .. mydata\\n'"
p14
sS'__str__'
p15
S"<method-wrapper '__str__' of exceptions.SyntaxError object>"
p16
sS'__reduce__'
p17
S'<built-in method __reduce__ of exceptions.SyntaxError object>'
p18
sS'__dict__'
p19
S'{}'
p20
sS'__sizeof__'
p21
S'<built-in method __sizeof__ of exceptions.SyntaxError object>'
p22
sS'__init__'
p23
S"<method-wrapper '__init__' of exceptions.SyntaxError object>"
p24
sS'__setattr__'
p25
S"<method-wrapper '__setattr__' of exceptions.SyntaxError object>"
p26
sS'__reduce_ex__'
p27
S'<built-in method __reduce_ex__ of exceptions.SyntaxError object>'
p28
sS'__new__'
p29
S'<built-in method __new__ of type object>'
p30
sS'__format__'
p31
S'<built-in method __format__ of exceptions.SyntaxError object>'
p32
sS'__class__'
p33
S"<type 'exceptions.SyntaxError'>"
p34
sS'filename'
p35
S"'/opt/work/projects/web2py/applications/cass1/controllers/cass_mgr.py'"
p36
sS'lineno'
p37
S'3'
sS'msg'
p38
S"'invalid syntax'"
p39
sS'__doc__'
p40
S"'Invalid syntax.'"
p41
sS'__getitem__'
p42
S"<method-wrapper '__getitem__' of exceptions.SyntaxError object>"
p43
sS'__setstate__'
p44
S'<built-in method __setstate__ of exceptions.SyntaxError object>'
p45
sS'__getattribute__'
p46
S"<method-wrapper '__getattribute__' of exceptions.SyntaxError object>"
p47
sS'print_file_and_line'
p48
S'None'
p49
sS'args'
p50
S"('invalid syntax', ('/opt/work/projects/web2py/applications/cass1/controllers/cass_mgr.py', 3, 8, 'import .. mydata\\n'))"
p51
sS'__subclasshook__'
p52
S'<built-in method __subclasshook__ of type object>'
p53
sS'offset'
p54
S'8'
sS'__unicode__'
p55
S'<built-in method __unicode__ of exceptions.SyntaxError object>'
p56
sS'__delattr__'
p57
S"<method-wrapper '__delattr__' of exceptions.SyntaxError object>"
p58
sS'__repr__'
p59
S"<method-wrapper '__repr__' of exceptions.SyntaxError object>"
p60
sS'__hash__'
p61
S"<method-wrapper '__hash__' of exceptions.SyntaxError object>"
p62
ssS'evalue'
p63
S'invalid syntax (cass_mgr.py, line 3)'
p64
sS'request'
p65
ccopy_reg
_reconstructor
p66
(cgluon.html
BEAUTIFY
p67
c__builtin__
object
p68
NtRp69
(dp70
S'attributes'
p71
(dp72
sS'components'
p73
(lp74
g66
(cgluon.html
TABLE
p75
g68
NtRp76
(dp77
g71
(dp78
S'level'
p79
I5
ssS'parent'
p80
Nsg73
(lp81
g66
(cgluon.html
TR
p82
g68
NtRp83
(dp84
g71
(dp85
sg80
g76
sg73
(lp86
g66
(cgluon.html
TD
p87
g68
NtRp88
(dp89
g71
(dp90
S'_style'
p91
S'font-weight:bold;'
p92
ssg80
g83
sg73
(lp93
S'ajax'
p94
asbag66
(g87
g68
NtRp95
(dp96
g71
(dp97
S'_valign'
p98
S'top'
p99
ssg80
g83
sg73
(lp100
S':'
asbag66
(g87
g68
NtRp101
(dp102
g71
(dp103
sg80
g83
sg73
(lp104
g66
(g67
g68
NtRp105
(dp106
g71
(dp107
g79
I5
ssg80
g101
sg73
(lp108
S'False'
p109
asbasbasbag66
(g82
g68
NtRp110
(dp111
g71
(dp112
sg80
g76
sg73
(lp113
g66
(g87
g68
NtRp114
(dp115
g71
(dp116
g91
g92
ssg80
g110
sg73
(lp117
S'application'
p118
asbag66
(g87
g68
NtRp119
(dp120
g71
(dp121
g98
g99
ssg80
g110
sg73
(lp122
S':'
asbag66
(g87
g68
NtRp123
(dp124
g71
(dp125
sg80
g110
sg73
(lp126
g66
(g67
g68
NtRp127
(dp128
g71
(dp129
g79
I5
ssg80
g123
sg73
(lp130
S'cass1'
p131
asbasbasbag66
(g82
g68
NtRp132
(dp133
g71
(dp134
sg80
g76
sg73
(lp135
g66
(g87
g68
NtRp136
(dp137
g71
(dp138
g91
g92
ssg80
g132
sg73
(lp139
g50
asbag66
(g87
g68
NtRp140
(dp141
g71
(dp142
g98
g99
ssg80
g132
sg73
(lp143
S':'
asbag66
(g87
g68
NtRp144
(dp145
g71
(dp146
sg80
g132
sg73
(lp147
g66
(g67
g68
NtRp148
(dp149
g71
(dp150
g79
I5
ssg80
g144
sg73
(lp151
g66
(g75
g68
NtRp152
(dp153
g71
(dp154
g79
I4
ssg80
Nsg73
(lp155
sbasbasbasbag66
(g82
g68
NtRp156
(dp157
g71
(dp158
sg80
g76
sg73
(lp159
g66
(g87
g68
NtRp160
(dp161
g71
(dp162
g91
g92
ssg80
g156
sg73
(lp163
S'body'
p164
asbag66
(g87
g68
NtRp165
(dp166
g71
(dp167
g98
g99
ssg80
g156
sg73
(lp168
S':'
asbag66
(g87
g68
NtRp169
(dp170
g71
(dp171
sg80
g156
sg73
(lp172
g66
(g67
g68
NtRp173
(dp174
g71
(dp175
g79
I5
ssg80
g169
sg73
(lp176
S'<cStringIO.StringO object at 0x7f5e79ad3420>'
p177
asbasbasbag66
(g82
g68
NtRp178
(dp179
g71
(dp180
sg80
g76
sg73
(lp181
g66
(g87
g68
NtRp182
(dp183
g71
(dp184
g91
g92
ssg80
g178
sg73
(lp185
S'client'
p186
asbag66
(g87
g68
NtRp187
(dp188
g71
(dp189
g98
g99
ssg80
g178
sg73
(lp190
S':'
asbag66
(g87
g68
NtRp191
(dp192
g71
(dp193
sg80
g178
sg73
(lp194
g66
(g67
g68
NtRp195
(dp196
g71
(dp197
g79
I5
ssg80
g191
sg73
(lp198
S'127.0.0.1'
p199
asbasbasbag66
(g82
g68
NtRp200
(dp201
g71
(dp202
sg80
g76
sg73
(lp203
g66
(g87
g68
NtRp204
(dp205
g71
(dp206
g91
g92
ssg80
g200
sg73
(lp207
S'controller'
p208
asbag66
(g87
g68
NtRp209
(dp210
g71
(dp211
g98
g99
ssg80
g200
sg73
(lp212
S':'
asbag66
(g87
g68
NtRp213
(dp214
g71
(dp215
sg80
g200
sg73
(lp216
g66
(g67
g68
NtRp217
(dp218
g71
(dp219
g79
I5
ssg80
g213
sg73
(lp220
S'cass_mgr'
p221
asbasbasbag66
(g82
g68
NtRp222
(dp223
g71
(dp224
sg80
g76
sg73
(lp225
g66
(g87
g68
NtRp226
(dp227
g71
(dp228
g91
g92
ssg80
g222
sg73
(lp229
S'cookies'
p230
asbag66
(g87
g68
NtRp231
(dp232
g71
(dp233
g98
g99
ssg80
g222
sg73
(lp234
S':'
asbag66
(g87
g68
NtRp235
(dp236
g71
(dp237
sg80
g222
sg73
(lp238
g66
(g67
g68
NtRp239
(dp240
g71
(dp241
g79
I5
ssg80
g235
sg73
(lp242
g66
(g75
g68
NtRp243
(dp244
g71
(dp245
g79
I4
ssg80
Nsg73
(lp246
g66
(g82
g68
NtRp247
(dp248
g71
(dp249
sg80
g243
sg73
(lp250
g66
(g87
g68
NtRp251
(dp252
g71
(dp253
g91
g92
ssg80
g247
sg73
(lp254
S'session_id_admin'
p255
asbag66
(g87
g68
NtRp256
(dp257
g71
(dp258
g98
g99
ssg80
g247
sg73
(lp259
S':'
asbag66
(g87
g68
NtRp260
(dp261
g71
(dp262
sg80
g247
sg73
(lp263
g66
(g67
g68
NtRp264
(dp265
g71
(dp266
g79
I4
ssg80
g260
sg73
(lp267
g66
(g75
g68
NtRp268
(dp269
g71
(dp270
g79
I3
ssg80
Nsg73
(lp271
g66
(g82
g68
NtRp272
(dp273
g71
(dp274
sg80
g268
sg73
(lp275
g66
(g87
g68
NtRp276
(dp277
g71
(dp278
g91
g92
ssg80
g272
sg73
(lp279
S'comment'
p280
asbag66
(g87
g68
NtRp281
(dp282
g71
(dp283
g98
g99
ssg80
g272
sg73
(lp284
S':'
asbag66
(g87
g68
NtRp285
(dp286
g71
(dp287
sg80
g272
sg73
(lp288
g66
(g67
g68
NtRp289
(dp290
g71
(dp291
g79
I3
ssg80
g285
sg73
(lp292
S''
asbasbasbag66
(g82
g68
NtRp293
(dp294
g71
(dp295
sg80
g268
sg73
(lp296
g66
(g87
g68
NtRp297
(dp298
g71
(dp299
g91
g92
ssg80
g293
sg73
(lp300
S'domain'
p301
asbag66
(g87
g68
NtRp302
(dp303
g71
(dp304
g98
g99
ssg80
g293
sg73
(lp305
S':'
asbag66
(g87
g68
NtRp306
(dp307
g71
(dp308
sg80
g293
sg73
(lp309
g66
(g67
g68
NtRp310
(dp311
g71
(dp312
g79
I3
ssg80
g306
sg73
(lp313
S''
asbasbasbag66
(g82
g68
NtRp314
(dp315
g71
(dp316
sg80
g268
sg73
(lp317
g66
(g87
g68
NtRp318
(dp319
g71
(dp320
g91
g92
ssg80
g314
sg73
(lp321
S'expires'
p322
asbag66
(g87
g68
NtRp323
(dp324
g71
(dp325
g98
g99
ssg80
g314
sg73
(lp326
S':'
asbag66
(g87
g68
NtRp327
(dp328
g71
(dp329
sg80
g314
sg73
(lp330
g66
(g67
g68
NtRp331
(dp332
g71
(dp333
g79
I3
ssg80
g327
sg73
(lp334
S''
asbasbasbag66
(g82
g68
NtRp335
(dp336
g71
(dp337
sg80
g268
sg73
(lp338
g66
(g87
g68
NtRp339
(dp340
g71
(dp341
g91
g92
ssg80
g335
sg73
(lp342
S'httponly'
p343
asbag66
(g87
g68
NtRp344
(dp345
g71
(dp346
g98
g99
ssg80
g335
sg73
(lp347
S':'
asbag66
(g87
g68
NtRp348
(dp349
g71
(dp350
sg80
g335
sg73
(lp351
g66
(g67
g68
NtRp352
(dp353
g71
(dp354
g79
I3
ssg80
g348
sg73
(lp355
S''
asbasbasbag66
(g82
g68
NtRp356
(dp357
g71
(dp358
sg80
g268
sg73
(lp359
g66
(g87
g68
NtRp360
(dp361
g71
(dp362
g91
g92
ssg80
g356
sg73
(lp363
S'max-age'
p364
asbag66
(g87
g68
NtRp365
(dp366
g71
(dp367
g98
g99
ssg80
g356
sg73
(lp368
S':'
asbag66
(g87
g68
NtRp369
(dp370
g71
(dp371
sg80
g356
sg73
(lp372
g66
(g67
g68
NtRp373
(dp374
g71
(dp375
g79
I3
ssg80
g369
sg73
(lp376
S''
asbasbasbag66
(g82
g68
NtRp377
(dp378
g71
(dp379
sg80
g268
sg73
(lp380
g66
(g87
g68
NtRp381
(dp382
g71
(dp383
g91
g92
ssg80
g377
sg73
(lp384
S'path'
p385
asbag66
(g87
g68
NtRp386
(dp387
g71
(dp388
g98
g99
ssg80
g377
sg73
(lp389
S':'
asbag66
(g87
g68
NtRp390
(dp391
g71
(dp392
sg80
g377
sg73
(lp393
g66
(g67
g68
NtRp394
(dp395
g71
(dp396
g79
I3
ssg80
g390
sg73
(lp397
S''
asbasbasbag66
(g82
g68
NtRp398
(dp399
g71
(dp400
sg80
g268
sg73
(lp401
g66
(g87
g68
NtRp402
(dp403
g71
(dp404
g91
g92
ssg80
g398
sg73
(lp405
S'secure'
p406
asbag66
(g87
g68
NtRp407
(dp408
g71
(dp409
g98
g99
ssg80
g398
sg73
(lp410
S':'
asbag66
(g87
g68
NtRp411
(dp412
g71
(dp413
sg80
g398
sg73
(lp414
g66
(g67
g68
NtRp415
(dp416
g71
(dp417
g79
I3
ssg80
g411
sg73
(lp418
S''
asbasbasbag66
(g82
g68
NtRp419
(dp420
g71
(dp421
sg80
g268
sg73
(lp422
g66
(g87
g68
NtRp423
(dp424
g71
(dp425
g91
g92
ssg80
g419
sg73
(lp426
S'version'
p427
asbag66
(g87
g68
NtRp428
(dp429
g71
(dp430
g98
g99
ssg80
g419
sg73
(lp431
S':'
asbag66
(g87
g68
NtRp432
(dp433
g71
(dp434
sg80
g419
sg73
(lp435
g66
(g67
g68
NtRp436
(dp437
g71
(dp438
g79
I3
ssg80
g432
sg73
(lp439
S''
asbasbasbasbasbasbasbag66
(g82
g68
NtRp440
(dp441
g71
(dp442
sg80
g243
sg73
(lp443
g66
(g87
g68
NtRp444
(dp445
g71
(dp446
g91
g92
ssg80
g440
sg73
(lp447
S'session_id_cass1'
p448
asbag66
(g87
g68
NtRp449
(dp450
g71
(dp451
g98
g99
ssg80
g440
sg73
(lp452
S':'
asbag66
(g87
g68
NtRp453
(dp454
g71
(dp455
sg80
g440
sg73
(lp456
g66
(g67
g68
NtRp457
(dp458
g71
(dp459
g79
I4
ssg80
g453
sg73
(lp460
g66
(g75
g68
NtRp461
(dp462
g71
(dp463
g79
I3
ssg80
Nsg73
(lp464
g66
(g82
g68
NtRp465
(dp466
g71
(dp467
sg80
g461
sg73
(lp468
g66
(g87
g68
NtRp469
(dp470
g71
(dp471
g91
g92
ssg80
g465
sg73
(lp472
g280
asbag66
(g87
g68
NtRp473
(dp474
g71
(dp475
g98
g99
ssg80
g465
sg73
(lp476
S':'
asbag66
(g87
g68
NtRp477
(dp478
g71
(dp479
sg80
g465
sg73
(lp480
g66
(g67
g68
NtRp481
(dp482
g71
(dp483
g79
I3
ssg80
g477
sg73
(lp484
S''
asbasbasbag66
(g82
g68
NtRp485
(dp486
g71
(dp487
sg80
g461
sg73
(lp488
g66
(g87
g68
NtRp489
(dp490
g71
(dp491
g91
g92
ssg80
g485
sg73
(lp492
g301
asbag66
(g87
g68
NtRp493
(dp494
g71
(dp495
g98
g99
ssg80
g485
sg73
(lp496
S':'
asbag66
(g87
g68
NtRp497
(dp498
g71
(dp499
sg80
g485
sg73
(lp500
g66
(g67
g68
NtRp501
(dp502
g71
(dp503
g79
I3
ssg80
g497
sg73
(lp504
S''
asbasbasbag66
(g82
g68
NtRp505
(dp506
g71
(dp507
sg80
g461
sg73
(lp508
g66
(g87
g68
NtRp509
(dp510
g71
(dp511
g91
g92
ssg80
g505
sg73
(lp512
g322
asbag66
(g87
g68
NtRp513
(dp514
g71
(dp515
g98
g99
ssg80
g505
sg73
(lp516
S':'
asbag66
(g87
g68
NtRp517
(dp518
g71
(dp519
sg80
g505
sg73
(lp520
g66
(g67
g68
NtRp521
(dp522
g71
(dp523
g79
I3
ssg80
g517
sg73
(lp524
S''
asbasbasbag66
(g82
g68
NtRp525
(dp526
g71
(dp527
sg80
g461
sg73
(lp528
g66
(g87
g68
NtRp529
(dp530
g71
(dp531
g91
g92
ssg80
g525
sg73
(lp532
g343
asbag66
(g87
g68
NtRp533
(dp534
g71
(dp535
g98
g99
ssg80
g525
sg73
(lp536
S':'
asbag66
(g87
g68
NtRp537
(dp538
g71
(dp539
sg80
g525
sg73
(lp540
g66
(g67
g68
NtRp541
(dp542
g71
(dp543
g79
I3
ssg80
g537
sg73
(lp544
S''
asbasbasbag66
(g82
g68
NtRp545
(dp546
g71
(dp547
sg80
g461
sg73
(lp548
g66
(g87
g68
NtRp549
(dp550
g71
(dp551
g91
g92
ssg80
g545
sg73
(lp552
g364
asbag66
(g87
g68
NtRp553
(dp554
g71
(dp555
g98
g99
ssg80
g545
sg73
(lp556
S':'
asbag66
(g87
g68
NtRp557
(dp558
g71
(dp559
sg80
g545
sg73
(lp560
g66
(g67
g68
NtRp561
(dp562
g71
(dp563
g79
I3
ssg80
g557
sg73
(lp564
S''
asbasbasbag66
(g82
g68
NtRp565
(dp566
g71
(dp567
sg80
g461
sg73
(lp568
g66
(g87
g68
NtRp569
(dp570
g71
(dp571
g91
g92
ssg80
g565
sg73
(lp572
g385
asbag66
(g87
g68
NtRp573
(dp574
g71
(dp575
g98
g99
ssg80
g565
sg73
(lp576
S':'
asbag66
(g87
g68
NtRp577
(dp578
g71
(dp579
sg80
g565
sg73
(lp580
g66
(g67
g68
NtRp581
(dp582
g71
(dp583
g79
I3
ssg80
g577
sg73
(lp584
S''
asbasbasbag66
(g82
g68
NtRp585
(dp586
g71
(dp587
sg80
g461
sg73
(lp588
g66
(g87
g68
NtRp589
(dp590
g71
(dp591
g91
g92
ssg80
g585
sg73
(lp592
g406
asbag66
(g87
g68
NtRp593
(dp594
g71
(dp595
g98
g99
ssg80
g585
sg73
(lp596
S':'
asbag66
(g87
g68
NtRp597
(dp598
g71
(dp599
sg80
g585
sg73
(lp600
g66
(g67
g68
NtRp601
(dp602
g71
(dp603
g79
I3
ssg80
g597
sg73
(lp604
S''
asbasbasbag66
(g82
g68
NtRp605
(dp606
g71
(dp607
sg80
g461
sg73
(lp608
g66
(g87
g68
NtRp609
(dp610
g71
(dp611
g91
g92
ssg80
g605
sg73
(lp612
g427
asbag66
(g87
g68
NtRp613
(dp614
g71
(dp615
g98
g99
ssg80
g605
sg73
(lp616
S':'
asbag66
(g87
g68
NtRp617
(dp618
g71
(dp619
sg80
g605
sg73
(lp620
g66
(g67
g68
NtRp621
(dp622
g71
(dp623
g79
I3
ssg80
g617
sg73
(lp624
S''
asbasbasbasbasbasbasbag66
(g82
g68
NtRp625
(dp626
g71
(dp627
sg80
g243
sg73
(lp628
g66
(g87
g68
NtRp629
(dp630
g71
(dp631
g91
g92
ssg80
g625
sg73
(lp632
S'session_id_welcome'
p633
asbag66
(g87
g68
NtRp634
(dp635
g71
(dp636
g98
g99
ssg80
g625
sg73
(lp637
S':'
asbag66
(g87
g68
NtRp638
(dp639
g71
(dp640
sg80
g625
sg73
(lp641
g66
(g67
g68
NtRp642
(dp643
g71
(dp644
g79
I4
ssg80
g638
sg73
(lp645
g66
(g75
g68
NtRp646
(dp647
g71
(dp648
g79
I3
ssg80
Nsg73
(lp649
g66
(g82
g68
NtRp650
(dp651
g71
(dp652
sg80
g646
sg73
(lp653
g66
(g87
g68
NtRp654
(dp655
g71
(dp656
g91
g92
ssg80
g650
sg73
(lp657
g280
asbag66
(g87
g68
NtRp658
(dp659
g71
(dp660
g98
g99
ssg80
g650
sg73
(lp661
S':'
asbag66
(g87
g68
NtRp662
(dp663
g71
(dp664
sg80
g650
sg73
(lp665
g66
(g67
g68
NtRp666
(dp667
g71
(dp668
g79
I3
ssg80
g662
sg73
(lp669
S''
asbasbasbag66
(g82
g68
NtRp670
(dp671
g71
(dp672
sg80
g646
sg73
(lp673
g66
(g87
g68
NtRp674
(dp675
g71
(dp676
g91
g92
ssg80
g670
sg73
(lp677
g301
asbag66
(g87
g68
NtRp678
(dp679
g71
(dp680
g98
g99
ssg80
g670
sg73
(lp681
S':'
asbag66
(g87
g68
NtRp682
(dp683
g71
(dp684
sg80
g670
sg73
(lp685
g66
(g67
g68
NtRp686
(dp687
g71
(dp688
g79
I3
ssg80
g682
sg73
(lp689
S''
asbasbasbag66
(g82
g68
NtRp690
(dp691
g71
(dp692
sg80
g646
sg73
(lp693
g66
(g87
g68
NtRp694
(dp695
g71
(dp696
g91
g92
ssg80
g690
sg73
(lp697
g322
asbag66
(g87
g68
NtRp698
(dp699
g71
(dp700
g98
g99
ssg80
g690
sg73
(lp701
S':'
asbag66
(g87
g68
NtRp702
(dp703
g71
(dp704
sg80
g690
sg73
(lp705
g66
(g67
g68
NtRp706
(dp707
g71
(dp708
g79
I3
ssg80
g702
sg73
(lp709
S''
asbasbasbag66
(g82
g68
NtRp710
(dp711
g71
(dp712
sg80
g646
sg73
(lp713
g66
(g87
g68
NtRp714
(dp715
g71
(dp716
g91
g92
ssg80
g710
sg73
(lp717
g343
asbag66
(g87
g68
NtRp718
(dp719
g71
(dp720
g98
g99
ssg80
g710
sg73
(lp721
S':'
asbag66
(g87
g68
NtRp722
(dp723
g71
(dp724
sg80
g710
sg73
(lp725
g66
(g67
g68
NtRp726
(dp727
g71
(dp728
g79
I3
ssg80
g722
sg73
(lp729
S''
asbasbasbag66
(g82
g68
NtRp730
(dp731
g71
(dp732
sg80
g646
sg73
(lp733
g66
(g87
g68
NtRp734
(dp735
g71
(dp736
g91
g92
ssg80
g730
sg73
(lp737
g364
asbag66
(g87
g68
NtRp738
(dp739
g71
(dp740
g98
g99
ssg80
g730
sg73
(lp741
S':'
asbag66
(g87
g68
NtRp742
(dp743
g71
(dp744
sg80
g730
sg73
(lp745
g66
(g67
g68
NtRp746
(dp747
g71
(dp748
g79
I3
ssg80
g742
sg73
(lp749
S''
asbasbasbag66
(g82
g68
NtRp750
(dp751
g71
(dp752
sg80
g646
sg73
(lp753
g66
(g87
g68
NtRp754
(dp755
g71
(dp756
g91
g92
ssg80
g750
sg73
(lp757
g385
asbag66
(g87
g68
NtRp758
(dp759
g71
(dp760
g98
g99
ssg80
g750
sg73
(lp761
S':'
asbag66
(g87
g68
NtRp762
(dp763
g71
(dp764
sg80
g750
sg73
(lp765
g66
(g67
g68
NtRp766
(dp767
g71
(dp768
g79
I3
ssg80
g762
sg73
(lp769
S''
asbasbasbag66
(g82
g68
NtRp770
(dp771
g71
(dp772
sg80
g646
sg73
(lp773
g66
(g87
g68
NtRp774
(dp775
g71
(dp776
g91
g92
ssg80
g770
sg73
(lp777
g406
asbag66
(g87
g68
NtRp778
(dp779
g71
(dp780
g98
g99
ssg80
g770
sg73
(lp781
S':'
asbag66
(g87
g68
NtRp782
(dp783
g71
(dp784
sg80
g770
sg73
(lp785
g66
(g67
g68
NtRp786
(dp787
g71
(dp788
g79
I3
ssg80
g782
sg73
(lp789
S''
asbasbasbag66
(g82
g68
NtRp790
(dp791
g71
(dp792
sg80
g646
sg73
(lp793
g66
(g87
g68
NtRp794
(dp795
g71
(dp796
g91
g92
ssg80
g790
sg73
(lp797
g427
asbag66
(g87
g68
NtRp798
(dp799
g71
(dp800
g98
g99
ssg80
g790
sg73
(lp801
S':'
asbag66
(g87
g68
NtRp802
(dp803
g71
(dp804
sg80
g790
sg73
(lp805
g66
(g67
g68
NtRp806
(dp807
g71
(dp808
g79
I3
ssg80
g802
sg73
(lp809
S''
asbasbasbasbasbasbasbasbasbasbasbag66
(g82
g68
NtRp810
(dp811
g71
(dp812
sg80
g76
sg73
(lp813
g66
(g87
g68
NtRp814
(dp815
g71
(dp816
g91
g92
ssg80
g810
sg73
(lp817
S'env'
p818
asbag66
(g87
g68
NtRp819
(dp820
g71
(dp821
g98
g99
ssg80
g810
sg73
(lp822
S':'
asbag66
(g87
g68
NtRp823
(dp824
g71
(dp825
sg80
g810
sg73
(lp826
g66
(g67
g68
NtRp827
(dp828
g71
(dp829
g79
I5
ssg80
g823
sg73
(lp830
g66
(g75
g68
NtRp831
(dp832
g71
(dp833
g79
I4
ssg80
Nsg73
(lp834
g66
(g82
g68
NtRp835
(dp836
g71
(dp837
sg80
g831
sg73
(lp838
g66
(g87
g68
NtRp839
(dp840
g71
(dp841
g91
g92
ssg80
g835
sg73
(lp842
S'app_folders'
p843
asbag66
(g87
g68
NtRp844
(dp845
g71
(dp846
g98
g99
ssg80
g835
sg73
(lp847
S':'
asbag66
(g87
g68
NtRp848
(dp849
g71
(dp850
sg80
g835
sg73
(lp851
g66
(g67
g68
NtRp852
(dp853
g71
(dp854
g79
I4
ssg80
g848
sg73
(lp855
S"set(['/opt/work/projects/web2py/applications/admin/', '/opt/work/projects/web2py/applications/cass1/', '/opt/work/projects/web2py/applications/welcome/'])"
p856
asbasbasbag66
(g82
g68
NtRp857
(dp858
g71
(dp859
sg80
g831
sg73
(lp860
g66
(g87
g68
NtRp861
(dp862
g71
(dp863
g91
g92
ssg80
g857
sg73
(lp864
S'applications_parent'
p865
asbag66
(g87
g68
NtRp866
(dp867
g71
(dp868
g98
g99
ssg80
g857
sg73
(lp869
S':'
asbag66
(g87
g68
NtRp870
(dp871
g71
(dp872
sg80
g857
sg73
(lp873
g66
(g67
g68
NtRp874
(dp875
g71
(dp876
g79
I4
ssg80
g870
sg73
(lp877
S'/opt/work/projects/web2py'
p878
asbasbasbag66
(g82
g68
NtRp879
(dp880
g71
(dp881
sg80
g831
sg73
(lp882
g66
(g87
g68
NtRp883
(dp884
g71
(dp885
g91
g92
ssg80
g879
sg73
(lp886
S'cmd_args'
p887
asbag66
(g87
g68
NtRp888
(dp889
g71
(dp890
g98
g99
ssg80
g879
sg73
(lp891
S':'
asbag66
(g87
g68
NtRp892
(dp893
g71
(dp894
sg80
g879
sg73
(lp895
g66
(g67
g68
NtRp896
(dp897
g71
(dp898
g79
I4
ssg80
g892
sg73
(lp899
g66
(g75
g68
NtRp900
(dp901
g71
(dp902
g79
I3
ssg80
Nsg73
(lp903
sbasbasbasbag66
(g82
g68
NtRp904
(dp905
g71
(dp906
sg80
g831
sg73
(lp907
g66
(g87
g68
NtRp908
(dp909
g71
(dp910
g91
g92
ssg80
g904
sg73
(lp911
S'cmd_options'
p912
asbag66
(g87
g68
NtRp913
(dp914
g71
(dp915
g98
g99
ssg80
g904
sg73
(lp916
S':'
asbag66
(g87
g68
NtRp917
(dp918
g71
(dp919
sg80
g904
sg73
(lp920
g66
(g67
g68
NtRp921
(dp922
g71
(dp923
g79
I4
ssg80
g917
sg73
(lp924
S"<Values at 0x2cfb8c0: {'verbose': False, 'ip': '127.0.0.1', 'shutdown_timeout': 5, 'taskbar': False, 'nocron': False, 'pid_filename': 'httpserver.pid', 'maxthreads': None, 'softcron': False, 'server_name': 'games105linux.doomstuff.local', 'bpython': False, 'nogui': False, 'port': 8000, 'extcron': False, 'debuglevel': 30, 'test': None, 'folder': '/opt/work/projects/web2py', 'config': '', 'import_models': False, 'winservice': '', 'shell': None, 'run': '', 'log_filename': 'httpserver.log', 'args': [''], 'ssl_ca_certificate': None, 'scheduler': None, 'profiler_filename': None, 'ssl_private_key': '', 'password': 'testing', 'request_queue_size': 5, 'ssl_certificate': '', 'cronjob': False, 'plain': False, 'quiet': False, 'interfaces': None, 'minthreads': None, 'timeout': 10, 'numthreads': None, 'nobanner': False}>"
p925
asbasbasbag66
(g82
g68
NtRp926
(dp927
g71
(dp928
sg80
g831
sg73
(lp929
g66
(g87
g68
NtRp930
(dp931
g71
(dp932
g91
g92
ssg80
g926
sg73
(lp933
S'db_sessions'
p934
asbag66
(g87
g68
NtRp935
(dp936
g71
(dp937
g98
g99
ssg80
g926
sg73
(lp938
S':'
asbag66
(g87
g68
NtRp939
(dp940
g71
(dp941
sg80
g926
sg73
(lp942
g66
(g67
g68
NtRp943
(dp944
g71
(dp945
g79
I4
ssg80
g939
sg73
(lp946
S'set([])'
p947
asbasbasbag66
(g82
g68
NtRp948
(dp949
g71
(dp950
sg80
g831
sg73
(lp951
g66
(g87
g68
NtRp952
(dp953
g71
(dp954
g91
g92
ssg80
g948
sg73
(lp955
S'debugging'
p956
asbag66
(g87
g68
NtRp957
(dp958
g71
(dp959
g98
g99
ssg80
g948
sg73
(lp960
S':'
asbag66
(g87
g68
NtRp961
(dp962
g71
(dp963
sg80
g948
sg73
(lp964
g66
(g67
g68
NtRp965
(dp966
g71
(dp967
g79
I4
ssg80
g961
sg73
(lp968
g109
asbasbasbag66
(g82
g68
NtRp969
(dp970
g71
(dp971
sg80
g831
sg73
(lp972
g66
(g87
g68
NtRp973
(dp974
g71
(dp975
g91
g92
ssg80
g969
sg73
(lp976
S'gluon_parent'
p977
asbag66
(g87
g68
NtRp978
(dp979
g71
(dp980
g98
g99
ssg80
g969
sg73
(lp981
S':'
asbag66
(g87
g68
NtRp982
(dp983
g71
(dp984
sg80
g969
sg73
(lp985
g66
(g67
g68
NtRp986
(dp987
g71
(dp988
g79
I4
ssg80
g982
sg73
(lp989
S'/opt/work/projects/web2py'
p990
asbasbasbag66
(g82
g68
NtRp991
(dp992
g71
(dp993
sg80
g831
sg73
(lp994
g66
(g87
g68
NtRp995
(dp996
g71
(dp997
g91
g92
ssg80
g991
sg73
(lp998
S'http_accept'
p999
asbag66
(g87
g68
NtRp1000
(dp1001
g71
(dp1002
g98
g99
ssg80
g991
sg73
(lp1003
S':'
asbag66
(g87
g68
NtRp1004
(dp1005
g71
(dp1006
sg80
g991
sg73
(lp1007
g66
(g67
g68
NtRp1008
(dp1009
g71
(dp1010
g79
I4
ssg80
g1004
sg73
(lp1011
S'text/html,application/xhtml+xml,application/xml;q=0.9,*/*;q=0.8'
p1012
asbasbasbag66
(g82
g68
NtRp1013
(dp1014
g71
(dp1015
sg80
g831
sg73
(lp1016
g66
(g87
g68
NtRp1017
(dp1018
g71
(dp1019
g91
g92
ssg80
g1013
sg73
(lp1020
S'http_accept_charset'
p1021
asbag66
(g87
g68
NtRp1022
(dp1023
g71
(dp1024
g98
g99
ssg80
g1013
sg73
(lp1025
S':'
asbag66
(g87
g68
NtRp1026
(dp1027
g71
(dp1028
sg80
g1013
sg73
(lp1029
g66
(g67
g68
NtRp1030
(dp1031
g71
(dp1032
g79
I4
ssg80
g1026
sg73
(lp1033
S'ISO-8859-1,utf-8;q=0.7,*;q=0.3'
p1034
asbasbasbag66
(g82
g68
NtRp1035
(dp1036
g71
(dp1037
sg80
g831
sg73
(lp1038
g66
(g87
g68
NtRp1039
(dp1040
g71
(dp1041
g91
g92
ssg80
g1035
sg73
(lp1042
S'http_accept_encoding'
p1043
asbag66
(g87
g68
NtRp1044
(dp1045
g71
(dp1046
g98
g99
ssg80
g1035
sg73
(lp1047
S':'
asbag66
(g87
g68
NtRp1048
(dp1049
g71
(dp1050
sg80
g1035
sg73
(lp1051
g66
(g67
g68
NtRp1052
(dp1053
g71
(dp1054
g79
I4
ssg80
g1048
sg73
(lp1055
S'gzip,deflate,sdch'
p1056
asbasbasbag66
(g82
g68
NtRp1057
(dp1058
g71
(dp1059
sg80
g831
sg73
(lp1060
g66
(g87
g68
NtRp1061
(dp1062
g71
(dp1063
g91
g92
ssg80
g1057
sg73
(lp1064
S'http_accept_language'
p1065
asbag66
(g87
g68
NtRp1066
(dp1067
g71
(dp1068
g98
g99
ssg80
g1057
sg73
(lp1069
S':'
asbag66
(g87
g68
NtRp1070
(dp1071
g71
(dp1072
sg80
g1057
sg73
(lp1073
g66
(g67
g68
NtRp1074
(dp1075
g71
(dp1076
g79
I4
ssg80
g1070
sg73
(lp1077
S'en-GB,en-US;q=0.8,en;q=0.6'
p1078
asbasbasbag66
(g82
g68
NtRp1079
(dp1080
g71
(dp1081
sg80
g831
sg73
(lp1082
g66
(g87
g68
NtRp1083
(dp1084
g71
(dp1085
g91
g92
ssg80
g1079
sg73
(lp1086
S'http_cache_control'
p1087
asbag66
(g87
g68
NtRp1088
(dp1089
g71
(dp1090
g98
g99
ssg80
g1079
sg73
(lp1091
S':'
asbag66
(g87
g68
NtRp1092
(dp1093
g71
(dp1094
sg80
g1079
sg73
(lp1095
g66
(g67
g68
NtRp1096
(dp1097
g71
(dp1098
g79
I4
ssg80
g1092
sg73
(lp1099
S'max-age=0'
p1100
asbasbasbag66
(g82
g68
NtRp1101
(dp1102
g71
(dp1103
sg80
g831
sg73
(lp1104
g66
(g87
g68
NtRp1105
(dp1106
g71
(dp1107
g91
g92
ssg80
g1101
sg73
(lp1108
S'http_connection'
p1109
asbag66
(g87
g68
NtRp1110
(dp1111
g71
(dp1112
g98
g99
ssg80
g1101
sg73
(lp1113
S':'
asbag66
(g87
g68
NtRp1114
(dp1115
g71
(dp1116
sg80
g1101
sg73
(lp1117
g66
(g67
g68
NtRp1118
(dp1119
g71
(dp1120
g79
I4
ssg80
g1114
sg73
(lp1121
S'keep-alive'
p1122
asbasbasbag66
(g82
g68
NtRp1123
(dp1124
g71
(dp1125
sg80
g831
sg73
(lp1126
g66
(g87
g68
NtRp1127
(dp1128
g71
(dp1129
g91
g92
ssg80
g1123
sg73
(lp1130
S'http_cookie'
p1131
asbag66
(g87
g68
NtRp1132
(dp1133
g71
(dp1134
g98
g99
ssg80
g1123
sg73
(lp1135
S':'
asbag66
(g87
g68
NtRp1136
(dp1137
g71
(dp1138
sg80
g1123
sg73
(lp1139
g66
(g67
g68
NtRp1140
(dp1141
g71
(dp1142
g79
I4
ssg80
g1136
sg73
(lp1143
S'session_id_welcome=127.0.0.1-453bce1e-2007-4a40-bfe5-370926afe117; session_id_admin=127.0.0.1-7545defa-de9d-4c37-be02-8357c65a1c8e; session_id_cass1=127.0.0.1-6fe6a3f9-2307-46a2-954a-6299fc7a60ca'
p1144
asbasbasbag66
(g82
g68
NtRp1145
(dp1146
g71
(dp1147
sg80
g831
sg73
(lp1148
g66
(g87
g68
NtRp1149
(dp1150
g71
(dp1151
g91
g92
ssg80
g1145
sg73
(lp1152
S'http_host'
p1153
asbag66
(g87
g68
NtRp1154
(dp1155
g71
(dp1156
g98
g99
ssg80
g1145
sg73
(lp1157
S':'
asbag66
(g87
g68
NtRp1158
(dp1159
g71
(dp1160
sg80
g1145
sg73
(lp1161
g66
(g67
g68
NtRp1162
(dp1163
g71
(dp1164
g79
I4
ssg80
g1158
sg73
(lp1165
S'127.0.0.1:8000'
p1166
asbasbasbag66
(g82
g68
NtRp1167
(dp1168
g71
(dp1169
sg80
g831
sg73
(lp1170
g66
(g87
g68
NtRp1171
(dp1172
g71
(dp1173
g91
g92
ssg80
g1167
sg73
(lp1174
S'http_referer'
p1175
asbag66
(g87
g68
NtRp1176
(dp1177
g71
(dp1178
g98
g99
ssg80
g1167
sg73
(lp1179
S':'
asbag66
(g87
g68
NtRp1180
(dp1181
g71
(dp1182
sg80
g1167
sg73
(lp1183
g66
(g67
g68
NtRp1184
(dp1185
g71
(dp1186
g79
I4
ssg80
g1180
sg73
(lp1187
S'http://127.0.0.1:8000/cass1/'
p1188
asbasbasbag66
(g82
g68
NtRp1189
(dp1190
g71
(dp1191
sg80
g831
sg73
(lp1192
g66
(g87
g68
NtRp1193
(dp1194
g71
(dp1195
g91
g92
ssg80
g1189
sg73
(lp1196
S'http_user_agent'
p1197
asbag66
(g87
g68
NtRp1198
(dp1199
g71
(dp1200
g98
g99
ssg80
g1189
sg73
(lp1201
S':'
asbag66
(g87
g68
NtRp1202
(dp1203
g71
(dp1204
sg80
g1189
sg73
(lp1205
g66
(g67
g68
NtRp1206
(dp1207
g71
(dp1208
g79
I4
ssg80
g1202
sg73
(lp1209
S'Mozilla/5.0 (X11; Linux x86_64) AppleWebKit/535.1 (KHTML, like Gecko) Chrome/14.0.835.186 Safari/535.1'
p1210
asbasbasbag66
(g82
g68
NtRp1211
(dp1212
g71
(dp1213
sg80
g831
sg73
(lp1214
g66
(g87
g68
NtRp1215
(dp1216
g71
(dp1217
g91
g92
ssg80
g1211
sg73
(lp1218
S'is_jython'
p1219
asbag66
(g87
g68
NtRp1220
(dp1221
g71
(dp1222
g98
g99
ssg80
g1211
sg73
(lp1223
S':'
asbag66
(g87
g68
NtRp1224
(dp1225
g71
(dp1226
sg80
g1211
sg73
(lp1227
g66
(g67
g68
NtRp1228
(dp1229
g71
(dp1230
g79
I4
ssg80
g1224
sg73
(lp1231
g109
asbasbasbag66
(g82
g68
NtRp1232
(dp1233
g71
(dp1234
sg80
g831
sg73
(lp1235
g66
(g87
g68
NtRp1236
(dp1237
g71
(dp1238
g91
g92
ssg80
g1232
sg73
(lp1239
S'path_info'
p1240
asbag66
(g87
g68
NtRp1241
(dp1242
g71
(dp1243
g98
g99
ssg80
g1232
sg73
(lp1244
S':'
asbag66
(g87
g68
NtRp1245
(dp1246
g71
(dp1247
sg80
g1232
sg73
(lp1248
g66
(g67
g68
NtRp1249
(dp1250
g71
(dp1251
g79
I4
ssg80
g1245
sg73
(lp1252
S'/cass1/cass_mgr/index'
p1253
asbasbasbag66
(g82
g68
NtRp1254
(dp1255
g71
(dp1256
sg80
g831
sg73
(lp1257
g66
(g87
g68
NtRp1258
(dp1259
g71
(dp1260
g91
g92
ssg80
g1254
sg73
(lp1261
S'query_string'
p1262
asbag66
(g87
g68
NtRp1263
(dp1264
g71
(dp1265
g98
g99
ssg80
g1254
sg73
(lp1266
S':'
asbag66
(g87
g68
NtRp1267
(dp1268
g71
(dp1269
sg80
g1254
sg73
(lp1270
g66
(g67
g68
NtRp1271
(dp1272
g71
(dp1273
g79
I4
ssg80
g1267
sg73
(lp1274
S''
asbasbasbag66
(g82
g68
NtRp1275
(dp1276
g71
(dp1277
sg80
g831
sg73
(lp1278
g66
(g87
g68
NtRp1279
(dp1280
g71
(dp1281
g91
g92
ssg80
g1275
sg73
(lp1282
S'remote_addr'
p1283
asbag66
(g87
g68
NtRp1284
(dp1285
g71
(dp1286
g98
g99
ssg80
g1275
sg73
(lp1287
S':'
asbag66
(g87
g68
NtRp1288
(dp1289
g71
(dp1290
sg80
g1275
sg73
(lp1291
g66
(g67
g68
NtRp1292
(dp1293
g71
(dp1294
g79
I4
ssg80
g1288
sg73
(lp1295
g199
asbasbasbag66
(g82
g68
NtRp1296
(dp1297
g71
(dp1298
sg80
g831
sg73
(lp1299
g66
(g87
g68
NtRp1300
(dp1301
g71
(dp1302
g91
g92
ssg80
g1296
sg73
(lp1303
S'remote_port'
p1304
asbag66
(g87
g68
NtRp1305
(dp1306
g71
(dp1307
g98
g99
ssg80
g1296
sg73
(lp1308
S':'
asbag66
(g87
g68
NtRp1309
(dp1310
g71
(dp1311
sg80
g1296
sg73
(lp1312
g66
(g67
g68
NtRp1313
(dp1314
g71
(dp1315
g79
I4
ssg80
g1309
sg73
(lp1316
S'58832'
p1317
asbasbasbag66
(g82
g68
NtRp1318
(dp1319
g71
(dp1320
sg80
g831
sg73
(lp1321
g66
(g87
g68
NtRp1322
(dp1323
g71
(dp1324
g91
g92
ssg80
g1318
sg73
(lp1325
S'request_method'
p1326
asbag66
(g87
g68
NtRp1327
(dp1328
g71
(dp1329
g98
g99
ssg80
g1318
sg73
(lp1330
S':'
asbag66
(g87
g68
NtRp1331
(dp1332
g71
(dp1333
sg80
g1318
sg73
(lp1334
g66
(g67
g68
NtRp1335
(dp1336
g71
(dp1337
g79
I4
ssg80
g1331
sg73
(lp1338
S'GET'
p1339
asbasbasbag66
(g82
g68
NtRp1340
(dp1341
g71
(dp1342
sg80
g831
sg73
(lp1343
g66
(g87
g68
NtRp1344
(dp1345
g71
(dp1346
g91
g92
ssg80
g1340
sg73
(lp1347
S'script_name'
p1348
asbag66
(g87
g68
NtRp1349
(dp1350
g71
(dp1351
g98
g99
ssg80
g1340
sg73
(lp1352
S':'
asbag66
(g87
g68
NtRp1353
(dp1354
g71
(dp1355
sg80
g1340
sg73
(lp1356
g66
(g67
g68
NtRp1357
(dp1358
g71
(dp1359
g79
I4
ssg80
g1353
sg73
(lp1360
S''
asbasbasbag66
(g82
g68
NtRp1361
(dp1362
g71
(dp1363
sg80
g831
sg73
(lp1364
g66
(g87
g68
NtRp1365
(dp1366
g71
(dp1367
g91
g92
ssg80
g1361
sg73
(lp1368
S'server_name'
p1369
asbag66
(g87
g68
NtRp1370
(dp1371
g71
(dp1372
g98
g99
ssg80
g1361
sg73
(lp1373
S':'
asbag66
(g87
g68
NtRp1374
(dp1375
g71
(dp1376
sg80
g1361
sg73
(lp1377
g66
(g67
g68
NtRp1378
(dp1379
g71
(dp1380
g79
I4
ssg80
g1374
sg73
(lp1381
S'games105linux.doomstuff.local'
p1382
asbasbasbag66
(g82
g68
NtRp1383
(dp1384
g71
(dp1385
sg80
g831
sg73
(lp1386
g66
(g87
g68
NtRp1387
(dp1388
g71
(dp1389
g91
g92
ssg80
g1383
sg73
(lp1390
S'server_port'
p1391
asbag66
(g87
g68
NtRp1392
(dp1393
g71
(dp1394
g98
g99
ssg80
g1383
sg73
(lp1395
S':'
asbag66
(g87
g68
NtRp1396
(dp1397
g71
(dp1398
sg80
g1383
sg73
(lp1399
g66
(g67
g68
NtRp1400
(dp1401
g71
(dp1402
g79
I4
ssg80
g1396
sg73
(lp1403
S'8000'
p1404
asbasbasbag66
(g82
g68
NtRp1405
(dp1406
g71
(dp1407
sg80
g831
sg73
(lp1408
g66
(g87
g68
NtRp1409
(dp1410
g71
(dp1411
g91
g92
ssg80
g1405
sg73
(lp1412
S'server_protocol'
p1413
asbag66
(g87
g68
NtRp1414
(dp1415
g71
(dp1416
g98
g99
ssg80
g1405
sg73
(lp1417
S':'
asbag66
(g87
g68
NtRp1418
(dp1419
g71
(dp1420
sg80
g1405
sg73
(lp1421
g66
(g67
g68
NtRp1422
(dp1423
g71
(dp1424
g79
I4
ssg80
g1418
sg73
(lp1425
S'HTTP/1.1'
p1426
asbasbasbag66
(g82
g68
NtRp1427
(dp1428
g71
(dp1429
sg80
g831
sg73
(lp1430
g66
(g87
g68
NtRp1431
(dp1432
g71
(dp1433
g91
g92
ssg80
g1427
sg73
(lp1434
S'server_software'
p1435
asbag66
(g87
g68
NtRp1436
(dp1437
g71
(dp1438
g98
g99
ssg80
g1427
sg73
(lp1439
S':'
asbag66
(g87
g68
NtRp1440
(dp1441
g71
(dp1442
sg80
g1427
sg73
(lp1443
g66
(g67
g68
NtRp1444
(dp1445
g71
(dp1446
g79
I4
ssg80
g1440
sg73
(lp1447
S'Rocket 1.2.4'
p1448
asbasbasbag66
(g82
g68
NtRp1449
(dp1450
g71
(dp1451
sg80
g831
sg73
(lp1452
g66
(g87
g68
NtRp1453
(dp1454
g71
(dp1455
g91
g92
ssg80
g1449
sg73
(lp1456
S'web2py_crontype'
p1457
asbag66
(g87
g68
NtRp1458
(dp1459
g71
(dp1460
g98
g99
ssg80
g1449
sg73
(lp1461
S':'
asbag66
(g87
g68
NtRp1462
(dp1463
g71
(dp1464
sg80
g1449
sg73
(lp1465
g66
(g67
g68
NtRp1466
(dp1467
g71
(dp1468
g79
I4
ssg80
g1462
sg73
(lp1469
S'hard'
p1470
asbasbasbag66
(g82
g68
NtRp1471
(dp1472
g71
(dp1473
sg80
g831
sg73
(lp1474
g66
(g87
g68
NtRp1475
(dp1476
g71
(dp1477
g91
g92
ssg80
g1471
sg73
(lp1478
S'web2py_path'
p1479
asbag66
(g87
g68
NtRp1480
(dp1481
g71
(dp1482
g98
g99
ssg80
g1471
sg73
(lp1483
S':'
asbag66
(g87
g68
NtRp1484
(dp1485
g71
(dp1486
sg80
g1471
sg73
(lp1487
g66
(g67
g68
NtRp1488
(dp1489
g71
(dp1490
g79
I4
ssg80
g1484
sg73
(lp1491
g878
asbasbasbag66
(g82
g68
NtRp1492
(dp1493
g71
(dp1494
sg80
g831
sg73
(lp1495
g66
(g87
g68
NtRp1496
(dp1497
g71
(dp1498
g91
g92
ssg80
g1492
sg73
(lp1499
S'web2py_version'
p1500
asbag66
(g87
g68
NtRp1501
(dp1502
g71
(dp1503
g98
g99
ssg80
g1492
sg73
(lp1504
S':'
asbag66
(g87
g68
NtRp1505
(dp1506
g71
(dp1507
sg80
g1492
sg73
(lp1508
g66
(g67
g68
NtRp1509
(dp1510
g71
(dp1511
g79
I4
ssg80
g1505
sg73
(lp1512
g66
(g75
g68
NtRp1513
(dp1514
g71
(dp1515
g79
I3
ssg80
Nsg73
(lp1516
g66
(g82
g68
NtRp1517
(dp1518
g71
(dp1519
sg80
g1513
sg73
(lp1520
g66
(g87
g68
NtRp1521
(dp1522
g71
(dp1523
sg80
g1517
sg73
(lp1524
g66
(g67
g68
NtRp1525
(dp1526
g71
(dp1527
g79
I3
ssg80
g1521
sg73
(lp1528
S'1'
asbasbasbag66
(g82
g68
NtRp1529
(dp1530
g71
(dp1531
sg80
g1513
sg73
(lp1532
g66
(g87
g68
NtRp1533
(dp1534
g71
(dp1535
sg80
g1529
sg73
(lp1536
g66
(g67
g68
NtRp1537
(dp1538
g71
(dp1539
g79
I3
ssg80
g1533
sg73
(lp1540
S'99'
p1541
asbasbasbag66
(g82
g68
NtRp1542
(dp1543
g71
(dp1544
sg80
g1513
sg73
(lp1545
g66
(g87
g68
NtRp1546
(dp1547
g71
(dp1548
sg80
g1542
sg73
(lp1549
g66
(g67
g68
NtRp1550
(dp1551
g71
(dp1552
g79
I3
ssg80
g1546
sg73
(lp1553
S'2'
asbasbasbag66
(g82
g68
NtRp1554
(dp1555
g71
(dp1556
sg80
g1513
sg73
(lp1557
g66
(g87
g68
NtRp1558
(dp1559
g71
(dp1560
sg80
g1554
sg73
(lp1561
g66
(g67
g68
NtRp1562
(dp1563
g71
(dp1564
g79
I3
ssg80
g1558
sg73
(lp1565
S'datetime.datetime(2011, 9, 26, 6, 55, 33)'
p1566
asbasbasbag66
(g82
g68
NtRp1567
(dp1568
g71
(dp1569
sg80
g1513
sg73
(lp1570
g66
(g87
g68
NtRp1571
(dp1572
g71
(dp1573
sg80
g1567
sg73
(lp1574
g66
(g67
g68
NtRp1575
(dp1576
g71
(dp1577
g79
I3
ssg80
g1571
sg73
(lp1578
S'stable'
p1579
asbasbasbasbasbasbasbag66
(g82
g68
NtRp1580
(dp1581
g71
(dp1582
sg80
g831
sg73
(lp1583
g66
(g87
g68
NtRp1584
(dp1585
g71
(dp1586
g91
g92
ssg80
g1580
sg73
(lp1587
S'wsgi_errors'
p1588
asbag66
(g87
g68
NtRp1589
(dp1590
g71
(dp1591
g98
g99
ssg80
g1580
sg73
(lp1592
S':'
asbag66
(g87
g68
NtRp1593
(dp1594
g71
(dp1595
sg80
g1580
sg73
(lp1596
g66
(g67
g68
NtRp1597
(dp1598
g71
(dp1599
g79
I4
ssg80
g1593
sg73
(lp1600
S"<open file '<stderr>', mode 'w' at 0x7f5e90977270>"
p1601
asbasbasbag66
(g82
g68
NtRp1602
(dp1603
g71
(dp1604
sg80
g831
sg73
(lp1605
g66
(g87
g68
NtRp1606
(dp1607
g71
(dp1608
g91
g92
ssg80
g1602
sg73
(lp1609
S'wsgi_file_wrapper'
p1610
asbag66
(g87
g68
NtRp1611
(dp1612
g71
(dp1613
g98
g99
ssg80
g1602
sg73
(lp1614
S':'
asbag66
(g87
g68
NtRp1615
(dp1616
g71
(dp1617
sg80
g1602
sg73
(lp1618
g66
(g67
g68
NtRp1619
(dp1620
g71
(dp1621
g79
I4
ssg80
g1615
sg73
(lp1622
S'<class wsgiref.util.FileWrapper at 0x2844600>'
p1623
asbasbasbag66
(g82
g68
NtRp1624
(dp1625
g71
(dp1626
sg80
g831
sg73
(lp1627
g66
(g87
g68
NtRp1628
(dp1629
g71
(dp1630
g91
g92
ssg80
g1624
sg73
(lp1631
S'wsgi_input'
p1632
asbag66
(g87
g68
NtRp1633
(dp1634
g71
(dp1635
g98
g99
ssg80
g1624
sg73
(lp1636
S':'
asbag66
(g87
g68
NtRp1637
(dp1638
g71
(dp1639
sg80
g1624
sg73
(lp1640
g66
(g67
g68
NtRp1641
(dp1642
g71
(dp1643
g79
I4
ssg80
g1637
sg73
(lp1644
S'<socket._fileobject object at 0x2f517d0>'
p1645
asbasbasbag66
(g82
g68
NtRp1646
(dp1647
g71
(dp1648
sg80
g831
sg73
(lp1649
g66
(g87
g68
NtRp1650
(dp1651
g71
(dp1652
g91
g92
ssg80
g1646
sg73
(lp1653
S'wsgi_multiprocess'
p1654
asbag66
(g87
g68
NtRp1655
(dp1656
g71
(dp1657
g98
g99
ssg80
g1646
sg73
(lp1658
S':'
asbag66
(g87
g68
NtRp1659
(dp1660
g71
(dp1661
sg80
g1646
sg73
(lp1662
g66
(g67
g68
NtRp1663
(dp1664
g71
(dp1665
g79
I4
ssg80
g1659
sg73
(lp1666
g109
asbasbasbag66
(g82
g68
NtRp1667
(dp1668
g71
(dp1669
sg80
g831
sg73
(lp1670
g66
(g87
g68
NtRp1671
(dp1672
g71
(dp1673
g91
g92
ssg80
g1667
sg73
(lp1674
S'wsgi_multithread'
p1675
asbag66
(g87
g68
NtRp1676
(dp1677
g71
(dp1678
g98
g99
ssg80
g1667
sg73
(lp1679
S':'
asbag66
(g87
g68
NtRp1680
(dp1681
g71
(dp1682
sg80
g1667
sg73
(lp1683
g66
(g67
g68
NtRp1684
(dp1685
g71
(dp1686
g79
I4
ssg80
g1680
sg73
(lp1687
S'True'
p1688
asbasbasbag66
(g82
g68
NtRp1689
(dp1690
g71
(dp1691
sg80
g831
sg73
(lp1692
g66
(g87
g68
NtRp1693
(dp1694
g71
(dp1695
g91
g92
ssg80
g1689
sg73
(lp1696
S'wsgi_run_once'
p1697
asbag66
(g87
g68
NtRp1698
(dp1699
g71
(dp1700
g98
g99
ssg80
g1689
sg73
(lp1701
S':'
asbag66
(g87
g68
NtRp1702
(dp1703
g71
(dp1704
sg80
g1689
sg73
(lp1705
g66
(g67
g68
NtRp1706
(dp1707
g71
(dp1708
g79
I4
ssg80
g1702
sg73
(lp1709
g109
asbasbasbag66
(g82
g68
NtRp1710
(dp1711
g71
(dp1712
sg80
g831
sg73
(lp1713
g66
(g87
g68
NtRp1714
(dp1715
g71
(dp1716
g91
g92
ssg80
g1710
sg73
(lp1717
S'wsgi_url_scheme'
p1718
asbag66
(g87
g68
NtRp1719
(dp1720
g71
(dp1721
g98
g99
ssg80
g1710
sg73
(lp1722
S':'
asbag66
(g87
g68
NtRp1723
(dp1724
g71
(dp1725
sg80
g1710
sg73
(lp1726
g66
(g67
g68
NtRp1727
(dp1728
g71
(dp1729
g79
I4
ssg80
g1723
sg73
(lp1730
S'http'
p1731
asbasbasbag66
(g82
g68
NtRp1732
(dp1733
g71
(dp1734
sg80
g831
sg73
(lp1735
g66
(g87
g68
NtRp1736
(dp1737
g71
(dp1738
g91
g92
ssg80
g1732
sg73
(lp1739
S'wsgi_version'
p1740
asbag66
(g87
g68
NtRp1741
(dp1742
g71
(dp1743
g98
g99
ssg80
g1732
sg73
(lp1744
S':'
asbag66
(g87
g68
NtRp1745
(dp1746
g71
(dp1747
sg80
g1732
sg73
(lp1748
g66
(g67
g68
NtRp1749
(dp1750
g71
(dp1751
g79
I4
ssg80
g1745
sg73
(lp1752
g66
(g75
g68
NtRp1753
(dp1754
g71
(dp1755
g79
I3
ssg80
Nsg73
(lp1756
g66
(g82
g68
NtRp1757
(dp1758
g71
(dp1759
sg80
g1753
sg73
(lp1760
g66
(g87
g68
NtRp1761
(dp1762
g71
(dp1763
sg80
g1757
sg73
(lp1764
g66
(g67
g68
NtRp1765
(dp1766
g71
(dp1767
g79
I3
ssg80
g1761
sg73
(lp1768
S'1'
asbasbasbag66
(g82
g68
NtRp1769
(dp1770
g71
(dp1771
sg80
g1753
sg73
(lp1772
g66
(g87
g68
NtRp1773
(dp1774
g71
(dp1775
sg80
g1769
sg73
(lp1776
g66
(g67
g68
NtRp1777
(dp1778
g71
(dp1779
g79
I3
ssg80
g1773
sg73
(lp1780
S'0'
asbasbasbasbasbasbasbasbasbasbasbag66
(g82
g68
NtRp1781
(dp1782
g71
(dp1783
sg80
g76
sg73
(lp1784
g66
(g87
g68
NtRp1785
(dp1786
g71
(dp1787
g91
g92
ssg80
g1781
sg73
(lp1788
S'extension'
p1789
asbag66
(g87
g68
NtRp1790
(dp1791
g71
(dp1792
g98
g99
ssg80
g1781
sg73
(lp1793
S':'
asbag66
(g87
g68
NtRp1794
(dp1795
g71
(dp1796
sg80
g1781
sg73
(lp1797
g66
(g67
g68
NtRp1798
(dp1799
g71
(dp1800
g79
I5
ssg80
g1794
sg73
(lp1801
S'html'
p1802
asbasbasbag66
(g82
g68
NtRp1803
(dp1804
g71
(dp1805
sg80
g76
sg73
(lp1806
g66
(g87
g68
NtRp1807
(dp1808
g71
(dp1809
g91
g92
ssg80
g1803
sg73
(lp1810
S'folder'
p1811
asbag66
(g87
g68
NtRp1812
(dp1813
g71
(dp1814
g98
g99
ssg80
g1803
sg73
(lp1815
S':'
asbag66
(g87
g68
NtRp1816
(dp1817
g71
(dp1818
sg80
g1803
sg73
(lp1819
g66
(g67
g68
NtRp1820
(dp1821
g71
(dp1822
g79
I5
ssg80
g1816
sg73
(lp1823
S'/opt/work/projects/web2py/applications/cass1/'
p1824
asbasbasbag66
(g82
g68
NtRp1825
(dp1826
g71
(dp1827
sg80
g76
sg73
(lp1828
g66
(g87
g68
NtRp1829
(dp1830
g71
(dp1831
g91
g92
ssg80
g1825
sg73
(lp1832
S'function'
p1833
asbag66
(g87
g68
NtRp1834
(dp1835
g71
(dp1836
g98
g99
ssg80
g1825
sg73
(lp1837
S':'
asbag66
(g87
g68
NtRp1838
(dp1839
g71
(dp1840
sg80
g1825
sg73
(lp1841
g66
(g67
g68
NtRp1842
(dp1843
g71
(dp1844
g79
I5
ssg80
g1838
sg73
(lp1845
S'index'
p1846
asbasbasbag66
(g82
g68
NtRp1847
(dp1848
g71
(dp1849
sg80
g76
sg73
(lp1850
g66
(g87
g68
NtRp1851
(dp1852
g71
(dp1853
g91
g92
ssg80
g1847
sg73
(lp1854
S'get_vars'
p1855
asbag66
(g87
g68
NtRp1856
(dp1857
g71
(dp1858
g98
g99
ssg80
g1847
sg73
(lp1859
S':'
asbag66
(g87
g68
NtRp1860
(dp1861
g71
(dp1862
sg80
g1847
sg73
(lp1863
g66
(g67
g68
NtRp1864
(dp1865
g71
(dp1866
g79
I5
ssg80
g1860
sg73
(lp1867
g66
(g75
g68
NtRp1868
(dp1869
g71
(dp1870
g79
I4
ssg80
Nsg73
(lp1871
sbasbasbasbag66
(g82
g68
NtRp1872
(dp1873
g71
(dp1874
sg80
g76
sg73
(lp1875
g66
(g87
g68
NtRp1876
(dp1877
g71
(dp1878
g91
g92
ssg80
g1872
sg73
(lp1879
S'global_settings'
p1880
asbag66
(g87
g68
NtRp1881
(dp1882
g71
(dp1883
g98
g99
ssg80
g1872
sg73
(lp1884
S':'
asbag66
(g87
g68
NtRp1885
(dp1886
g71
(dp1887
sg80
g1872
sg73
(lp1888
g66
(g67
g68
NtRp1889
(dp1890
g71
(dp1891
g79
I5
ssg80
g1885
sg73
(lp1892
g66
(g75
g68
NtRp1893
(dp1894
g71
(dp1895
g79
I4
ssg80
Nsg73
(lp1896
g66
(g82
g68
NtRp1897
(dp1898
g71
(dp1899
sg80
g1893
sg73
(lp1900
g66
(g87
g68
NtRp1901
(dp1902
g71
(dp1903
g91
g92
ssg80
g1897
sg73
(lp1904
g843
asbag66
(g87
g68
NtRp1905
(dp1906
g71
(dp1907
g98
g99
ssg80
g1897
sg73
(lp1908
S':'
asbag66
(g87
g68
NtRp1909
(dp1910
g71
(dp1911
sg80
g1897
sg73
(lp1912
g66
(g67
g68
NtRp1913
(dp1914
g71
(dp1915
g79
I4
ssg80
g1909
sg73
(lp1916
S"set(['/opt/work/projects/web2py/applications/admin/', '/opt/work/projects/web2py/applications/cass1/', '/opt/work/projects/web2py/applications/welcome/'])"
p1917
asbasbasbag66
(g82
g68
NtRp1918
(dp1919
g71
(dp1920
sg80
g1893
sg73
(lp1921
g66
(g87
g68
NtRp1922
(dp1923
g71
(dp1924
g91
g92
ssg80
g1918
sg73
(lp1925
g865
asbag66
(g87
g68
NtRp1926
(dp1927
g71
(dp1928
g98
g99
ssg80
g1918
sg73
(lp1929
S':'
asbag66
(g87
g68
NtRp1930
(dp1931
g71
(dp1932
sg80
g1918
sg73
(lp1933
g66
(g67
g68
NtRp1934
(dp1935
g71
(dp1936
g79
I4
ssg80
g1930
sg73
(lp1937
g878
asbasbasbag66
(g82
g68
NtRp1938
(dp1939
g71
(dp1940
sg80
g1893
sg73
(lp1941
g66
(g87
g68
NtRp1942
(dp1943
g71
(dp1944
g91
g92
ssg80
g1938
sg73
(lp1945
g887
asbag66
(g87
g68
NtRp1946
(dp1947
g71
(dp1948
g98
g99
ssg80
g1938
sg73
(lp1949
S':'
asbag66
(g87
g68
NtRp1950
(dp1951
g71
(dp1952
sg80
g1938
sg73
(lp1953
g66
(g67
g68
NtRp1954
(dp1955
g71
(dp1956
g79
I4
ssg80
g1950
sg73
(lp1957
g66
(g75
g68
NtRp1958
(dp1959
g71
(dp1960
g79
I3
ssg80
Nsg73
(lp1961
sbasbasbasbag66
(g82
g68
NtRp1962
(dp1963
g71
(dp1964
sg80
g1893
sg73
(lp1965
g66
(g87
g68
NtRp1966
(dp1967
g71
(dp1968
g91
g92
ssg80
g1962
sg73
(lp1969
g912
asbag66
(g87
g68
NtRp1970
(dp1971
g71
(dp1972
g98
g99
ssg80
g1962
sg73
(lp1973
S':'
asbag66
(g87
g68
NtRp1974
(dp1975
g71
(dp1976
sg80
g1962
sg73
(lp1977
g66
(g67
g68
NtRp1978
(dp1979
g71
(dp1980
g79
I4
ssg80
g1974
sg73
(lp1981
S"<Values at 0x2cfb8c0: {'verbose': False, 'ip': '127.0.0.1', 'shutdown_timeout': 5, 'taskbar': False, 'nocron': False, 'pid_filename': 'httpserver.pid', 'maxthreads': None, 'softcron': False, 'server_name': 'games105linux.doomstuff.local', 'bpython': False, 'nogui': False, 'port': 8000, 'extcron': False, 'debuglevel': 30, 'test': None, 'folder': '/opt/work/projects/web2py', 'config': '', 'import_models': False, 'winservice': '', 'shell': None, 'run': '', 'log_filename': 'httpserver.log', 'args': [''], 'ssl_ca_certificate': None, 'scheduler': None, 'profiler_filename': None, 'ssl_private_key': '', 'password': 'testing', 'request_queue_size': 5, 'ssl_certificate': '', 'cronjob': False, 'plain': False, 'quiet': False, 'interfaces': None, 'minthreads': None, 'timeout': 10, 'numthreads': None, 'nobanner': False}>"
p1982
asbasbasbag66
(g82
g68
NtRp1983
(dp1984
g71
(dp1985
sg80
g1893
sg73
(lp1986
g66
(g87
g68
NtRp1987
(dp1988
g71
(dp1989
g91
g92
ssg80
g1983
sg73
(lp1990
g934
asbag66
(g87
g68
NtRp1991
(dp1992
g71
(dp1993
g98
g99
ssg80
g1983
sg73
(lp1994
S':'
asbag66
(g87
g68
NtRp1995
(dp1996
g71
(dp1997
sg80
g1983
sg73
(lp1998
g66
(g67
g68
NtRp1999
(dp2000
g71
(dp2001
g79
I4
ssg80
g1995
sg73
(lp2002
S'set([])'
p2003
asbasbasbag66
(g82
g68
NtRp2004
(dp2005
g71
(dp2006
sg80
g1893
sg73
(lp2007
g66
(g87
g68
NtRp2008
(dp2009
g71
(dp2010
g91
g92
ssg80
g2004
sg73
(lp2011
g956
asbag66
(g87
g68
NtRp2012
(dp2013
g71
(dp2014
g98
g99
ssg80
g2004
sg73
(lp2015
S':'
asbag66
(g87
g68
NtRp2016
(dp2017
g71
(dp2018
sg80
g2004
sg73
(lp2019
g66
(g67
g68
NtRp2020
(dp2021
g71
(dp2022
g79
I4
ssg80
g2016
sg73
(lp2023
g109
asbasbasbag66
(g82
g68
NtRp2024
(dp2025
g71
(dp2026
sg80
g1893
sg73
(lp2027
g66
(g87
g68
NtRp2028
(dp2029
g71
(dp2030
g91
g92
ssg80
g2024
sg73
(lp2031
g977
asbag66
(g87
g68
NtRp2032
(dp2033
g71
(dp2034
g98
g99
ssg80
g2024
sg73
(lp2035
S':'
asbag66
(g87
g68
NtRp2036
(dp2037
g71
(dp2038
sg80
g2024
sg73
(lp2039
g66
(g67
g68
NtRp2040
(dp2041
g71
(dp2042
g79
I4
ssg80
g2036
sg73
(lp2043
g990
asbasbasbag66
(g82
g68
NtRp2044
(dp2045
g71
(dp2046
sg80
g1893
sg73
(lp2047
g66
(g87
g68
NtRp2048
(dp2049
g71
(dp2050
g91
g92
ssg80
g2044
sg73
(lp2051
g1219
asbag66
(g87
g68
NtRp2052
(dp2053
g71
(dp2054
g98
g99
ssg80
g2044
sg73
(lp2055
S':'
asbag66
(g87
g68
NtRp2056
(dp2057
g71
(dp2058
sg80
g2044
sg73
(lp2059
g66
(g67
g68
NtRp2060
(dp2061
g71
(dp2062
g79
I4
ssg80
g2056
sg73
(lp2063
g109
asbasbasbag66
(g82
g68
NtRp2064
(dp2065
g71
(dp2066
sg80
g1893
sg73
(lp2067
g66
(g87
g68
NtRp2068
(dp2069
g71
(dp2070
g91
g92
ssg80
g2064
sg73
(lp2071
g1457
asbag66
(g87
g68
NtRp2072
(dp2073
g71
(dp2074
g98
g99
ssg80
g2064
sg73
(lp2075
S':'
asbag66
(g87
g68
NtRp2076
(dp2077
g71
(dp2078
sg80
g2064
sg73
(lp2079
g66
(g67
g68
NtRp2080
(dp2081
g71
(dp2082
g79
I4
ssg80
g2076
sg73
(lp2083
g1470
asbasbasbag66
(g82
g68
NtRp2084
(dp2085
g71
(dp2086
sg80
g1893
sg73
(lp2087
g66
(g87
g68
NtRp2088
(dp2089
g71
(dp2090
g91
g92
ssg80
g2084
sg73
(lp2091
g1500
asbag66
(g87
g68
NtRp2092
(dp2093
g71
(dp2094
g98
g99
ssg80
g2084
sg73
(lp2095
S':'
asbag66
(g87
g68
NtRp2096
(dp2097
g71
(dp2098
sg80
g2084
sg73
(lp2099
g66
(g67
g68
NtRp2100
(dp2101
g71
(dp2102
g79
I4
ssg80
g2096
sg73
(lp2103
g66
(g75
g68
NtRp2104
(dp2105
g71
(dp2106
g79
I3
ssg80
Nsg73
(lp2107
g66
(g82
g68
NtRp2108
(dp2109
g71
(dp2110
sg80
g2104
sg73
(lp2111
g66
(g87
g68
NtRp2112
(dp2113
g71
(dp2114
sg80
g2108
sg73
(lp2115
g66
(g67
g68
NtRp2116
(dp2117
g71
(dp2118
g79
I3
ssg80
g2112
sg73
(lp2119
S'1'
asbasbasbag66
(g82
g68
NtRp2120
(dp2121
g71
(dp2122
sg80
g2104
sg73
(lp2123
g66
(g87
g68
NtRp2124
(dp2125
g71
(dp2126
sg80
g2120
sg73
(lp2127
g66
(g67
g68
NtRp2128
(dp2129
g71
(dp2130
g79
I3
ssg80
g2124
sg73
(lp2131
S'99'
p2132
asbasbasbag66
(g82
g68
NtRp2133
(dp2134
g71
(dp2135
sg80
g2104
sg73
(lp2136
g66
(g87
g68
NtRp2137
(dp2138
g71
(dp2139
sg80
g2133
sg73
(lp2140
g66
(g67
g68
NtRp2141
(dp2142
g71
(dp2143
g79
I3
ssg80
g2137
sg73
(lp2144
S'2'
asbasbasbag66
(g82
g68
NtRp2145
(dp2146
g71
(dp2147
sg80
g2104
sg73
(lp2148
g66
(g87
g68
NtRp2149
(dp2150
g71
(dp2151
sg80
g2145
sg73
(lp2152
g66
(g67
g68
NtRp2153
(dp2154
g71
(dp2155
g79
I3
ssg80
g2149
sg73
(lp2156
S'datetime.datetime(2011, 9, 26, 6, 55, 33)'
p2157
asbasbasbag66
(g82
g68
NtRp2158
(dp2159
g71
(dp2160
sg80
g2104
sg73
(lp2161
g66
(g87
g68
NtRp2162
(dp2163
g71
(dp2164
sg80
g2158
sg73
(lp2165
g66
(g67
g68
NtRp2166
(dp2167
g71
(dp2168
g79
I3
ssg80
g2162
sg73
(lp2169
g1579
asbasbasbasbasbasbasbasbasbasbasbag66
(g82
g68
NtRp2170
(dp2171
g71
(dp2172
sg80
g76
sg73
(lp2173
g66
(g87
g68
NtRp2174
(dp2175
g71
(dp2176
g91
g92
ssg80
g2170
sg73
(lp2177
S'is_https'
p2178
asbag66
(g87
g68
NtRp2179
(dp2180
g71
(dp2181
g98
g99
ssg80
g2170
sg73
(lp2182
S':'
asbag66
(g87
g68
NtRp2183
(dp2184
g71
(dp2185
sg80
g2170
sg73
(lp2186
g66
(g67
g68
NtRp2187
(dp2188
g71
(dp2189
g79
I5
ssg80
g2183
sg73
(lp2190
g109
asbasbasbag66
(g82
g68
NtRp2191
(dp2192
g71
(dp2193
sg80
g76
sg73
(lp2194
g66
(g87
g68
NtRp2195
(dp2196
g71
(dp2197
g91
g92
ssg80
g2191
sg73
(lp2198
S'is_local'
p2199
asbag66
(g87
g68
NtRp2200
(dp2201
g71
(dp2202
g98
g99
ssg80
g2191
sg73
(lp2203
S':'
asbag66
(g87
g68
NtRp2204
(dp2205
g71
(dp2206
sg80
g2191
sg73
(lp2207
g66
(g67
g68
NtRp2208
(dp2209
g71
(dp2210
g79
I5
ssg80
g2204
sg73
(lp2211
g1688
asbasbasbag66
(g82
g68
NtRp2212
(dp2213
g71
(dp2214
sg80
g76
sg73
(lp2215
g66
(g87
g68
NtRp2216
(dp2217
g71
(dp2218
g91
g92
ssg80
g2212
sg73
(lp2219
S'is_restful'
p2220
asbag66
(g87
g68
NtRp2221
(dp2222
g71
(dp2223
g98
g99
ssg80
g2212
sg73
(lp2224
S':'
asbag66
(g87
g68
NtRp2225
(dp2226
g71
(dp2227
sg80
g2212
sg73
(lp2228
g66
(g67
g68
NtRp2229
(dp2230
g71
(dp2231
g79
I5
ssg80
g2225
sg73
(lp2232
g109
asbasbasbag66
(g82
g68
NtRp2233
(dp2234
g71
(dp2235
sg80
g76
sg73
(lp2236
g66
(g87
g68
NtRp2237
(dp2238
g71
(dp2239
g91
g92
ssg80
g2233
sg73
(lp2240
S'now'
p2241
asbag66
(g87
g68
NtRp2242
(dp2243
g71
(dp2244
g98
g99
ssg80
g2233
sg73
(lp2245
S':'
asbag66
(g87
g68
NtRp2246
(dp2247
g71
(dp2248
sg80
g2233
sg73
(lp2249
g66
(g67
g68
NtRp2250
(dp2251
g71
(dp2252
g79
I5
ssg80
g2246
sg73
(lp2253
S'datetime.datetime(2011, 11, 29, 19, 50, 19, 860907)'
p2254
asbasbasbag66
(g82
g68
NtRp2255
(dp2256
g71
(dp2257
sg80
g76
sg73
(lp2258
g66
(g87
g68
NtRp2259
(dp2260
g71
(dp2261
g91
g92
ssg80
g2255
sg73
(lp2262
S'post_vars'
p2263
asbag66
(g87
g68
NtRp2264
(dp2265
g71
(dp2266
g98
g99
ssg80
g2255
sg73
(lp2267
S':'
asbag66
(g87
g68
NtRp2268
(dp2269
g71
(dp2270
sg80
g2255
sg73
(lp2271
g66
(g67
g68
NtRp2272
(dp2273
g71
(dp2274
g79
I5
ssg80
g2268
sg73
(lp2275
g66
(g75
g68
NtRp2276
(dp2277
g71
(dp2278
g79
I4
ssg80
Nsg73
(lp2279
sbasbasbasbag66
(g82
g68
NtRp2280
(dp2281
g71
(dp2282
sg80
g76
sg73
(lp2283
g66
(g87
g68
NtRp2284
(dp2285
g71
(dp2286
g91
g92
ssg80
g2280
sg73
(lp2287
S'url'
p2288
asbag66
(g87
g68
NtRp2289
(dp2290
g71
(dp2291
g98
g99
ssg80
g2280
sg73
(lp2292
S':'
asbag66
(g87
g68
NtRp2293
(dp2294
g71
(dp2295
sg80
g2280
sg73
(lp2296
g66
(g67
g68
NtRp2297
(dp2298
g71
(dp2299
g79
I5
ssg80
g2293
sg73
(lp2300
S'/cass1/cass_mgr/index'
p2301
asbasbasbag66
(g82
g68
NtRp2302
(dp2303
g71
(dp2304
sg80
g76
sg73
(lp2305
g66
(g87
g68
NtRp2306
(dp2307
g71
(dp2308
g91
g92
ssg80
g2302
sg73
(lp2309
S'utcnow'
p2310
asbag66
(g87
g68
NtRp2311
(dp2312
g71
(dp2313
g98
g99
ssg80
g2302
sg73
(lp2314
S':'
asbag66
(g87
g68
NtRp2315
(dp2316
g71
(dp2317
sg80
g2302
sg73
(lp2318
g66
(g67
g68
NtRp2319
(dp2320
g71
(dp2321
g79
I5
ssg80
g2315
sg73
(lp2322
S'datetime.datetime(2011, 11, 29, 19, 50, 19, 860929)'
p2323
asbasbasbag66
(g82
g68
NtRp2324
(dp2325
g71
(dp2326
sg80
g76
sg73
(lp2327
g66
(g87
g68
NtRp2328
(dp2329
g71
(dp2330
g91
g92
ssg80
g2324
sg73
(lp2331
S'uuid'
p2332
asbag66
(g87
g68
NtRp2333
(dp2334
g71
(dp2335
g98
g99
ssg80
g2324
sg73
(lp2336
S':'
asbag66
(g87
g68
NtRp2337
(dp2338
g71
(dp2339
sg80
g2324
sg73
(lp2340
g66
(g67
g68
NtRp2341
(dp2342
g71
(dp2343
g79
I5
ssg80
g2337
sg73
(lp2344
S'cass1/127.0.0.1.2011-11-29.19-50-19.0a5f8a82-dfc9-408a-9679-a0b6949a753d'
p2345
asbasbasbag66
(g82
g68
NtRp2346
(dp2347
g71
(dp2348
sg80
g76
sg73
(lp2349
g66
(g87
g68
NtRp2350
(dp2351
g71
(dp2352
g91
g92
ssg80
g2346
sg73
(lp2353
S'vars'
p2354
asbag66
(g87
g68
NtRp2355
(dp2356
g71
(dp2357
g98
g99
ssg80
g2346
sg73
(lp2358
S':'
asbag66
(g87
g68
NtRp2359
(dp2360
g71
(dp2361
sg80
g2346
sg73
(lp2362
g66
(g67
g68
NtRp2363
(dp2364
g71
(dp2365
g79
I5
ssg80
g2359
sg73
(lp2366
g66
(g75
g68
NtRp2367
(dp2368
g71
(dp2369
g79
I4
ssg80
Nsg73
(lp2370
sbasbasbasbag66
(g82
g68
NtRp2371
(dp2372
g71
(dp2373
sg80
g76
sg73
(lp2374
g66
(g87
g68
NtRp2375
(dp2376
g71
(dp2377
g91
g92
ssg80
g2371
sg73
(lp2378
S'wsgi'
p2379
asbag66
(g87
g68
NtRp2380
(dp2381
g71
(dp2382
g98
g99
ssg80
g2371
sg73
(lp2383
S':'
asbag66
(g87
g68
NtRp2384
(dp2385
g71
(dp2386
sg80
g2371
sg73
(lp2387
g66
(g67
g68
NtRp2388
(dp2389
g71
(dp2390
g79
I5
ssg80
g2384
sg73
(lp2391
g66
(g75
g68
NtRp2392
(dp2393
g71
(dp2394
g79
I4
ssg80
Nsg73
(lp2395
g66
(g82
g68
NtRp2396
(dp2397
g71
(dp2398
sg80
g2392
sg73
(lp2399
g66
(g87
g68
NtRp2400
(dp2401
g71
(dp2402
g91
g92
ssg80
g2396
sg73
(lp2403
S'environ'
p2404
asbag66
(g87
g68
NtRp2405
(dp2406
g71
(dp2407
g98
g99
ssg80
g2396
sg73
(lp2408
S':'
asbag66
(g87
g68
NtRp2409
(dp2410
g71
(dp2411
sg80
g2396
sg73
(lp2412
g66
(g67
g68
NtRp2413
(dp2414
g71
(dp2415
g79
I4
ssg80
g2409
sg73
(lp2416
g66
(g75
g68
NtRp2417
(dp2418
g71
(dp2419
g79
I3
ssg80
Nsg73
(lp2420
g66
(g82
g68
NtRp2421
(dp2422
g71
(dp2423
sg80
g2417
sg73
(lp2424
g66
(g87
g68
NtRp2425
(dp2426
g71
(dp2427
g91
g92
ssg80
g2421
sg73
(lp2428
S'HTTP_ACCEPT'
p2429
asbag66
(g87
g68
NtRp2430
(dp2431
g71
(dp2432
g98
g99
ssg80
g2421
sg73
(lp2433
S':'
asbag66
(g87
g68
NtRp2434
(dp2435
g71
(dp2436
sg80
g2421
sg73
(lp2437
g66
(g67
g68
NtRp2438
(dp2439
g71
(dp2440
g79
I3
ssg80
g2434
sg73
(lp2441
g1012
asbasbasbag66
(g82
g68
NtRp2442
(dp2443
g71
(dp2444
sg80
g2417
sg73
(lp2445
g66
(g87
g68
NtRp2446
(dp2447
g71
(dp2448
g91
g92
ssg80
g2442
sg73
(lp2449
S'HTTP_ACCEPT_CHARSET'
p2450
asbag66
(g87
g68
NtRp2451
(dp2452
g71
(dp2453
g98
g99
ssg80
g2442
sg73
(lp2454
S':'
asbag66
(g87
g68
NtRp2455
(dp2456
g71
(dp2457
sg80
g2442
sg73
(lp2458
g66
(g67
g68
NtRp2459
(dp2460
g71
(dp2461
g79
I3
ssg80
g2455
sg73
(lp2462
g1034
asbasbasbag66
(g82
g68
NtRp2463
(dp2464
g71
(dp2465
sg80
g2417
sg73
(lp2466
g66
(g87
g68
NtRp2467
(dp2468
g71
(dp2469
g91
g92
ssg80
g2463
sg73
(lp2470
S'HTTP_ACCEPT_ENCODING'
p2471
asbag66
(g87
g68
NtRp2472
(dp2473
g71
(dp2474
g98
g99
ssg80
g2463
sg73
(lp2475
S':'
asbag66
(g87
g68
NtRp2476
(dp2477
g71
(dp2478
sg80
g2463
sg73
(lp2479
g66
(g67
g68
NtRp2480
(dp2481
g71
(dp2482
g79
I3
ssg80
g2476
sg73
(lp2483
g1056
asbasbasbag66
(g82
g68
NtRp2484
(dp2485
g71
(dp2486
sg80
g2417
sg73
(lp2487
g66
(g87
g68
NtRp2488
(dp2489
g71
(dp2490
g91
g92
ssg80
g2484
sg73
(lp2491
S'HTTP_ACCEPT_LANGUAGE'
p2492
asbag66
(g87
g68
NtRp2493
(dp2494
g71
(dp2495
g98
g99
ssg80
g2484
sg73
(lp2496
S':'
asbag66
(g87
g68
NtRp2497
(dp2498
g71
(dp2499
sg80
g2484
sg73
(lp2500
g66
(g67
g68
NtRp2501
(dp2502
g71
(dp2503
g79
I3
ssg80
g2497
sg73
(lp2504
g1078
asbasbasbag66
(g82
g68
NtRp2505
(dp2506
g71
(dp2507
sg80
g2417
sg73
(lp2508
g66
(g87
g68
NtRp2509
(dp2510
g71
(dp2511
g91
g92
ssg80
g2505
sg73
(lp2512
S'HTTP_CACHE_CONTROL'
p2513
asbag66
(g87
g68
NtRp2514
(dp2515
g71
(dp2516
g98
g99
ssg80
g2505
sg73
(lp2517
S':'
asbag66
(g87
g68
NtRp2518
(dp2519
g71
(dp2520
sg80
g2505
sg73
(lp2521
g66
(g67
g68
NtRp2522
(dp2523
g71
(dp2524
g79
I3
ssg80
g2518
sg73
(lp2525
g1100
asbasbasbag66
(g82
g68
NtRp2526
(dp2527
g71
(dp2528
sg80
g2417
sg73
(lp2529
g66
(g87
g68
NtRp2530
(dp2531
g71
(dp2532
g91
g92
ssg80
g2526
sg73
(lp2533
S'HTTP_CONNECTION'
p2534
asbag66
(g87
g68
NtRp2535
(dp2536
g71
(dp2537
g98
g99
ssg80
g2526
sg73
(lp2538
S':'
asbag66
(g87
g68
NtRp2539
(dp2540
g71
(dp2541
sg80
g2526
sg73
(lp2542
g66
(g67
g68
NtRp2543
(dp2544
g71
(dp2545
g79
I3
ssg80
g2539
sg73
(lp2546
g1122
asbasbasbag66
(g82
g68
NtRp2547
(dp2548
g71
(dp2549
sg80
g2417
sg73
(lp2550
g66
(g87
g68
NtRp2551
(dp2552
g71
(dp2553
g91
g92
ssg80
g2547
sg73
(lp2554
S'HTTP_COOKIE'
p2555
asbag66
(g87
g68
NtRp2556
(dp2557
g71
(dp2558
g98
g99
ssg80
g2547
sg73
(lp2559
S':'
asbag66
(g87
g68
NtRp2560
(dp2561
g71
(dp2562
sg80
g2547
sg73
(lp2563
g66
(g67
g68
NtRp2564
(dp2565
g71
(dp2566
g79
I3
ssg80
g2560
sg73
(lp2567
g1144
asbasbasbag66
(g82
g68
NtRp2568
(dp2569
g71
(dp2570
sg80
g2417
sg73
(lp2571
g66
(g87
g68
NtRp2572
(dp2573
g71
(dp2574
g91
g92
ssg80
g2568
sg73
(lp2575
S'HTTP_HOST'
p2576
asbag66
(g87
g68
NtRp2577
(dp2578
g71
(dp2579
g98
g99
ssg80
g2568
sg73
(lp2580
S':'
asbag66
(g87
g68
NtRp2581
(dp2582
g71
(dp2583
sg80
g2568
sg73
(lp2584
g66
(g67
g68
NtRp2585
(dp2586
g71
(dp2587
g79
I3
ssg80
g2581
sg73
(lp2588
g1166
asbasbasbag66
(g82
g68
NtRp2589
(dp2590
g71
(dp2591
sg80
g2417
sg73
(lp2592
g66
(g87
g68
NtRp2593
(dp2594
g71
(dp2595
g91
g92
ssg80
g2589
sg73
(lp2596
S'HTTP_REFERER'
p2597
asbag66
(g87
g68
NtRp2598
(dp2599
g71
(dp2600
g98
g99
ssg80
g2589
sg73
(lp2601
S':'
asbag66
(g87
g68
NtRp2602
(dp2603
g71
(dp2604
sg80
g2589
sg73
(lp2605
g66
(g67
g68
NtRp2606
(dp2607
g71
(dp2608
g79
I3
ssg80
g2602
sg73
(lp2609
g1188
asbasbasbag66
(g82
g68
NtRp2610
(dp2611
g71
(dp2612
sg80
g2417
sg73
(lp2613
g66
(g87
g68
NtRp2614
(dp2615
g71
(dp2616
g91
g92
ssg80
g2610
sg73
(lp2617
S'HTTP_USER_AGENT'
p2618
asbag66
(g87
g68
NtRp2619
(dp2620
g71
(dp2621
g98
g99
ssg80
g2610
sg73
(lp2622
S':'
asbag66
(g87
g68
NtRp2623
(dp2624
g71
(dp2625
sg80
g2610
sg73
(lp2626
g66
(g67
g68
NtRp2627
(dp2628
g71
(dp2629
g79
I3
ssg80
g2623
sg73
(lp2630
g1210
asbasbasbag66
(g82
g68
NtRp2631
(dp2632
g71
(dp2633
sg80
g2417
sg73
(lp2634
g66
(g87
g68
NtRp2635
(dp2636
g71
(dp2637
g91
g92
ssg80
g2631
sg73
(lp2638
S'PATH_INFO'
p2639
asbag66
(g87
g68
NtRp2640
(dp2641
g71
(dp2642
g98
g99
ssg80
g2631
sg73
(lp2643
S':'
asbag66
(g87
g68
NtRp2644
(dp2645
g71
(dp2646
sg80
g2631
sg73
(lp2647
g66
(g67
g68
NtRp2648
(dp2649
g71
(dp2650
g79
I3
ssg80
g2644
sg73
(lp2651
g1253
asbasbasbag66
(g82
g68
NtRp2652
(dp2653
g71
(dp2654
sg80
g2417
sg73
(lp2655
g66
(g87
g68
NtRp2656
(dp2657
g71
(dp2658
g91
g92
ssg80
g2652
sg73
(lp2659
S'QUERY_STRING'
p2660
asbag66
(g87
g68
NtRp2661
(dp2662
g71
(dp2663
g98
g99
ssg80
g2652
sg73
(lp2664
S':'
asbag66
(g87
g68
NtRp2665
(dp2666
g71
(dp2667
sg80
g2652
sg73
(lp2668
g66
(g67
g68
NtRp2669
(dp2670
g71
(dp2671
g79
I3
ssg80
g2665
sg73
(lp2672
S''
asbasbasbag66
(g82
g68
NtRp2673
(dp2674
g71
(dp2675
sg80
g2417
sg73
(lp2676
g66
(g87
g68
NtRp2677
(dp2678
g71
(dp2679
g91
g92
ssg80
g2673
sg73
(lp2680
S'REMOTE_ADDR'
p2681
asbag66
(g87
g68
NtRp2682
(dp2683
g71
(dp2684
g98
g99
ssg80
g2673
sg73
(lp2685
S':'
asbag66
(g87
g68
NtRp2686
(dp2687
g71
(dp2688
sg80
g2673
sg73
(lp2689
g66
(g67
g68
NtRp2690
(dp2691
g71
(dp2692
g79
I3
ssg80
g2686
sg73
(lp2693
g199
asbasbasbag66
(g82
g68
NtRp2694
(dp2695
g71
(dp2696
sg80
g2417
sg73
(lp2697
g66
(g87
g68
NtRp2698
(dp2699
g71
(dp2700
g91
g92
ssg80
g2694
sg73
(lp2701
S'REMOTE_PORT'
p2702
asbag66
(g87
g68
NtRp2703
(dp2704
g71
(dp2705
g98
g99
ssg80
g2694
sg73
(lp2706
S':'
asbag66
(g87
g68
NtRp2707
(dp2708
g71
(dp2709
sg80
g2694
sg73
(lp2710
g66
(g67
g68
NtRp2711
(dp2712
g71
(dp2713
g79
I3
ssg80
g2707
sg73
(lp2714
g1317
asbasbasbag66
(g82
g68
NtRp2715
(dp2716
g71
(dp2717
sg80
g2417
sg73
(lp2718
g66
(g87
g68
NtRp2719
(dp2720
g71
(dp2721
g91
g92
ssg80
g2715
sg73
(lp2722
S'REQUEST_METHOD'
p2723
asbag66
(g87
g68
NtRp2724
(dp2725
g71
(dp2726
g98
g99
ssg80
g2715
sg73
(lp2727
S':'
asbag66
(g87
g68
NtRp2728
(dp2729
g71
(dp2730
sg80
g2715
sg73
(lp2731
g66
(g67
g68
NtRp2732
(dp2733
g71
(dp2734
g79
I3
ssg80
g2728
sg73
(lp2735
g1339
asbasbasbag66
(g82
g68
NtRp2736
(dp2737
g71
(dp2738
sg80
g2417
sg73
(lp2739
g66
(g87
g68
NtRp2740
(dp2741
g71
(dp2742
g91
g92
ssg80
g2736
sg73
(lp2743
S'SCRIPT_NAME'
p2744
asbag66
(g87
g68
NtRp2745
(dp2746
g71
(dp2747
g98
g99
ssg80
g2736
sg73
(lp2748
S':'
asbag66
(g87
g68
NtRp2749
(dp2750
g71
(dp2751
sg80
g2736
sg73
(lp2752
g66
(g67
g68
NtRp2753
(dp2754
g71
(dp2755
g79
I3
ssg80
g2749
sg73
(lp2756
S''
asbasbasbag66
(g82
g68
NtRp2757
(dp2758
g71
(dp2759
sg80
g2417
sg73
(lp2760
g66
(g87
g68
NtRp2761
(dp2762
g71
(dp2763
g91
g92
ssg80
g2757
sg73
(lp2764
S'SERVER_NAME'
p2765
asbag66
(g87
g68
NtRp2766
(dp2767
g71
(dp2768
g98
g99
ssg80
g2757
sg73
(lp2769
S':'
asbag66
(g87
g68
NtRp2770
(dp2771
g71
(dp2772
sg80
g2757
sg73
(lp2773
g66
(g67
g68
NtRp2774
(dp2775
g71
(dp2776
g79
I3
ssg80
g2770
sg73
(lp2777
g1382
asbasbasbag66
(g82
g68
NtRp2778
(dp2779
g71
(dp2780
sg80
g2417
sg73
(lp2781
g66
(g87
g68
NtRp2782
(dp2783
g71
(dp2784
g91
g92
ssg80
g2778
sg73
(lp2785
S'SERVER_PORT'
p2786
asbag66
(g87
g68
NtRp2787
(dp2788
g71
(dp2789
g98
g99
ssg80
g2778
sg73
(lp2790
S':'
asbag66
(g87
g68
NtRp2791
(dp2792
g71
(dp2793
sg80
g2778
sg73
(lp2794
g66
(g67
g68
NtRp2795
(dp2796
g71
(dp2797
g79
I3
ssg80
g2791
sg73
(lp2798
g1404
asbasbasbag66
(g82
g68
NtRp2799
(dp2800
g71
(dp2801
sg80
g2417
sg73
(lp2802
g66
(g87
g68
NtRp2803
(dp2804
g71
(dp2805
g91
g92
ssg80
g2799
sg73
(lp2806
S'SERVER_PROTOCOL'
p2807
asbag66
(g87
g68
NtRp2808
(dp2809
g71
(dp2810
g98
g99
ssg80
g2799
sg73
(lp2811
S':'
asbag66
(g87
g68
NtRp2812
(dp2813
g71
(dp2814
sg80
g2799
sg73
(lp2815
g66
(g67
g68
NtRp2816
(dp2817
g71
(dp2818
g79
I3
ssg80
g2812
sg73
(lp2819
g1426
asbasbasbag66
(g82
g68
NtRp2820
(dp2821
g71
(dp2822
sg80
g2417
sg73
(lp2823
g66
(g87
g68
NtRp2824
(dp2825
g71
(dp2826
g91
g92
ssg80
g2820
sg73
(lp2827
S'SERVER_SOFTWARE'
p2828
asbag66
(g87
g68
NtRp2829
(dp2830
g71
(dp2831
g98
g99
ssg80
g2820
sg73
(lp2832
S':'
asbag66
(g87
g68
NtRp2833
(dp2834
g71
(dp2835
sg80
g2820
sg73
(lp2836
g66
(g67
g68
NtRp2837
(dp2838
g71
(dp2839
g79
I3
ssg80
g2833
sg73
(lp2840
g1448
asbasbasbag66
(g82
g68
NtRp2841
(dp2842
g71
(dp2843
sg80
g2417
sg73
(lp2844
g66
(g87
g68
NtRp2845
(dp2846
g71
(dp2847
g91
g92
ssg80
g2841
sg73
(lp2848
S'wsgi.errors'
p2849
asbag66
(g87
g68
NtRp2850
(dp2851
g71
(dp2852
g98
g99
ssg80
g2841
sg73
(lp2853
S':'
asbag66
(g87
g68
NtRp2854
(dp2855
g71
(dp2856
sg80
g2841
sg73
(lp2857
g66
(g67
g68
NtRp2858
(dp2859
g71
(dp2860
g79
I3
ssg80
g2854
sg73
(lp2861
S"<open file '<stderr>', mode 'w' at 0x7f5e90977270>"
p2862
asbasbasbag66
(g82
g68
NtRp2863
(dp2864
g71
(dp2865
sg80
g2417
sg73
(lp2866
g66
(g87
g68
NtRp2867
(dp2868
g71
(dp2869
g91
g92
ssg80
g2863
sg73
(lp2870
S'wsgi.file_wrapper'
p2871
asbag66
(g87
g68
NtRp2872
(dp2873
g71
(dp2874
g98
g99
ssg80
g2863
sg73
(lp2875
S':'
asbag66
(g87
g68
NtRp2876
(dp2877
g71
(dp2878
sg80
g2863
sg73
(lp2879
g66
(g67
g68
NtRp2880
(dp2881
g71
(dp2882
g79
I3
ssg80
g2876
sg73
(lp2883
S'<class wsgiref.util.FileWrapper at 0x2844600>'
p2884
asbasbasbag66
(g82
g68
NtRp2885
(dp2886
g71
(dp2887
sg80
g2417
sg73
(lp2888
g66
(g87
g68
NtRp2889
(dp2890
g71
(dp2891
g91
g92
ssg80
g2885
sg73
(lp2892
S'wsgi.input'
p2893
asbag66
(g87
g68
NtRp2894
(dp2895
g71
(dp2896
g98
g99
ssg80
g2885
sg73
(lp2897
S':'
asbag66
(g87
g68
NtRp2898
(dp2899
g71
(dp2900
sg80
g2885
sg73
(lp2901
g66
(g67
g68
NtRp2902
(dp2903
g71
(dp2904
g79
I3
ssg80
g2898
sg73
(lp2905
S'<cStringIO.StringO object at 0x7f5e79ad3420>'
p2906
asbasbasbag66
(g82
g68
NtRp2907
(dp2908
g71
(dp2909
sg80
g2417
sg73
(lp2910
g66
(g87
g68
NtRp2911
(dp2912
g71
(dp2913
g91
g92
ssg80
g2907
sg73
(lp2914
S'wsgi.multiprocess'
p2915
asbag66
(g87
g68
NtRp2916
(dp2917
g71
(dp2918
g98
g99
ssg80
g2907
sg73
(lp2919
S':'
asbag66
(g87
g68
NtRp2920
(dp2921
g71
(dp2922
sg80
g2907
sg73
(lp2923
g66
(g67
g68
NtRp2924
(dp2925
g71
(dp2926
g79
I3
ssg80
g2920
sg73
(lp2927
g109
asbasbasbag66
(g82
g68
NtRp2928
(dp2929
g71
(dp2930
sg80
g2417
sg73
(lp2931
g66
(g87
g68
NtRp2932
(dp2933
g71
(dp2934
g91
g92
ssg80
g2928
sg73
(lp2935
S'wsgi.multithread'
p2936
asbag66
(g87
g68
NtRp2937
(dp2938
g71
(dp2939
g98
g99
ssg80
g2928
sg73
(lp2940
S':'
asbag66
(g87
g68
NtRp2941
(dp2942
g71
(dp2943
sg80
g2928
sg73
(lp2944
g66
(g67
g68
NtRp2945
(dp2946
g71
(dp2947
g79
I3
ssg80
g2941
sg73
(lp2948
g1688
asbasbasbag66
(g82
g68
NtRp2949
(dp2950
g71
(dp2951
sg80
g2417
sg73
(lp2952
g66
(g87
g68
NtRp2953
(dp2954
g71
(dp2955
g91
g92
ssg80
g2949
sg73
(lp2956
S'wsgi.run_once'
p2957
asbag66
(g87
g68
NtRp2958
(dp2959
g71
(dp2960
g98
g99
ssg80
g2949
sg73
(lp2961
S':'
asbag66
(g87
g68
NtRp2962
(dp2963
g71
(dp2964
sg80
g2949
sg73
(lp2965
g66
(g67
g68
NtRp2966
(dp2967
g71
(dp2968
g79
I3
ssg80
g2962
sg73
(lp2969
g109
asbasbasbag66
(g82
g68
NtRp2970
(dp2971
g71
(dp2972
sg80
g2417
sg73
(lp2973
g66
(g87
g68
NtRp2974
(dp2975
g71
(dp2976
g91
g92
ssg80
g2970
sg73
(lp2977
S'wsgi.url_scheme'
p2978
asbag66
(g87
g68
NtRp2979
(dp2980
g71
(dp2981
g98
g99
ssg80
g2970
sg73
(lp2982
S':'
asbag66
(g87
g68
NtRp2983
(dp2984
g71
(dp2985
sg80
g2970
sg73
(lp2986
g66
(g67
g68
NtRp2987
(dp2988
g71
(dp2989
g79
I3
ssg80
g2983
sg73
(lp2990
g1731
asbasbasbag66
(g82
g68
NtRp2991
(dp2992
g71
(dp2993
sg80
g2417
sg73
(lp2994
g66
(g87
g68
NtRp2995
(dp2996
g71
(dp2997
g91
g92
ssg80
g2991
sg73
(lp2998
S'wsgi.version'
p2999
asbag66
(g87
g68
NtRp3000
(dp3001
g71
(dp3002
g98
g99
ssg80
g2991
sg73
(lp3003
S':'
asbag66
(g87
g68
NtRp3004
(dp3005
g71
(dp3006
sg80
g2991
sg73
(lp3007
g66
(g67
g68
NtRp3008
(dp3009
g71
(dp3010
g79
I3
ssg80
g3004
sg73
(lp3011
S'1'
asbasbasbasbasbasbasbasbasbasbasbasbasbsS'frames'
p3012
(lp3013
(dp3014
S'file'
p3015
S'/opt/work/projects/web2py/gluon/restricted.py'
p3016
sS'dump'
p3017
(dp3018
S'code'
p3019
S"'# coding: utf8\\n# try something lik\\nimport .. myd...ASS_JMX)\\n\\nresponse._vars=response._caller(index)\\n'"
p3020
sS'layer'
p3021
S"'/opt/work/projects/web2py/applications/cass1/controllers/cass_mgr.py'"
p3022
sS'global compile2'
p3023
S'<function compile2>'
p3024
sS'ccode'
p3025
S'undefined'
p3026
ssS'lnum'
p3027
I193
sS'lines'
p3028
(dp3029
I192
S'        else:'
p3030
sI193
S'            ccode = compile2(code,layer)'
p3031
sI194
S'        exec ccode in environment'
p3032
sI195
S'    except HTTP:'
p3033
sI196
S'        raise'
p3034
sI197
S'    except Exception, error:'
p3035
sI188
S"    environment['__file__'] = layer"
p3036
sI189
S'    try:'
p3037
sI190
S'        if type(code) == types.CodeType:'
p3038
sI191
S'            ccode = code'
p3039
ssS'call'
p3040
S"(code='# coding: utf8\\n# try something lik\\nimport .. myd...ASS_JMX)\\n\\nresponse._vars=response._caller(index)\\n', environment={'A': <class 'gluon.html.A'>, 'Auth': <class 'gluon.tools.Auth'>, 'B': <class 'gluon.html.B'>, 'BEAUTIFY': <class 'gluon.html.BEAUTIFY'>, 'BODY': <class 'gluon.html.BODY'>, 'BR': <class 'gluon.html.BR'>, 'BUTTON': <class 'gluon.html.BUTTON'>, 'CAT': <class 'gluon.html.CAT'>, 'CENTER': <class 'gluon.html.CENTER'>, 'CLEANUP': <class 'gluon.validators.CLEANUP'>, ...}, layer='/opt/work/projects/web2py/applications/cass1/controllers/cass_mgr.py')"
p3041
sS'func'
p3042
S'restricted'
p3043
sa(dp3044
g3015
S'/opt/work/projects/web2py/gluon/restricted.py'
p3045
sg3017
(dp3046
S'builtincompile'
p3047
S'<built-in function compile>'
p3048
sS'code'
p3049
S"'# coding: utf8\\n# try something lik\\nimport .. myd...ASS_JMX)\\n\\nresponse._vars=response._caller(index)\\n'"
p3050
sS'code.rstrip'
p3051
S'<built-in method rstrip of str object>'
p3052
sS').replace'
p3053
g3026
sS'layer'
p3054
S"'/opt/work/projects/web2py/applications/cass1/controllers/cass_mgr.py'"
p3055
ssg3027
I179
sg3028
(dp3056
I174
S''
sI175
S'def compile2(code,layer):'
p3057
sI176
S'    """'
p3058
sI177
S"    The +'\\n' is necessary else compile fails when code ends in a comment."
p3059
sI178
S'    """'
p3060
sI179
S"    return compile(code.rstrip().replace('\\r\\n','\\n')+'\\n', layer, 'exec')"
p3061
sI180
S''
sI181
S"def restricted(code, environment=None, layer='Unknown'):"
p3062
sI182
S'    """'
p3063
sI183
S'    runs code in environment and returns the output. if an exception occurs'
p3064
ssg3040
S"(code='# coding: utf8\\n# try something lik\\nimport .. myd...ASS_JMX)\\n\\nresponse._vars=response._caller(index)\\n', layer='/opt/work/projects/web2py/applications/cass1/controllers/cass_mgr.py')"
p3065
sg3042
S'compile2'
p3066
sasS'pyver'
p3067
S'Python 2.7.1+: /usr/bin/python'
p3068
sS'session'
p3069
g66
(g67
g68
NtRp3070
(dp3071
g71
(dp3072
sg73
(lp3073
g66
(g75
g68
NtRp3074
(dp3075
g71
(dp3076
g79
I5
ssg80
Nsg73
(lp3077
sbasbsS'etype'
p3078
S"<type 'exceptions.SyntaxError'>"
p3079
sS'date'
p3080
S'Tue Nov 29 19:50:19 2011'
p3081
sS'response'
p3082
g66
(g67
g68
NtRp3083
(dp3084
g71
(dp3085
sg73
(lp3086
g66
(g75
g68
NtRp3087
(dp3088
g71
(dp3089
g79
I5
ssg80
Nsg73
(lp3090
g66
(g82
g68
NtRp3091
(dp3092
g71
(dp3093
sg80
g3087
sg73
(lp3094
g66
(g87
g68
NtRp3095
(dp3096
g71
(dp3097
g91
g92
ssg80
g3091
sg73
(lp3098
g164
asbag66
(g87
g68
NtRp3099
(dp3100
g71
(dp3101
g98
g99
ssg80
g3091
sg73
(lp3102
S':'
asbag66
(g87
g68
NtRp3103
(dp3104
g71
(dp3105
sg80
g3091
sg73
(lp3106
g66
(g67
g68
NtRp3107
(dp3108
g71
(dp3109
g79
I5
ssg80
g3103
sg73
(lp3110
S'<cStringIO.StringO object at 0x7f5e79ad3a78>'
p3111
asbasbasbag66
(g82
g68
NtRp3112
(dp3113
g71
(dp3114
sg80
g3087
sg73
(lp3115
g66
(g87
g68
NtRp3116
(dp3117
g71
(dp3118
g91
g92
ssg80
g3112
sg73
(lp3119
g230
asbag66
(g87
g68
NtRp3120
(dp3121
g71
(dp3122
g98
g99
ssg80
g3112
sg73
(lp3123
S':'
asbag66
(g87
g68
NtRp3124
(dp3125
g71
(dp3126
sg80
g3112
sg73
(lp3127
g66
(g67
g68
NtRp3128
(dp3129
g71
(dp3130
g79
I5
ssg80
g3124
sg73
(lp3131
g66
(g75
g68
NtRp3132
(dp3133
g71
(dp3134
g79
I4
ssg80
Nsg73
(lp3135
g66
(g82
g68
NtRp3136
(dp3137
g71
(dp3138
sg80
g3132
sg73
(lp3139
g66
(g87
g68
NtRp3140
(dp3141
g71
(dp3142
g91
g92
ssg80
g3136
sg73
(lp3143
S'session_id_cass1'
p3144
asbag66
(g87
g68
NtRp3145
(dp3146
g71
(dp3147
g98
g99
ssg80
g3136
sg73
(lp3148
S':'
asbag66
(g87
g68
NtRp3149
(dp3150
g71
(dp3151
sg80
g3136
sg73
(lp3152
g66
(g67
g68
NtRp3153
(dp3154
g71
(dp3155
g79
I4
ssg80
g3149
sg73
(lp3156
g66
(g75
g68
NtRp3157
(dp3158
g71
(dp3159
g79
I3
ssg80
Nsg73
(lp3160
g66
(g82
g68
NtRp3161
(dp3162
g71
(dp3163
sg80
g3157
sg73
(lp3164
g66
(g87
g68
NtRp3165
(dp3166
g71
(dp3167
g91
g92
ssg80
g3161
sg73
(lp3168
g280
asbag66
(g87
g68
NtRp3169
(dp3170
g71
(dp3171
g98
g99
ssg80
g3161
sg73
(lp3172
S':'
asbag66
(g87
g68
NtRp3173
(dp3174
g71
(dp3175
sg80
g3161
sg73
(lp3176
g66
(g67
g68
NtRp3177
(dp3178
g71
(dp3179
g79
I3
ssg80
g3173
sg73
(lp3180
S''
asbasbasbag66
(g82
g68
NtRp3181
(dp3182
g71
(dp3183
sg80
g3157
sg73
(lp3184
g66
(g87
g68
NtRp3185
(dp3186
g71
(dp3187
g91
g92
ssg80
g3181
sg73
(lp3188
g301
asbag66
(g87
g68
NtRp3189
(dp3190
g71
(dp3191
g98
g99
ssg80
g3181
sg73
(lp3192
S':'
asbag66
(g87
g68
NtRp3193
(dp3194
g71
(dp3195
sg80
g3181
sg73
(lp3196
g66
(g67
g68
NtRp3197
(dp3198
g71
(dp3199
g79
I3
ssg80
g3193
sg73
(lp3200
S''
asbasbasbag66
(g82
g68
NtRp3201
(dp3202
g71
(dp3203
sg80
g3157
sg73
(lp3204
g66
(g87
g68
NtRp3205
(dp3206
g71
(dp3207
g91
g92
ssg80
g3201
sg73
(lp3208
g322
asbag66
(g87
g68
NtRp3209
(dp3210
g71
(dp3211
g98
g99
ssg80
g3201
sg73
(lp3212
S':'
asbag66
(g87
g68
NtRp3213
(dp3214
g71
(dp3215
sg80
g3201
sg73
(lp3216
g66
(g67
g68
NtRp3217
(dp3218
g71
(dp3219
g79
I3
ssg80
g3213
sg73
(lp3220
S''
asbasbasbag66
(g82
g68
NtRp3221
(dp3222
g71
(dp3223
sg80
g3157
sg73
(lp3224
g66
(g87
g68
NtRp3225
(dp3226
g71
(dp3227
g91
g92
ssg80
g3221
sg73
(lp3228
g343
asbag66
(g87
g68
NtRp3229
(dp3230
g71
(dp3231
g98
g99
ssg80
g3221
sg73
(lp3232
S':'
asbag66
(g87
g68
NtRp3233
(dp3234
g71
(dp3235
sg80
g3221
sg73
(lp3236
g66
(g67
g68
NtRp3237
(dp3238
g71
(dp3239
g79
I3
ssg80
g3233
sg73
(lp3240
S''
asbasbasbag66
(g82
g68
NtRp3241
(dp3242
g71
(dp3243
sg80
g3157
sg73
(lp3244
g66
(g87
g68
NtRp3245
(dp3246
g71
(dp3247
g91
g92
ssg80
g3241
sg73
(lp3248
g364
asbag66
(g87
g68
NtRp3249
(dp3250
g71
(dp3251
g98
g99
ssg80
g3241
sg73
(lp3252
S':'
asbag66
(g87
g68
NtRp3253
(dp3254
g71
(dp3255
sg80
g3241
sg73
(lp3256
g66
(g67
g68
NtRp3257
(dp3258
g71
(dp3259
g79
I3
ssg80
g3253
sg73
(lp3260
S''
asbasbasbag66
(g82
g68
NtRp3261
(dp3262
g71
(dp3263
sg80
g3157
sg73
(lp3264
g66
(g87
g68
NtRp3265
(dp3266
g71
(dp3267
g91
g92
ssg80
g3261
sg73
(lp3268
g385
asbag66
(g87
g68
NtRp3269
(dp3270
g71
(dp3271
g98
g99
ssg80
g3261
sg73
(lp3272
S':'
asbag66
(g87
g68
NtRp3273
(dp3274
g71
(dp3275
sg80
g3261
sg73
(lp3276
g66
(g67
g68
NtRp3277
(dp3278
g71
(dp3279
g79
I3
ssg80
g3273
sg73
(lp3280
S'/'
asbasbasbag66
(g82
g68
NtRp3281
(dp3282
g71
(dp3283
sg80
g3157
sg73
(lp3284
g66
(g87
g68
NtRp3285
(dp3286
g71
(dp3287
g91
g92
ssg80
g3281
sg73
(lp3288
g406
asbag66
(g87
g68
NtRp3289
(dp3290
g71
(dp3291
g98
g99
ssg80
g3281
sg73
(lp3292
S':'
asbag66
(g87
g68
NtRp3293
(dp3294
g71
(dp3295
sg80
g3281
sg73
(lp3296
g66
(g67
g68
NtRp3297
(dp3298
g71
(dp3299
g79
I3
ssg80
g3293
sg73
(lp3300
S''
asbasbasbag66
(g82
g68
NtRp3301
(dp3302
g71
(dp3303
sg80
g3157
sg73
(lp3304
g66
(g87
g68
NtRp3305
(dp3306
g71
(dp3307
g91
g92
ssg80
g3301
sg73
(lp3308
g427
asbag66
(g87
g68
NtRp3309
(dp3310
g71
(dp3311
g98
g99
ssg80
g3301
sg73
(lp3312
S':'
asbag66
(g87
g68
NtRp3313
(dp3314
g71
(dp3315
sg80
g3301
sg73
(lp3316
g66
(g67
g68
NtRp3317
(dp3318
g71
(dp3319
g79
I3
ssg80
g3313
sg73
(lp3320
S''
asbasbasbasbasbasbasbasbasbasbasbag66
(g82
g68
NtRp3321
(dp3322
g71
(dp3323
sg80
g3087
sg73
(lp3324
g66
(g87
g68
NtRp3325
(dp3326
g71
(dp3327
g91
g92
ssg80
g3321
sg73
(lp3328
S'files'
p3329
asbag66
(g87
g68
NtRp3330
(dp3331
g71
(dp3332
g98
g99
ssg80
g3321
sg73
(lp3333
S':'
asbag66
(g87
g68
NtRp3334
(dp3335
g71
(dp3336
sg80
g3321
sg73
(lp3337
g66
(g67
g68
NtRp3338
(dp3339
g71
(dp3340
g79
I5
ssg80
g3334
sg73
(lp3341
g66
(g75
g68
NtRp3342
(dp3343
g71
(dp3344
g79
I4
ssg80
Nsg73
(lp3345
g66
(g82
g68
NtRp3346
(dp3347
g71
(dp3348
sg80
g3342
sg73
(lp3349
g66
(g87
g68
NtRp3350
(dp3351
g71
(dp3352
sg80
g3346
sg73
(lp3353
g66
(g67
g68
NtRp3354
(dp3355
g71
(dp3356
g79
I4
ssg80
g3350
sg73
(lp3357
S'/cass1/static/plugin_sortable/jquery.ui.core.js'
p3358
asbasbasbag66
(g82
g68
NtRp3359
(dp3360
g71
(dp3361
sg80
g3342
sg73
(lp3362
g66
(g87
g68
NtRp3363
(dp3364
g71
(dp3365
sg80
g3359
sg73
(lp3366
g66
(g67
g68
NtRp3367
(dp3368
g71
(dp3369
g79
I4
ssg80
g3363
sg73
(lp3370
S'/cass1/static/plugin_sortable/jquery.ui.sortable.js'
p3371
asbasbasbasbasbasbasbag66
(g82
g68
NtRp3372
(dp3373
g71
(dp3374
sg80
g3087
sg73
(lp3375
g66
(g87
g68
NtRp3376
(dp3377
g71
(dp3378
g91
g92
ssg80
g3372
sg73
(lp3379
S'flash'
p3380
asbag66
(g87
g68
NtRp3381
(dp3382
g71
(dp3383
g98
g99
ssg80
g3372
sg73
(lp3384
S':'
asbag66
(g87
g68
NtRp3385
(dp3386
g71
(dp3387
sg80
g3372
sg73
(lp3388
g66
(g67
g68
NtRp3389
(dp3390
g71
(dp3391
g79
I5
ssg80
g3385
sg73
(lp3392
S''
asbasbasbag66
(g82
g68
NtRp3393
(dp3394
g71
(dp3395
sg80
g3087
sg73
(lp3396
g66
(g87
g68
NtRp3397
(dp3398
g71
(dp3399
g91
g92
ssg80
g3393
sg73
(lp3400
S'generic_patterns'
p3401
asbag66
(g87
g68
NtRp3402
(dp3403
g71
(dp3404
g98
g99
ssg80
g3393
sg73
(lp3405
S':'
asbag66
(g87
g68
NtRp3406
(dp3407
g71
(dp3408
sg80
g3393
sg73
(lp3409
g66
(g67
g68
NtRp3410
(dp3411
g71
(dp3412
g79
I5
ssg80
g3406
sg73
(lp3413
g66
(g75
g68
NtRp3414
(dp3415
g71
(dp3416
g79
I4
ssg80
Nsg73
(lp3417
g66
(g82
g68
NtRp3418
(dp3419
g71
(dp3420
sg80
g3414
sg73
(lp3421
g66
(g87
g68
NtRp3422
(dp3423
g71
(dp3424
sg80
g3418
sg73
(lp3425
g66
(g67
g68
NtRp3426
(dp3427
g71
(dp3428
g79
I4
ssg80
g3422
sg73
(lp3429
S'*'
asbasbasbasbasbasbasbag66
(g82
g68
NtRp3430
(dp3431
g71
(dp3432
sg80
g3087
sg73
(lp3433
g66
(g87
g68
NtRp3434
(dp3435
g71
(dp3436
g91
g92
ssg80
g3430
sg73
(lp3437
S'headers'
p3438
asbag66
(g87
g68
NtRp3439
(dp3440
g71
(dp3441
g98
g99
ssg80
g3430
sg73
(lp3442
S':'
asbag66
(g87
g68
NtRp3443
(dp3444
g71
(dp3445
sg80
g3430
sg73
(lp3446
g66
(g67
g68
NtRp3447
(dp3448
g71
(dp3449
g79
I5
ssg80
g3443
sg73
(lp3450
g66
(g75
g68
NtRp3451
(dp3452
g71
(dp3453
g79
I4
ssg80
Nsg73
(lp3454
g66
(g82
g68
NtRp3455
(dp3456
g71
(dp3457
sg80
g3451
sg73
(lp3458
g66
(g87
g68
NtRp3459
(dp3460
g71
(dp3461
g91
g92
ssg80
g3455
sg73
(lp3462
S'Cache-Control'
p3463
asbag66
(g87
g68
NtRp3464
(dp3465
g71
(dp3466
g98
g99
ssg80
g3455
sg73
(lp3467
S':'
asbag66
(g87
g68
NtRp3468
(dp3469
g71
(dp3470
sg80
g3455
sg73
(lp3471
g66
(g67
g68
NtRp3472
(dp3473
g71
(dp3474
g79
I4
ssg80
g3468
sg73
(lp3475
S'no-store, no-cache, must-revalidate, post-check=0, pre-check=0'
p3476
asbasbasbag66
(g82
g68
NtRp3477
(dp3478
g71
(dp3479
sg80
g3451
sg73
(lp3480
g66
(g87
g68
NtRp3481
(dp3482
g71
(dp3483
g91
g92
ssg80
g3477
sg73
(lp3484
S'Content-Type'
p3485
asbag66
(g87
g68
NtRp3486
(dp3487
g71
(dp3488
g98
g99
ssg80
g3477
sg73
(lp3489
S':'
asbag66
(g87
g68
NtRp3490
(dp3491
g71
(dp3492
sg80
g3477
sg73
(lp3493
g66
(g67
g68
NtRp3494
(dp3495
g71
(dp3496
g79
I4
ssg80
g3490
sg73
(lp3497
S'text/html; charset=utf-8'
p3498
asbasbasbag66
(g82
g68
NtRp3499
(dp3500
g71
(dp3501
sg80
g3451
sg73
(lp3502
g66
(g87
g68
NtRp3503
(dp3504
g71
(dp3505
g91
g92
ssg80
g3499
sg73
(lp3506
S'Expires'
p3507
asbag66
(g87
g68
NtRp3508
(dp3509
g71
(dp3510
g98
g99
ssg80
g3499
sg73
(lp3511
S':'
asbag66
(g87
g68
NtRp3512
(dp3513
g71
(dp3514
sg80
g3499
sg73
(lp3515
g66
(g67
g68
NtRp3516
(dp3517
g71
(dp3518
g79
I4
ssg80
g3512
sg73
(lp3519
S'Tue, 29 Nov 2011 19:50:19 GMT'
p3520
asbasbasbag66
(g82
g68
NtRp3521
(dp3522
g71
(dp3523
sg80
g3451
sg73
(lp3524
g66
(g87
g68
NtRp3525
(dp3526
g71
(dp3527
g91
g92
ssg80
g3521
sg73
(lp3528
S'Pragma'
p3529
asbag66
(g87
g68
NtRp3530
(dp3531
g71
(dp3532
g98
g99
ssg80
g3521
sg73
(lp3533
S':'
asbag66
(g87
g68
NtRp3534
(dp3535
g71
(dp3536
sg80
g3521
sg73
(lp3537
g66
(g67
g68
NtRp3538
(dp3539
g71
(dp3540
g79
I4
ssg80
g3534
sg73
(lp3541
S'no-cache'
p3542
asbasbasbag66
(g82
g68
NtRp3543
(dp3544
g71
(dp3545
sg80
g3451
sg73
(lp3546
g66
(g87
g68
NtRp3547
(dp3548
g71
(dp3549
g91
g92
ssg80
g3543
sg73
(lp3550
S'X-Powered-By'
p3551
asbag66
(g87
g68
NtRp3552
(dp3553
g71
(dp3554
g98
g99
ssg80
g3543
sg73
(lp3555
S':'
asbag66
(g87
g68
NtRp3556
(dp3557
g71
(dp3558
sg80
g3543
sg73
(lp3559
g66
(g67
g68
NtRp3560
(dp3561
g71
(dp3562
g79
I4
ssg80
g3556
sg73
(lp3563
S'web2py'
p3564
asbasbasbasbasbasbasbag66
(g82
g68
NtRp3565
(dp3566
g71
(dp3567
sg80
g3087
sg73
(lp3568
g66
(g87
g68
NtRp3569
(dp3570
g71
(dp3571
g91
g92
ssg80
g3565
sg73
(lp3572
S'menu'
p3573
asbag66
(g87
g68
NtRp3574
(dp3575
g71
(dp3576
g98
g99
ssg80
g3565
sg73
(lp3577
S':'
asbag66
(g87
g68
NtRp3578
(dp3579
g71
(dp3580
sg80
g3565
sg73
(lp3581
g66
(g67
g68
NtRp3582
(dp3583
g71
(dp3584
g79
I5
ssg80
g3578
sg73
(lp3585
g66
(g75
g68
NtRp3586
(dp3587
g71
(dp3588
g79
I4
ssg80
Nsg73
(lp3589
g66
(g82
g68
NtRp3590
(dp3591
g71
(dp3592
sg80
g3586
sg73
(lp3593
g66
(g87
g68
NtRp3594
(dp3595
g71
(dp3596
sg80
g3590
sg73
(lp3597
g66
(g67
g68
NtRp3598
(dp3599
g71
(dp3600
g79
I4
ssg80
g3594
sg73
(lp3601
g66
(g75
g68
NtRp3602
(dp3603
g71
(dp3604
g79
I3
ssg80
Nsg73
(lp3605
g66
(g82
g68
NtRp3606
(dp3607
g71
(dp3608
sg80
g3602
sg73
(lp3609
g66
(g87
g68
NtRp3610
(dp3611
g71
(dp3612
sg80
g3606
sg73
(lp3613
g66
(g67
g68
NtRp3614
(dp3615
g71
(dp3616
g79
I3
ssg80
g3610
sg73
(lp3617
cgluon.languages
lazyT_unpickle
p3618
(S's\x11\x00\x00\x00Cassandra Manager'
tRp3619
asbasbasbag66
(g82
g68
NtRp3620
(dp3621
g71
(dp3622
sg80
g3602
sg73
(lp3623
g66
(g87
g68
NtRp3624
(dp3625
g71
(dp3626
sg80
g3620
sg73
(lp3627
g66
(g67
g68
NtRp3628
(dp3629
g71
(dp3630
g79
I3
ssg80
g3624
sg73
(lp3631
g1688
asbasbasbag66
(g82
g68
NtRp3632
(dp3633
g71
(dp3634
sg80
g3602
sg73
(lp3635
g66
(g87
g68
NtRp3636
(dp3637
g71
(dp3638
sg80
g3632
sg73
(lp3639
g66
(g67
g68
NtRp3640
(dp3641
g71
(dp3642
g79
I3
ssg80
g3636
sg73
(lp3643
S'/cass1/cass_mgr/index'
p3644
asbasbasbag66
(g82
g68
NtRp3645
(dp3646
g71
(dp3647
sg80
g3602
sg73
(lp3648
g66
(g87
g68
NtRp3649
(dp3650
g71
(dp3651
sg80
g3645
sg73
(lp3652
g66
(g67
g68
NtRp3653
(dp3654
g71
(dp3655
g79
I3
ssg80
g3649
sg73
(lp3656
g66
(g75
g68
NtRp3657
(dp3658
g71
(dp3659
g79
I2
ssg80
Nsg73
(lp3660
sbasbasbasbasbasbasbasbag66
(g82
g68
NtRp3661
(dp3662
g71
(dp3663
sg80
g3586
sg73
(lp3664
g66
(g87
g68
NtRp3665
(dp3666
g71
(dp3667
sg80
g3661
sg73
(lp3668
g66
(g67
g68
NtRp3669
(dp3670
g71
(dp3671
g79
I4
ssg80
g3665
sg73
(lp3672
g66
(g75
g68
NtRp3673
(dp3674
g71
(dp3675
g79
I3
ssg80
Nsg73
(lp3676
g66
(g82
g68
NtRp3677
(dp3678
g71
(dp3679
sg80
g3673
sg73
(lp3680
g66
(g87
g68
NtRp3681
(dp3682
g71
(dp3683
sg80
g3677
sg73
(lp3684
g66
(g67
g68
NtRp3685
(dp3686
g71
(dp3687
g79
I3
ssg80
g3681
sg73
(lp3688
g3618
(S's\x15\x00\x00\x00Cassandra Performance'
tRp3689
asbasbasbag66
(g82
g68
NtRp3690
(dp3691
g71
(dp3692
sg80
g3673
sg73
(lp3693
g66
(g87
g68
NtRp3694
(dp3695
g71
(dp3696
sg80
g3690
sg73
(lp3697
g66
(g67
g68
NtRp3698
(dp3699
g71
(dp3700
g79
I3
ssg80
g3694
sg73
(lp3701
g109
asbasbasbag66
(g82
g68
NtRp3702
(dp3703
g71
(dp3704
sg80
g3673
sg73
(lp3705
g66
(g87
g68
NtRp3706
(dp3707
g71
(dp3708
sg80
g3702
sg73
(lp3709
g66
(g67
g68
NtRp3710
(dp3711
g71
(dp3712
g79
I3
ssg80
g3706
sg73
(lp3713
S'/cass1/default/index'
p3714
asbasbasbag66
(g82
g68
NtRp3715
(dp3716
g71
(dp3717
sg80
g3673
sg73
(lp3718
g66
(g87
g68
NtRp3719
(dp3720
g71
(dp3721
sg80
g3715
sg73
(lp3722
g66
(g67
g68
NtRp3723
(dp3724
g71
(dp3725
g79
I3
ssg80
g3719
sg73
(lp3726
g66
(g75
g68
NtRp3727
(dp3728
g71
(dp3729
g79
I2
ssg80
Nsg73
(lp3730
sbasbasbasbasbasbasbasbag66
(g82
g68
NtRp3731
(dp3732
g71
(dp3733
sg80
g3586
sg73
(lp3734
g66
(g87
g68
NtRp3735
(dp3736
g71
(dp3737
sg80
g3731
sg73
(lp3738
g66
(g67
g68
NtRp3739
(dp3740
g71
(dp3741
g79
I4
ssg80
g3735
sg73
(lp3742
g66
(g75
g68
NtRp3743
(dp3744
g71
(dp3745
g79
I3
ssg80
Nsg73
(lp3746
g66
(g82
g68
NtRp3747
(dp3748
g71
(dp3749
sg80
g3743
sg73
(lp3750
g66
(g87
g68
NtRp3751
(dp3752
g71
(dp3753
sg80
g3747
sg73
(lp3754
g66
(g67
g68
NtRp3755
(dp3756
g71
(dp3757
g79
I3
ssg80
g3751
sg73
(lp3758
g3618
(S's\x13\x00\x00\x00Cassandra Internals'
tRp3759
asbasbasbag66
(g82
g68
NtRp3760
(dp3761
g71
(dp3762
sg80
g3743
sg73
(lp3763
g66
(g87
g68
NtRp3764
(dp3765
g71
(dp3766
sg80
g3760
sg73
(lp3767
g66
(g67
g68
NtRp3768
(dp3769
g71
(dp3770
g79
I3
ssg80
g3764
sg73
(lp3771
g109
asbasbasbag66
(g82
g68
NtRp3772
(dp3773
g71
(dp3774
sg80
g3743
sg73
(lp3775
g66
(g87
g68
NtRp3776
(dp3777
g71
(dp3778
sg80
g3772
sg73
(lp3779
g66
(g67
g68
NtRp3780
(dp3781
g71
(dp3782
g79
I3
ssg80
g3776
sg73
(lp3783
S'/cass1/cass_internals/index'
p3784
asbasbasbag66
(g82
g68
NtRp3785
(dp3786
g71
(dp3787
sg80
g3743
sg73
(lp3788
g66
(g87
g68
NtRp3789
(dp3790
g71
(dp3791
sg80
g3785
sg73
(lp3792
g66
(g67
g68
NtRp3793
(dp3794
g71
(dp3795
g79
I3
ssg80
g3789
sg73
(lp3796
g66
(g75
g68
NtRp3797
(dp3798
g71
(dp3799
g79
I2
ssg80
Nsg73
(lp3800
sbasbasbasbasbasbasbasbag66
(g82
g68
NtRp3801
(dp3802
g71
(dp3803
sg80
g3586
sg73
(lp3804
g66
(g87
g68
NtRp3805
(dp3806
g71
(dp3807
sg80
g3801
sg73
(lp3808
g66
(g67
g68
NtRp3809
(dp3810
g71
(dp3811
g79
I4
ssg80
g3805
sg73
(lp3812
g66
(g75
g68
NtRp3813
(dp3814
g71
(dp3815
g79
I3
ssg80
Nsg73
(lp3816
g66
(g82
g68
NtRp3817
(dp3818
g71
(dp3819
sg80
g3813
sg73
(lp3820
g66
(g87
g68
NtRp3821
(dp3822
g71
(dp3823
sg80
g3817
sg73
(lp3824
g66
(g67
g68
NtRp3825
(dp3826
g71
(dp3827
g79
I3
ssg80
g3821
sg73
(lp3828
g3618
(S's\r\x00\x00\x00MySQL Manager'
tRp3829
asbasbasbag66
(g82
g68
NtRp3830
(dp3831
g71
(dp3832
sg80
g3813
sg73
(lp3833
g66
(g87
g68
NtRp3834
(dp3835
g71
(dp3836
sg80
g3830
sg73
(lp3837
g66
(g67
g68
NtRp3838
(dp3839
g71
(dp3840
g79
I3
ssg80
g3834
sg73
(lp3841
g109
asbasbasbag66
(g82
g68
NtRp3842
(dp3843
g71
(dp3844
sg80
g3813
sg73
(lp3845
g66
(g87
g68
NtRp3846
(dp3847
g71
(dp3848
sg80
g3842
sg73
(lp3849
g66
(g67
g68
NtRp3850
(dp3851
g71
(dp3852
g79
I3
ssg80
g3846
sg73
(lp3853
S'/cass1/internals/index'
p3854
asbasbasbag66
(g82
g68
NtRp3855
(dp3856
g71
(dp3857
sg80
g3813
sg73
(lp3858
g66
(g87
g68
NtRp3859
(dp3860
g71
(dp3861
sg80
g3855
sg73
(lp3862
g66
(g67
g68
NtRp3863
(dp3864
g71
(dp3865
g79
I3
ssg80
g3859
sg73
(lp3866
g66
(g75
g68
NtRp3867
(dp3868
g71
(dp3869
g79
I2
ssg80
Nsg73
(lp3870
sbasbasbasbasbasbasbasbag66
(g82
g68
NtRp3871
(dp3872
g71
(dp3873
sg80
g3586
sg73
(lp3874
g66
(g87
g68
NtRp3875
(dp3876
g71
(dp3877
sg80
g3871
sg73
(lp3878
g66
(g67
g68
NtRp3879
(dp3880
g71
(dp3881
g79
I4
ssg80
g3875
sg73
(lp3882
g66
(g75
g68
NtRp3883
(dp3884
g71
(dp3885
g79
I3
ssg80
Nsg73
(lp3886
g66
(g82
g68
NtRp3887
(dp3888
g71
(dp3889
sg80
g3883
sg73
(lp3890
g66
(g87
g68
NtRp3891
(dp3892
g71
(dp3893
sg80
g3887
sg73
(lp3894
g66
(g67
g68
NtRp3895
(dp3896
g71
(dp3897
g79
I3
ssg80
g3891
sg73
(lp3898
g3618
(S's\x11\x00\x00\x00MySQL Performance'
tRp3899
asbasbasbag66
(g82
g68
NtRp3900
(dp3901
g71
(dp3902
sg80
g3883
sg73
(lp3903
g66
(g87
g68
NtRp3904
(dp3905
g71
(dp3906
sg80
g3900
sg73
(lp3907
g66
(g67
g68
NtRp3908
(dp3909
g71
(dp3910
g79
I3
ssg80
g3904
sg73
(lp3911
g109
asbasbasbag66
(g82
g68
NtRp3912
(dp3913
g71
(dp3914
sg80
g3883
sg73
(lp3915
g66
(g87
g68
NtRp3916
(dp3917
g71
(dp3918
sg80
g3912
sg73
(lp3919
g66
(g67
g68
NtRp3920
(dp3921
g71
(dp3922
g79
I3
ssg80
g3916
sg73
(lp3923
S'/cass1/internals/index'
p3924
asbasbasbag66
(g82
g68
NtRp3925
(dp3926
g71
(dp3927
sg80
g3883
sg73
(lp3928
g66
(g87
g68
NtRp3929
(dp3930
g71
(dp3931
sg80
g3925
sg73
(lp3932
g66
(g67
g68
NtRp3933
(dp3934
g71
(dp3935
g79
I3
ssg80
g3929
sg73
(lp3936
g66
(g75
g68
NtRp3937
(dp3938
g71
(dp3939
g79
I2
ssg80
Nsg73
(lp3940
sbasbasbasbasbasbasbasbasbasbasbasbag66
(g82
g68
NtRp3941
(dp3942
g71
(dp3943
sg80
g3087
sg73
(lp3944
g66
(g87
g68
NtRp3945
(dp3946
g71
(dp3947
g91
g92
ssg80
g3941
sg73
(lp3948
S'meta'
p3949
asbag66
(g87
g68
NtRp3950
(dp3951
g71
(dp3952
g98
g99
ssg80
g3941
sg73
(lp3953
S':'
asbag66
(g87
g68
NtRp3954
(dp3955
g71
(dp3956
sg80
g3941
sg73
(lp3957
g66
(g67
g68
NtRp3958
(dp3959
g71
(dp3960
g79
I5
ssg80
g3954
sg73
(lp3961
g66
(g75
g68
NtRp3962
(dp3963
g71
(dp3964
g79
I4
ssg80
Nsg73
(lp3965
g66
(g82
g68
NtRp3966
(dp3967
g71
(dp3968
sg80
g3962
sg73
(lp3969
g66
(g87
g68
NtRp3970
(dp3971
g71
(dp3972
g91
g92
ssg80
g3966
sg73
(lp3973
S'author'
p3974
asbag66
(g87
g68
NtRp3975
(dp3976
g71
(dp3977
g98
g99
ssg80
g3966
sg73
(lp3978
S':'
asbag66
(g87
g68
NtRp3979
(dp3980
g71
(dp3981
sg80
g3966
sg73
(lp3982
g66
(g67
g68
NtRp3983
(dp3984
g71
(dp3985
g79
I4
ssg80
g3979
sg73
(lp3986
S'chris <chris@cheynes.org>'
p3987
asbasbasbag66
(g82
g68
NtRp3988
(dp3989
g71
(dp3990
sg80
g3962
sg73
(lp3991
g66
(g87
g68
NtRp3992
(dp3993
g71
(dp3994
g91
g92
ssg80
g3988
sg73
(lp3995
S'description'
p3996
asbag66
(g87
g68
NtRp3997
(dp3998
g71
(dp3999
g98
g99
ssg80
g3988
sg73
(lp4000
S':'
asbag66
(g87
g68
NtRp4001
(dp4002
g71
(dp4003
sg80
g3988
sg73
(lp4004
g66
(g67
g68
NtRp4005
(dp4006
g71
(dp4007
g79
I4
ssg80
g4001
sg73
(lp4008
S'Test application 1'
p4009
asbasbasbag66
(g82
g68
NtRp4010
(dp4011
g71
(dp4012
sg80
g3962
sg73
(lp4013
g66
(g87
g68
NtRp4014
(dp4015
g71
(dp4016
g91
g92
ssg80
g4010
sg73
(lp4017
S'keywords'
p4018
asbag66
(g87
g68
NtRp4019
(dp4020
g71
(dp4021
g98
g99
ssg80
g4010
sg73
(lp4022
S':'
asbag66
(g87
g68
NtRp4023
(dp4024
g71
(dp4025
sg80
g4010
sg73
(lp4026
g66
(g67
g68
NtRp4027
(dp4028
g71
(dp4029
g79
I4
ssg80
g4023
sg73
(lp4030
S'cassandra,bigdata,nosql'
p4031
asbasbasbasbasbasbasbag66
(g82
g68
NtRp4032
(dp4033
g71
(dp4034
sg80
g3087
sg73
(lp4035
g66
(g87
g68
NtRp4036
(dp4037
g71
(dp4038
g91
g92
ssg80
g4032
sg73
(lp4039
S'postprocessing'
p4040
asbag66
(g87
g68
NtRp4041
(dp4042
g71
(dp4043
g98
g99
ssg80
g4032
sg73
(lp4044
S':'
asbag66
(g87
g68
NtRp4045
(dp4046
g71
(dp4047
sg80
g4032
sg73
(lp4048
g66
(g67
g68
NtRp4049
(dp4050
g71
(dp4051
g79
I5
ssg80
g4045
sg73
(lp4052
g66
(g75
g68
NtRp4053
(dp4054
g71
(dp4055
g79
I4
ssg80
Nsg73
(lp4056
sbasbasbasbag66
(g82
g68
NtRp4057
(dp4058
g71
(dp4059
sg80
g3087
sg73
(lp4060
g66
(g87
g68
NtRp4061
(dp4062
g71
(dp4063
g91
g92
ssg80
g4057
sg73
(lp4064
S'session_file'
p4065
asbag66
(g87
g68
NtRp4066
(dp4067
g71
(dp4068
g98
g99
ssg80
g4057
sg73
(lp4069
S':'
asbag66
(g87
g68
NtRp4070
(dp4071
g71
(dp4072
sg80
g4057
sg73
(lp4073
g66
(g67
g68
NtRp4074
(dp4075
g71
(dp4076
g79
I5
ssg80
g4070
sg73
(lp4077
S"<open file '/opt/work/projects/web2py/applications/cass1/sessions/127.0.0.1-6fe6a3f9-2307-46a2-954a-6299fc7a60ca', mode 'rb+' at 0x35564b0>"
p4078
asbasbasbag66
(g82
g68
NtRp4079
(dp4080
g71
(dp4081
sg80
g3087
sg73
(lp4082
g66
(g87
g68
NtRp4083
(dp4084
g71
(dp4085
g91
g92
ssg80
g4079
sg73
(lp4086
S'session_filename'
p4087
asbag66
(g87
g68
NtRp4088
(dp4089
g71
(dp4090
g98
g99
ssg80
g4079
sg73
(lp4091
S':'
asbag66
(g87
g68
NtRp4092
(dp4093
g71
(dp4094
sg80
g4079
sg73
(lp4095
g66
(g67
g68
NtRp4096
(dp4097
g71
(dp4098
g79
I5
ssg80
g4092
sg73
(lp4099
S'/opt/work/projects/web2py/applications/cass1/sessions/127.0.0.1-6fe6a3f9-2307-46a2-954a-6299fc7a60ca'
p4100
asbasbasbag66
(g82
g68
NtRp4101
(dp4102
g71
(dp4103
sg80
g3087
sg73
(lp4104
g66
(g87
g68
NtRp4105
(dp4106
g71
(dp4107
g91
g92
ssg80
g4101
sg73
(lp4108
S'session_id'
p4109
asbag66
(g87
g68
NtRp4110
(dp4111
g71
(dp4112
g98
g99
ssg80
g4101
sg73
(lp4113
S':'
asbag66
(g87
g68
NtRp4114
(dp4115
g71
(dp4116
sg80
g4101
sg73
(lp4117
g66
(g67
g68
NtRp4118
(dp4119
g71
(dp4120
g79
I5
ssg80
g4114
sg73
(lp4121
S'127.0.0.1-6fe6a3f9-2307-46a2-954a-6299fc7a60ca'
p4122
asbasbasbag66
(g82
g68
NtRp4123
(dp4124
g71
(dp4125
sg80
g3087
sg73
(lp4126
g66
(g87
g68
NtRp4127
(dp4128
g71
(dp4129
g91
g92
ssg80
g4123
sg73
(lp4130
S'session_id_name'
p4131
asbag66
(g87
g68
NtRp4132
(dp4133
g71
(dp4134
g98
g99
ssg80
g4123
sg73
(lp4135
S':'
asbag66
(g87
g68
NtRp4136
(dp4137
g71
(dp4138
sg80
g4123
sg73
(lp4139
g66
(g67
g68
NtRp4140
(dp4141
g71
(dp4142
g79
I5
ssg80
g4136
sg73
(lp4143
g3144
asbasbasbag66
(g82
g68
NtRp4144
(dp4145
g71
(dp4146
sg80
g3087
sg73
(lp4147
g66
(g87
g68
NtRp4148
(dp4149
g71
(dp4150
g91
g92
ssg80
g4144
sg73
(lp4151
S'session_locked'
p4152
asbag66
(g87
g68
NtRp4153
(dp4154
g71
(dp4155
g98
g99
ssg80
g4144
sg73
(lp4156
S':'
asbag66
(g87
g68
NtRp4157
(dp4158
g71
(dp4159
sg80
g4144
sg73
(lp4160
g66
(g67
g68
NtRp4161
(dp4162
g71
(dp4163
g79
I5
ssg80
g4157
sg73
(lp4164
g1688
asbasbasbag66
(g82
g68
NtRp4165
(dp4166
g71
(dp4167
sg80
g3087
sg73
(lp4168
g66
(g87
g68
NtRp4169
(dp4170
g71
(dp4171
g91
g92
ssg80
g4165
sg73
(lp4172
S'session_new'
p4173
asbag66
(g87
g68
NtRp4174
(dp4175
g71
(dp4176
g98
g99
ssg80
g4165
sg73
(lp4177
S':'
asbag66
(g87
g68
NtRp4178
(dp4179
g71
(dp4180
sg80
g4165
sg73
(lp4181
g66
(g67
g68
NtRp4182
(dp4183
g71
(dp4184
g79
I5
ssg80
g4178
sg73
(lp4185
g109
asbasbasbag66
(g82
g68
NtRp4186
(dp4187
g71
(dp4188
sg80
g3087
sg73
(lp4189
g66
(g87
g68
NtRp4190
(dp4191
g71
(dp4192
g91
g92
ssg80
g4186
sg73
(lp4193
S'status'
p4194
asbag66
(g87
g68
NtRp4195
(dp4196
g71
(dp4197
g98
g99
ssg80
g4186
sg73
(lp4198
S':'
asbag66
(g87
g68
NtRp4199
(dp4200
g71
(dp4201
sg80
g4186
sg73
(lp4202
g66
(g67
g68
NtRp4203
(dp4204
g71
(dp4205
g79
I5
ssg80
g4199
sg73
(lp4206
S'200'
p4207
asbasbasbag66
(g82
g68
NtRp4208
(dp4209
g71
(dp4210
sg80
g3087
sg73
(lp4211
g66
(g87
g68
NtRp4212
(dp4213
g71
(dp4214
g91
g92
ssg80
g4208
sg73
(lp4215
S'subtitle'
p4216
asbag66
(g87
g68
NtRp4217
(dp4218
g71
(dp4219
g98
g99
ssg80
g4208
sg73
(lp4220
S':'
asbag66
(g87
g68
NtRp4221
(dp4222
g71
(dp4223
sg80
g4208
sg73
(lp4224
g66
(g67
g68
NtRp4225
(dp4226
g71
(dp4227
g79
I5
ssg80
g4221
sg73
(lp4228
S'HEARST Magazines UK'
p4229
asbasbasbag66
(g82
g68
NtRp4230
(dp4231
g71
(dp4232
sg80
g3087
sg73
(lp4233
g66
(g87
g68
NtRp4234
(dp4235
g71
(dp4236
g91
g92
ssg80
g4230
sg73
(lp4237
S'title'
p4238
asbag66
(g87
g68
NtRp4239
(dp4240
g71
(dp4241
g98
g99
ssg80
g4230
sg73
(lp4242
S':'
asbag66
(g87
g68
NtRp4243
(dp4244
g71
(dp4245
sg80
g4230
sg73
(lp4246
g66
(g67
g68
NtRp4247
(dp4248
g71
(dp4249
g79
I5
ssg80
g4243
sg73
(lp4250
S'Cassandra Manager 0.01'
p4251
asbasbasbag66
(g82
g68
NtRp4252
(dp4253
g71
(dp4254
sg80
g3087
sg73
(lp4255
g66
(g87
g68
NtRp4256
(dp4257
g71
(dp4258
g91
g92
ssg80
g4252
sg73
(lp4259
g2332
asbag66
(g87
g68
NtRp4260
(dp4261
g71
(dp4262
g98
g99
ssg80
g4252
sg73
(lp4263
S':'
asbag66
(g87
g68
NtRp4264
(dp4265
g71
(dp4266
sg80
g4252
sg73
(lp4267
g66
(g67
g68
NtRp4268
(dp4269
g71
(dp4270
g79
I5
ssg80
g4264
sg73
(lp4271
g2345
asbasbasbag66
(g82
g68
NtRp4272
(dp4273
g71
(dp4274
sg80
g3087
sg73
(lp4275
g66
(g87
g68
NtRp4276
(dp4277
g71
(dp4278
g91
g92
ssg80
g4272
sg73
(lp4279
S'view'
p4280
asbag66
(g87
g68
NtRp4281
(dp4282
g71
(dp4283
g98
g99
ssg80
g4272
sg73
(lp4284
S':'
asbag66
(g87
g68
NtRp4285
(dp4286
g71
(dp4287
sg80
g4272
sg73
(lp4288
g66
(g67
g68
NtRp4289
(dp4290
g71
(dp4291
g79
I5
ssg80
g4285
sg73
(lp4292
S'cass_mgr/index.html'
p4293
asbasbasbasbasbsS'locals'
p4294
(dp4295
g3
S"'/opt/work/projects/web2py/applications/cass1/controllers/cass_mgr.py'"
p4296
sg5
S"'# coding: utf8\\n# try something lik\\nimport .. myd...ASS_JMX)\\n\\nresponse._vars=response._caller(index)\\n'"
p4297
sssS'traceback'
p4298
S'Traceback (most recent call last):\n  File "/opt/work/projects/web2py/gluon/restricted.py", line 193, in restricted\n    ccode = compile2(code,layer)\n  File "/opt/work/projects/web2py/gluon/restricted.py", line 179, in compile2\n    return compile(code.rstrip().replace(\'\\r\\n\',\'\\n\')+\'\\n\', layer, \'exec\')\n  File "/opt/work/projects/web2py/applications/cass1/controllers/cass_mgr.py", line 3\n    import .. mydata\n           ^\nSyntaxError: invalid syntax\n'
p4299
s.